
./main.elf:     file format elf32-littlearm


Disassembly of section .isr_vector:

08000000 <g_pfnVectors>:
 8000000:	20004000 	andcs	r4, r0, r0
 8000004:	08001049 	stmdaeq	r0, {r0, r3, r6, ip}
 8000008:	08001099 	stmdaeq	r0, {r0, r3, r4, r7, ip}
 800000c:	08001099 	stmdaeq	r0, {r0, r3, r4, r7, ip}
	...
 800002c:	08001099 	stmdaeq	r0, {r0, r3, r4, r7, ip}
	...
 8000038:	08001099 	stmdaeq	r0, {r0, r3, r4, r7, ip}
 800003c:	08001099 	stmdaeq	r0, {r0, r3, r4, r7, ip}
 8000040:	08001099 	stmdaeq	r0, {r0, r3, r4, r7, ip}
 8000044:	08001099 	stmdaeq	r0, {r0, r3, r4, r7, ip}
 8000048:	08001099 	stmdaeq	r0, {r0, r3, r4, r7, ip}
 800004c:	08001099 	stmdaeq	r0, {r0, r3, r4, r7, ip}
 8000050:	08001099 	stmdaeq	r0, {r0, r3, r4, r7, ip}
 8000054:	08001099 	stmdaeq	r0, {r0, r3, r4, r7, ip}
 8000058:	08001099 	stmdaeq	r0, {r0, r3, r4, r7, ip}
 800005c:	08001099 	stmdaeq	r0, {r0, r3, r4, r7, ip}
 8000060:	08001099 	stmdaeq	r0, {r0, r3, r4, r7, ip}
 8000064:	08001099 	stmdaeq	r0, {r0, r3, r4, r7, ip}
 8000068:	08001099 	stmdaeq	r0, {r0, r3, r4, r7, ip}
 800006c:	08001099 	stmdaeq	r0, {r0, r3, r4, r7, ip}
 8000070:	08001099 	stmdaeq	r0, {r0, r3, r4, r7, ip}
 8000074:	08001099 	stmdaeq	r0, {r0, r3, r4, r7, ip}
 8000078:	08001099 	stmdaeq	r0, {r0, r3, r4, r7, ip}
 800007c:	08001099 	stmdaeq	r0, {r0, r3, r4, r7, ip}
 8000080:	08001099 	stmdaeq	r0, {r0, r3, r4, r7, ip}
 8000084:	08001099 	stmdaeq	r0, {r0, r3, r4, r7, ip}
 8000088:	08001099 	stmdaeq	r0, {r0, r3, r4, r7, ip}
 800008c:	08001099 	stmdaeq	r0, {r0, r3, r4, r7, ip}
 8000090:	08001099 	stmdaeq	r0, {r0, r3, r4, r7, ip}
 8000094:	08001099 	stmdaeq	r0, {r0, r3, r4, r7, ip}
 8000098:	08001099 	stmdaeq	r0, {r0, r3, r4, r7, ip}
 800009c:	08001099 	stmdaeq	r0, {r0, r3, r4, r7, ip}
 80000a0:	08001099 	stmdaeq	r0, {r0, r3, r4, r7, ip}
 80000a4:	08001099 	stmdaeq	r0, {r0, r3, r4, r7, ip}
 80000a8:	08001099 	stmdaeq	r0, {r0, r3, r4, r7, ip}
 80000ac:	08001099 	stmdaeq	r0, {r0, r3, r4, r7, ip}
 80000b0:	08001099 	stmdaeq	r0, {r0, r3, r4, r7, ip}
 80000b4:	08001099 	stmdaeq	r0, {r0, r3, r4, r7, ip}
 80000b8:	08001099 	stmdaeq	r0, {r0, r3, r4, r7, ip}
 80000bc:	08001099 	stmdaeq	r0, {r0, r3, r4, r7, ip}

Disassembly of section .text:

080000c0 <deregister_tm_clones>:
 80000c0:	b508      	push	{r3, lr}
 80000c2:	4b05      	ldr	r3, [pc, #20]	; (80000d8 <deregister_tm_clones+0x18>)
 80000c4:	4805      	ldr	r0, [pc, #20]	; (80000dc <deregister_tm_clones+0x1c>)
 80000c6:	3303      	adds	r3, #3
 80000c8:	1a1b      	subs	r3, r3, r0
 80000ca:	2b06      	cmp	r3, #6
 80000cc:	d903      	bls.n	80000d6 <deregister_tm_clones+0x16>
 80000ce:	4b04      	ldr	r3, [pc, #16]	; (80000e0 <deregister_tm_clones+0x20>)
 80000d0:	2b00      	cmp	r3, #0
 80000d2:	d000      	beq.n	80000d6 <deregister_tm_clones+0x16>
 80000d4:	4798      	blx	r3
 80000d6:	bd08      	pop	{r3, pc}
 80000d8:	20000440 	andcs	r0, r0, r0, asr #8
 80000dc:	20000440 	andcs	r0, r0, r0, asr #8
 80000e0:	00000000 	andeq	r0, r0, r0

080000e4 <register_tm_clones>:
 80000e4:	4806      	ldr	r0, [pc, #24]	; (8000100 <register_tm_clones+0x1c>)
 80000e6:	4907      	ldr	r1, [pc, #28]	; (8000104 <register_tm_clones+0x20>)
 80000e8:	b508      	push	{r3, lr}
 80000ea:	1a09      	subs	r1, r1, r0
 80000ec:	1089      	asrs	r1, r1, #2
 80000ee:	0fcb      	lsrs	r3, r1, #31
 80000f0:	1859      	adds	r1, r3, r1
 80000f2:	1049      	asrs	r1, r1, #1
 80000f4:	d003      	beq.n	80000fe <register_tm_clones+0x1a>
 80000f6:	4b04      	ldr	r3, [pc, #16]	; (8000108 <register_tm_clones+0x24>)
 80000f8:	2b00      	cmp	r3, #0
 80000fa:	d000      	beq.n	80000fe <register_tm_clones+0x1a>
 80000fc:	4798      	blx	r3
 80000fe:	bd08      	pop	{r3, pc}
 8000100:	20000440 	andcs	r0, r0, r0, asr #8
 8000104:	20000440 	andcs	r0, r0, r0, asr #8
 8000108:	00000000 	andeq	r0, r0, r0

0800010c <__do_global_dtors_aux>:
 800010c:	b510      	push	{r4, lr}
 800010e:	4c07      	ldr	r4, [pc, #28]	; (800012c <__do_global_dtors_aux+0x20>)
 8000110:	7823      	ldrb	r3, [r4, #0]
 8000112:	2b00      	cmp	r3, #0
 8000114:	d109      	bne.n	800012a <__do_global_dtors_aux+0x1e>
 8000116:	f7ff ffd3 	bl	80000c0 <deregister_tm_clones>
 800011a:	4b05      	ldr	r3, [pc, #20]	; (8000130 <__do_global_dtors_aux+0x24>)
 800011c:	2b00      	cmp	r3, #0
 800011e:	d002      	beq.n	8000126 <__do_global_dtors_aux+0x1a>
 8000120:	4804      	ldr	r0, [pc, #16]	; (8000134 <__do_global_dtors_aux+0x28>)
 8000122:	e000      	b.n	8000126 <__do_global_dtors_aux+0x1a>
 8000124:	bf00      	nop
 8000126:	2301      	movs	r3, #1
 8000128:	7023      	strb	r3, [r4, #0]
 800012a:	bd10      	pop	{r4, pc}
 800012c:	20000440 	andcs	r0, r0, r0, asr #8
 8000130:	00000000 	andeq	r0, r0, r0
 8000134:	08001290 	stmdaeq	r0, {r4, r7, r9, ip}

08000138 <frame_dummy>:
 8000138:	b508      	push	{r3, lr}
 800013a:	4b09      	ldr	r3, [pc, #36]	; (8000160 <frame_dummy+0x28>)
 800013c:	2b00      	cmp	r3, #0
 800013e:	d003      	beq.n	8000148 <frame_dummy+0x10>
 8000140:	4808      	ldr	r0, [pc, #32]	; (8000164 <frame_dummy+0x2c>)
 8000142:	4909      	ldr	r1, [pc, #36]	; (8000168 <frame_dummy+0x30>)
 8000144:	e000      	b.n	8000148 <frame_dummy+0x10>
 8000146:	bf00      	nop
 8000148:	4808      	ldr	r0, [pc, #32]	; (800016c <frame_dummy+0x34>)
 800014a:	6803      	ldr	r3, [r0, #0]
 800014c:	2b00      	cmp	r3, #0
 800014e:	d102      	bne.n	8000156 <frame_dummy+0x1e>
 8000150:	f7ff ffc8 	bl	80000e4 <register_tm_clones>
 8000154:	bd08      	pop	{r3, pc}
 8000156:	4b06      	ldr	r3, [pc, #24]	; (8000170 <frame_dummy+0x38>)
 8000158:	2b00      	cmp	r3, #0
 800015a:	d0f9      	beq.n	8000150 <frame_dummy+0x18>
 800015c:	4798      	blx	r3
 800015e:	e7f7      	b.n	8000150 <frame_dummy+0x18>
 8000160:	00000000 	andeq	r0, r0, r0
 8000164:	08001290 	stmdaeq	r0, {r4, r7, r9, ip}
 8000168:	20000444 	andcs	r0, r0, r4, asr #8
 800016c:	20000440 	andcs	r0, r0, r0, asr #8
 8000170:	00000000 	andeq	r0, r0, r0

08000174 <__aeabi_uidiv>:
 8000174:	2200      	movs	r2, #0
 8000176:	0843      	lsrs	r3, r0, #1
 8000178:	428b      	cmp	r3, r1
 800017a:	d374      	bcc.n	8000266 <__aeabi_uidiv+0xf2>
 800017c:	0903      	lsrs	r3, r0, #4
 800017e:	428b      	cmp	r3, r1
 8000180:	d35f      	bcc.n	8000242 <__aeabi_uidiv+0xce>
 8000182:	0a03      	lsrs	r3, r0, #8
 8000184:	428b      	cmp	r3, r1
 8000186:	d344      	bcc.n	8000212 <__aeabi_uidiv+0x9e>
 8000188:	0b03      	lsrs	r3, r0, #12
 800018a:	428b      	cmp	r3, r1
 800018c:	d328      	bcc.n	80001e0 <__aeabi_uidiv+0x6c>
 800018e:	0c03      	lsrs	r3, r0, #16
 8000190:	428b      	cmp	r3, r1
 8000192:	d30d      	bcc.n	80001b0 <__aeabi_uidiv+0x3c>
 8000194:	22ff      	movs	r2, #255	; 0xff
 8000196:	0209      	lsls	r1, r1, #8
 8000198:	ba12      	rev	r2, r2
 800019a:	0c03      	lsrs	r3, r0, #16
 800019c:	428b      	cmp	r3, r1
 800019e:	d302      	bcc.n	80001a6 <__aeabi_uidiv+0x32>
 80001a0:	1212      	asrs	r2, r2, #8
 80001a2:	0209      	lsls	r1, r1, #8
 80001a4:	d065      	beq.n	8000272 <__aeabi_uidiv+0xfe>
 80001a6:	0b03      	lsrs	r3, r0, #12
 80001a8:	428b      	cmp	r3, r1
 80001aa:	d319      	bcc.n	80001e0 <__aeabi_uidiv+0x6c>
 80001ac:	e000      	b.n	80001b0 <__aeabi_uidiv+0x3c>
 80001ae:	0a09      	lsrs	r1, r1, #8
 80001b0:	0bc3      	lsrs	r3, r0, #15
 80001b2:	428b      	cmp	r3, r1
 80001b4:	d301      	bcc.n	80001ba <__aeabi_uidiv+0x46>
 80001b6:	03cb      	lsls	r3, r1, #15
 80001b8:	1ac0      	subs	r0, r0, r3
 80001ba:	4152      	adcs	r2, r2
 80001bc:	0b83      	lsrs	r3, r0, #14
 80001be:	428b      	cmp	r3, r1
 80001c0:	d301      	bcc.n	80001c6 <__aeabi_uidiv+0x52>
 80001c2:	038b      	lsls	r3, r1, #14
 80001c4:	1ac0      	subs	r0, r0, r3
 80001c6:	4152      	adcs	r2, r2
 80001c8:	0b43      	lsrs	r3, r0, #13
 80001ca:	428b      	cmp	r3, r1
 80001cc:	d301      	bcc.n	80001d2 <__aeabi_uidiv+0x5e>
 80001ce:	034b      	lsls	r3, r1, #13
 80001d0:	1ac0      	subs	r0, r0, r3
 80001d2:	4152      	adcs	r2, r2
 80001d4:	0b03      	lsrs	r3, r0, #12
 80001d6:	428b      	cmp	r3, r1
 80001d8:	d301      	bcc.n	80001de <__aeabi_uidiv+0x6a>
 80001da:	030b      	lsls	r3, r1, #12
 80001dc:	1ac0      	subs	r0, r0, r3
 80001de:	4152      	adcs	r2, r2
 80001e0:	0ac3      	lsrs	r3, r0, #11
 80001e2:	428b      	cmp	r3, r1
 80001e4:	d301      	bcc.n	80001ea <__aeabi_uidiv+0x76>
 80001e6:	02cb      	lsls	r3, r1, #11
 80001e8:	1ac0      	subs	r0, r0, r3
 80001ea:	4152      	adcs	r2, r2
 80001ec:	0a83      	lsrs	r3, r0, #10
 80001ee:	428b      	cmp	r3, r1
 80001f0:	d301      	bcc.n	80001f6 <__aeabi_uidiv+0x82>
 80001f2:	028b      	lsls	r3, r1, #10
 80001f4:	1ac0      	subs	r0, r0, r3
 80001f6:	4152      	adcs	r2, r2
 80001f8:	0a43      	lsrs	r3, r0, #9
 80001fa:	428b      	cmp	r3, r1
 80001fc:	d301      	bcc.n	8000202 <__aeabi_uidiv+0x8e>
 80001fe:	024b      	lsls	r3, r1, #9
 8000200:	1ac0      	subs	r0, r0, r3
 8000202:	4152      	adcs	r2, r2
 8000204:	0a03      	lsrs	r3, r0, #8
 8000206:	428b      	cmp	r3, r1
 8000208:	d301      	bcc.n	800020e <__aeabi_uidiv+0x9a>
 800020a:	020b      	lsls	r3, r1, #8
 800020c:	1ac0      	subs	r0, r0, r3
 800020e:	4152      	adcs	r2, r2
 8000210:	d2cd      	bcs.n	80001ae <__aeabi_uidiv+0x3a>
 8000212:	09c3      	lsrs	r3, r0, #7
 8000214:	428b      	cmp	r3, r1
 8000216:	d301      	bcc.n	800021c <__aeabi_uidiv+0xa8>
 8000218:	01cb      	lsls	r3, r1, #7
 800021a:	1ac0      	subs	r0, r0, r3
 800021c:	4152      	adcs	r2, r2
 800021e:	0983      	lsrs	r3, r0, #6
 8000220:	428b      	cmp	r3, r1
 8000222:	d301      	bcc.n	8000228 <__aeabi_uidiv+0xb4>
 8000224:	018b      	lsls	r3, r1, #6
 8000226:	1ac0      	subs	r0, r0, r3
 8000228:	4152      	adcs	r2, r2
 800022a:	0943      	lsrs	r3, r0, #5
 800022c:	428b      	cmp	r3, r1
 800022e:	d301      	bcc.n	8000234 <__aeabi_uidiv+0xc0>
 8000230:	014b      	lsls	r3, r1, #5
 8000232:	1ac0      	subs	r0, r0, r3
 8000234:	4152      	adcs	r2, r2
 8000236:	0903      	lsrs	r3, r0, #4
 8000238:	428b      	cmp	r3, r1
 800023a:	d301      	bcc.n	8000240 <__aeabi_uidiv+0xcc>
 800023c:	010b      	lsls	r3, r1, #4
 800023e:	1ac0      	subs	r0, r0, r3
 8000240:	4152      	adcs	r2, r2
 8000242:	08c3      	lsrs	r3, r0, #3
 8000244:	428b      	cmp	r3, r1
 8000246:	d301      	bcc.n	800024c <__aeabi_uidiv+0xd8>
 8000248:	00cb      	lsls	r3, r1, #3
 800024a:	1ac0      	subs	r0, r0, r3
 800024c:	4152      	adcs	r2, r2
 800024e:	0883      	lsrs	r3, r0, #2
 8000250:	428b      	cmp	r3, r1
 8000252:	d301      	bcc.n	8000258 <__aeabi_uidiv+0xe4>
 8000254:	008b      	lsls	r3, r1, #2
 8000256:	1ac0      	subs	r0, r0, r3
 8000258:	4152      	adcs	r2, r2
 800025a:	0843      	lsrs	r3, r0, #1
 800025c:	428b      	cmp	r3, r1
 800025e:	d301      	bcc.n	8000264 <__aeabi_uidiv+0xf0>
 8000260:	004b      	lsls	r3, r1, #1
 8000262:	1ac0      	subs	r0, r0, r3
 8000264:	4152      	adcs	r2, r2
 8000266:	1a41      	subs	r1, r0, r1
 8000268:	d200      	bcs.n	800026c <__aeabi_uidiv+0xf8>
 800026a:	4601      	mov	r1, r0
 800026c:	4152      	adcs	r2, r2
 800026e:	4610      	mov	r0, r2
 8000270:	4770      	bx	lr
 8000272:	e7ff      	b.n	8000274 <__aeabi_uidiv+0x100>
 8000274:	b501      	push	{r0, lr}
 8000276:	2000      	movs	r0, #0
 8000278:	f000 f80c 	bl	8000294 <__aeabi_idiv0>
 800027c:	bd02      	pop	{r1, pc}
 800027e:	46c0      	nop			; (mov r8, r8)

08000280 <__aeabi_uidivmod>:
 8000280:	2900      	cmp	r1, #0
 8000282:	d0f7      	beq.n	8000274 <__aeabi_uidiv+0x100>
 8000284:	b503      	push	{r0, r1, lr}
 8000286:	f7ff ff75 	bl	8000174 <__aeabi_uidiv>
 800028a:	bc0e      	pop	{r1, r2, r3}
 800028c:	4342      	muls	r2, r0
 800028e:	1a89      	subs	r1, r1, r2
 8000290:	4718      	bx	r3
 8000292:	46c0      	nop			; (mov r8, r8)

08000294 <__aeabi_idiv0>:
 8000294:	4770      	bx	lr
 8000296:	46c0      	nop			; (mov r8, r8)

08000298 <main>:
 8000298:	b570      	push	{r4, r5, r6, lr}
 800029a:	b092      	sub	sp, #72	; 0x48
 800029c:	f000 f85e 	bl	800035c <HAL_Init>
 80002a0:	2000      	movs	r0, #0
 80002a2:	f000 fe41 	bl	8000f28 <BSP_LED_Init>
 80002a6:	2001      	movs	r0, #1
 80002a8:	f000 fe3e 	bl	8000f28 <BSP_LED_Init>
 80002ac:	2320      	movs	r3, #32
 80002ae:	9305      	str	r3, [sp, #20]
 80002b0:	23c0      	movs	r3, #192	; 0xc0
 80002b2:	025b      	lsls	r3, r3, #9
 80002b4:	2401      	movs	r4, #1
 80002b6:	2602      	movs	r6, #2
 80002b8:	930f      	str	r3, [sp, #60]	; 0x3c
 80002ba:	2300      	movs	r3, #0
 80002bc:	a805      	add	r0, sp, #20
 80002be:	940d      	str	r4, [sp, #52]	; 0x34
 80002c0:	960e      	str	r6, [sp, #56]	; 0x38
 80002c2:	9411      	str	r4, [sp, #68]	; 0x44
 80002c4:	9310      	str	r3, [sp, #64]	; 0x40
 80002c6:	f000 f9bb 	bl	8000640 <HAL_RCC_OscConfig>
 80002ca:	2800      	cmp	r0, #0
 80002cc:	d003      	beq.n	80002d6 <main+0x3e>
 80002ce:	1c20      	adds	r0, r4, #0
 80002d0:	f000 fe7c 	bl	8000fcc <BSP_LED_Toggle>
 80002d4:	e7fe      	b.n	80002d4 <main+0x3c>
 80002d6:	2307      	movs	r3, #7
 80002d8:	9003      	str	r0, [sp, #12]
 80002da:	9004      	str	r0, [sp, #16]
 80002dc:	1c21      	adds	r1, r4, #0
 80002de:	a801      	add	r0, sp, #4
 80002e0:	9301      	str	r3, [sp, #4]
 80002e2:	9602      	str	r6, [sp, #8]
 80002e4:	f000 fcaa 	bl	8000c3c <HAL_RCC_ClockConfig>
 80002e8:	1e05      	subs	r5, r0, #0
 80002ea:	d003      	beq.n	80002f4 <main+0x5c>
 80002ec:	1c20      	adds	r0, r4, #0
 80002ee:	f000 fe6d 	bl	8000fcc <BSP_LED_Toggle>
 80002f2:	e7fe      	b.n	80002f2 <main+0x5a>
 80002f4:	2380      	movs	r3, #128	; 0x80
 80002f6:	4a0d      	ldr	r2, [pc, #52]	; (800032c <main+0x94>)
 80002f8:	029b      	lsls	r3, r3, #10
 80002fa:	6951      	ldr	r1, [r2, #20]
 80002fc:	4319      	orrs	r1, r3
 80002fe:	6151      	str	r1, [r2, #20]
 8000300:	6952      	ldr	r2, [r2, #20]
 8000302:	9007      	str	r0, [sp, #28]
 8000304:	2090      	movs	r0, #144	; 0x90
 8000306:	4013      	ands	r3, r2
 8000308:	9301      	str	r3, [sp, #4]
 800030a:	9b01      	ldr	r3, [sp, #4]
 800030c:	4b08      	ldr	r3, [pc, #32]	; (8000330 <main+0x98>)
 800030e:	05c0      	lsls	r0, r0, #23
 8000310:	a905      	add	r1, sp, #20
 8000312:	9306      	str	r3, [sp, #24]
 8000314:	9405      	str	r4, [sp, #20]
 8000316:	f000 f837 	bl	8000388 <HAL_GPIO_Init>
 800031a:	2005      	movs	r0, #5
 800031c:	1c31      	adds	r1, r6, #0
 800031e:	1c2a      	adds	r2, r5, #0
 8000320:	f000 fd98 	bl	8000e54 <HAL_NVIC_SetPriority>
 8000324:	2005      	movs	r0, #5
 8000326:	f000 fdd1 	bl	8000ecc <HAL_NVIC_EnableIRQ>
 800032a:	e7fe      	b.n	800032a <main+0x92>
 800032c:	40021000 	andmi	r1, r2, r0
 8000330:	10110000 	andsne	r0, r1, r0

08000334 <assert_failed>:
 8000334:	e7fe      	b.n	8000334 <assert_failed>

08000336 <HAL_MspInit>:
 8000336:	4770      	bx	lr

08000338 <HAL_InitTick>:
 8000338:	b510      	push	{r4, lr}
 800033a:	1c04      	adds	r4, r0, #0
 800033c:	f000 fd84 	bl	8000e48 <HAL_RCC_GetHCLKFreq>
 8000340:	21fa      	movs	r1, #250	; 0xfa
 8000342:	0089      	lsls	r1, r1, #2
 8000344:	f7ff ff16 	bl	8000174 <__aeabi_uidiv>
 8000348:	f000 fdd4 	bl	8000ef4 <HAL_SYSTICK_Config>
 800034c:	2001      	movs	r0, #1
 800034e:	1c21      	adds	r1, r4, #0
 8000350:	4240      	negs	r0, r0
 8000352:	2200      	movs	r2, #0
 8000354:	f000 fd7e 	bl	8000e54 <HAL_NVIC_SetPriority>
 8000358:	2000      	movs	r0, #0
 800035a:	bd10      	pop	{r4, pc}

0800035c <HAL_Init>:
 800035c:	2110      	movs	r1, #16
 800035e:	4a06      	ldr	r2, [pc, #24]	; (8000378 <HAL_Init+0x1c>)
 8000360:	b508      	push	{r3, lr}
 8000362:	6813      	ldr	r3, [r2, #0]
 8000364:	2003      	movs	r0, #3
 8000366:	430b      	orrs	r3, r1
 8000368:	6013      	str	r3, [r2, #0]
 800036a:	f7ff ffe5 	bl	8000338 <HAL_InitTick>
 800036e:	f7ff ffe2 	bl	8000336 <HAL_MspInit>
 8000372:	2000      	movs	r0, #0
 8000374:	bd08      	pop	{r3, pc}
 8000376:	46c0      	nop			; (mov r8, r8)
 8000378:	40022000 	andmi	r2, r2, r0

0800037c <HAL_GetTick>:
 800037c:	4b01      	ldr	r3, [pc, #4]	; (8000384 <HAL_GetTick+0x8>)
 800037e:	6818      	ldr	r0, [r3, #0]
 8000380:	4770      	bx	lr
 8000382:	46c0      	nop			; (mov r8, r8)
 8000384:	2000045c 	andcs	r0, r0, ip, asr r4

08000388 <HAL_GPIO_Init>:
 8000388:	2390      	movs	r3, #144	; 0x90
 800038a:	b5f0      	push	{r4, r5, r6, r7, lr}
 800038c:	05db      	lsls	r3, r3, #23
 800038e:	b087      	sub	sp, #28
 8000390:	1c04      	adds	r4, r0, #0
 8000392:	1c0d      	adds	r5, r1, #0
 8000394:	4298      	cmp	r0, r3
 8000396:	d012      	beq.n	80003be <HAL_GPIO_Init+0x36>
 8000398:	4b85      	ldr	r3, [pc, #532]	; (80005b0 <HAL_GPIO_Init+0x228>)
 800039a:	4298      	cmp	r0, r3
 800039c:	d00f      	beq.n	80003be <HAL_GPIO_Init+0x36>
 800039e:	4b85      	ldr	r3, [pc, #532]	; (80005b4 <HAL_GPIO_Init+0x22c>)
 80003a0:	4298      	cmp	r0, r3
 80003a2:	d00c      	beq.n	80003be <HAL_GPIO_Init+0x36>
 80003a4:	4b84      	ldr	r3, [pc, #528]	; (80005b8 <HAL_GPIO_Init+0x230>)
 80003a6:	4298      	cmp	r0, r3
 80003a8:	d009      	beq.n	80003be <HAL_GPIO_Init+0x36>
 80003aa:	4b84      	ldr	r3, [pc, #528]	; (80005bc <HAL_GPIO_Init+0x234>)
 80003ac:	4298      	cmp	r0, r3
 80003ae:	d006      	beq.n	80003be <HAL_GPIO_Init+0x36>
 80003b0:	4b83      	ldr	r3, [pc, #524]	; (80005c0 <HAL_GPIO_Init+0x238>)
 80003b2:	4298      	cmp	r0, r3
 80003b4:	d003      	beq.n	80003be <HAL_GPIO_Init+0x36>
 80003b6:	4883      	ldr	r0, [pc, #524]	; (80005c4 <HAL_GPIO_Init+0x23c>)
 80003b8:	21c1      	movs	r1, #193	; 0xc1
 80003ba:	f7ff ffbb 	bl	8000334 <assert_failed>
 80003be:	682b      	ldr	r3, [r5, #0]
 80003c0:	b29a      	uxth	r2, r3
 80003c2:	2a00      	cmp	r2, #0
 80003c4:	d001      	beq.n	80003ca <HAL_GPIO_Init+0x42>
 80003c6:	0c1b      	lsrs	r3, r3, #16
 80003c8:	d003      	beq.n	80003d2 <HAL_GPIO_Init+0x4a>
 80003ca:	487e      	ldr	r0, [pc, #504]	; (80005c4 <HAL_GPIO_Init+0x23c>)
 80003cc:	21c2      	movs	r1, #194	; 0xc2
 80003ce:	f7ff ffb1 	bl	8000334 <assert_failed>
 80003d2:	686b      	ldr	r3, [r5, #4]
 80003d4:	2b03      	cmp	r3, #3
 80003d6:	d912      	bls.n	80003fe <HAL_GPIO_Init+0x76>
 80003d8:	1c1a      	adds	r2, r3, #0
 80003da:	3a11      	subs	r2, #17
 80003dc:	2a01      	cmp	r2, #1
 80003de:	d90e      	bls.n	80003fe <HAL_GPIO_Init+0x76>
 80003e0:	4a79      	ldr	r2, [pc, #484]	; (80005c8 <HAL_GPIO_Init+0x240>)
 80003e2:	497a      	ldr	r1, [pc, #488]	; (80005cc <HAL_GPIO_Init+0x244>)
 80003e4:	401a      	ands	r2, r3
 80003e6:	1852      	adds	r2, r2, r1
 80003e8:	4979      	ldr	r1, [pc, #484]	; (80005d0 <HAL_GPIO_Init+0x248>)
 80003ea:	420a      	tst	r2, r1
 80003ec:	d007      	beq.n	80003fe <HAL_GPIO_Init+0x76>
 80003ee:	4a79      	ldr	r2, [pc, #484]	; (80005d4 <HAL_GPIO_Init+0x24c>)
 80003f0:	189b      	adds	r3, r3, r2
 80003f2:	420b      	tst	r3, r1
 80003f4:	d003      	beq.n	80003fe <HAL_GPIO_Init+0x76>
 80003f6:	4873      	ldr	r0, [pc, #460]	; (80005c4 <HAL_GPIO_Init+0x23c>)
 80003f8:	21c3      	movs	r1, #195	; 0xc3
 80003fa:	f7ff ff9b 	bl	8000334 <assert_failed>
 80003fe:	68ab      	ldr	r3, [r5, #8]
 8000400:	2b02      	cmp	r3, #2
 8000402:	d903      	bls.n	800040c <HAL_GPIO_Init+0x84>
 8000404:	486f      	ldr	r0, [pc, #444]	; (80005c4 <HAL_GPIO_Init+0x23c>)
 8000406:	21c4      	movs	r1, #196	; 0xc4
 8000408:	f7ff ff94 	bl	8000334 <assert_failed>
 800040c:	2300      	movs	r3, #0
 800040e:	9301      	str	r3, [sp, #4]
 8000410:	682b      	ldr	r3, [r5, #0]
 8000412:	9901      	ldr	r1, [sp, #4]
 8000414:	1c1a      	adds	r2, r3, #0
 8000416:	40ca      	lsrs	r2, r1
 8000418:	d100      	bne.n	800041c <HAL_GPIO_Init+0x94>
 800041a:	e0c7      	b.n	80005ac <HAL_GPIO_Init+0x224>
 800041c:	2201      	movs	r2, #1
 800041e:	9901      	ldr	r1, [sp, #4]
 8000420:	408a      	lsls	r2, r1
 8000422:	9203      	str	r2, [sp, #12]
 8000424:	401a      	ands	r2, r3
 8000426:	9202      	str	r2, [sp, #8]
 8000428:	d100      	bne.n	800042c <HAL_GPIO_Init+0xa4>
 800042a:	e0bc      	b.n	80005a6 <HAL_GPIO_Init+0x21e>
 800042c:	2310      	movs	r3, #16
 800042e:	686a      	ldr	r2, [r5, #4]
 8000430:	439a      	bics	r2, r3
 8000432:	2a02      	cmp	r2, #2
 8000434:	d12b      	bne.n	800048e <HAL_GPIO_Init+0x106>
 8000436:	2390      	movs	r3, #144	; 0x90
 8000438:	05db      	lsls	r3, r3, #23
 800043a:	429c      	cmp	r4, r3
 800043c:	d00f      	beq.n	800045e <HAL_GPIO_Init+0xd6>
 800043e:	4b5c      	ldr	r3, [pc, #368]	; (80005b0 <HAL_GPIO_Init+0x228>)
 8000440:	429c      	cmp	r4, r3
 8000442:	d00c      	beq.n	800045e <HAL_GPIO_Init+0xd6>
 8000444:	4b5b      	ldr	r3, [pc, #364]	; (80005b4 <HAL_GPIO_Init+0x22c>)
 8000446:	429c      	cmp	r4, r3
 8000448:	d009      	beq.n	800045e <HAL_GPIO_Init+0xd6>
 800044a:	4b5b      	ldr	r3, [pc, #364]	; (80005b8 <HAL_GPIO_Init+0x230>)
 800044c:	429c      	cmp	r4, r3
 800044e:	d006      	beq.n	800045e <HAL_GPIO_Init+0xd6>
 8000450:	4b5a      	ldr	r3, [pc, #360]	; (80005bc <HAL_GPIO_Init+0x234>)
 8000452:	429c      	cmp	r4, r3
 8000454:	d003      	beq.n	800045e <HAL_GPIO_Init+0xd6>
 8000456:	485b      	ldr	r0, [pc, #364]	; (80005c4 <HAL_GPIO_Init+0x23c>)
 8000458:	21d3      	movs	r1, #211	; 0xd3
 800045a:	f7ff ff6b 	bl	8000334 <assert_failed>
 800045e:	692b      	ldr	r3, [r5, #16]
 8000460:	2b07      	cmp	r3, #7
 8000462:	d903      	bls.n	800046c <HAL_GPIO_Init+0xe4>
 8000464:	4857      	ldr	r0, [pc, #348]	; (80005c4 <HAL_GPIO_Init+0x23c>)
 8000466:	21d4      	movs	r1, #212	; 0xd4
 8000468:	f7ff ff64 	bl	8000334 <assert_failed>
 800046c:	2207      	movs	r2, #7
 800046e:	9801      	ldr	r0, [sp, #4]
 8000470:	9b01      	ldr	r3, [sp, #4]
 8000472:	4002      	ands	r2, r0
 8000474:	200f      	movs	r0, #15
 8000476:	0092      	lsls	r2, r2, #2
 8000478:	4090      	lsls	r0, r2
 800047a:	08db      	lsrs	r3, r3, #3
 800047c:	009b      	lsls	r3, r3, #2
 800047e:	18e3      	adds	r3, r4, r3
 8000480:	6a19      	ldr	r1, [r3, #32]
 8000482:	4381      	bics	r1, r0
 8000484:	6928      	ldr	r0, [r5, #16]
 8000486:	4090      	lsls	r0, r2
 8000488:	1c02      	adds	r2, r0, #0
 800048a:	430a      	orrs	r2, r1
 800048c:	621a      	str	r2, [r3, #32]
 800048e:	9b01      	ldr	r3, [sp, #4]
 8000490:	6869      	ldr	r1, [r5, #4]
 8000492:	005f      	lsls	r7, r3, #1
 8000494:	2303      	movs	r3, #3
 8000496:	1c1e      	adds	r6, r3, #0
 8000498:	40be      	lsls	r6, r7
 800049a:	400b      	ands	r3, r1
 800049c:	43f6      	mvns	r6, r6
 800049e:	1c1a      	adds	r2, r3, #0
 80004a0:	6820      	ldr	r0, [r4, #0]
 80004a2:	40ba      	lsls	r2, r7
 80004a4:	4030      	ands	r0, r6
 80004a6:	1c03      	adds	r3, r0, #0
 80004a8:	4313      	orrs	r3, r2
 80004aa:	6023      	str	r3, [r4, #0]
 80004ac:	2310      	movs	r3, #16
 80004ae:	4399      	bics	r1, r3
 80004b0:	3901      	subs	r1, #1
 80004b2:	2901      	cmp	r1, #1
 80004b4:	d818      	bhi.n	80004e8 <HAL_GPIO_Init+0x160>
 80004b6:	68eb      	ldr	r3, [r5, #12]
 80004b8:	2b01      	cmp	r3, #1
 80004ba:	d905      	bls.n	80004c8 <HAL_GPIO_Init+0x140>
 80004bc:	2b03      	cmp	r3, #3
 80004be:	d003      	beq.n	80004c8 <HAL_GPIO_Init+0x140>
 80004c0:	4840      	ldr	r0, [pc, #256]	; (80005c4 <HAL_GPIO_Init+0x23c>)
 80004c2:	21e8      	movs	r1, #232	; 0xe8
 80004c4:	f7ff ff36 	bl	8000334 <assert_failed>
 80004c8:	68ea      	ldr	r2, [r5, #12]
 80004ca:	68a3      	ldr	r3, [r4, #8]
 80004cc:	40ba      	lsls	r2, r7
 80004ce:	4033      	ands	r3, r6
 80004d0:	4313      	orrs	r3, r2
 80004d2:	60a3      	str	r3, [r4, #8]
 80004d4:	6863      	ldr	r3, [r4, #4]
 80004d6:	9a03      	ldr	r2, [sp, #12]
 80004d8:	9901      	ldr	r1, [sp, #4]
 80004da:	4393      	bics	r3, r2
 80004dc:	686a      	ldr	r2, [r5, #4]
 80004de:	06d2      	lsls	r2, r2, #27
 80004e0:	0fd2      	lsrs	r2, r2, #31
 80004e2:	408a      	lsls	r2, r1
 80004e4:	4313      	orrs	r3, r2
 80004e6:	6063      	str	r3, [r4, #4]
 80004e8:	68e3      	ldr	r3, [r4, #12]
 80004ea:	6869      	ldr	r1, [r5, #4]
 80004ec:	401e      	ands	r6, r3
 80004ee:	68ab      	ldr	r3, [r5, #8]
 80004f0:	40bb      	lsls	r3, r7
 80004f2:	431e      	orrs	r6, r3
 80004f4:	60e6      	str	r6, [r4, #12]
 80004f6:	00cb      	lsls	r3, r1, #3
 80004f8:	d555      	bpl.n	80005a6 <HAL_GPIO_Init+0x21e>
 80004fa:	2001      	movs	r0, #1
 80004fc:	4b36      	ldr	r3, [pc, #216]	; (80005d8 <HAL_GPIO_Init+0x250>)
 80004fe:	699a      	ldr	r2, [r3, #24]
 8000500:	4302      	orrs	r2, r0
 8000502:	619a      	str	r2, [r3, #24]
 8000504:	699b      	ldr	r3, [r3, #24]
 8000506:	4003      	ands	r3, r0
 8000508:	9305      	str	r3, [sp, #20]
 800050a:	9b05      	ldr	r3, [sp, #20]
 800050c:	9b01      	ldr	r3, [sp, #4]
 800050e:	089a      	lsrs	r2, r3, #2
 8000510:	4b32      	ldr	r3, [pc, #200]	; (80005dc <HAL_GPIO_Init+0x254>)
 8000512:	0092      	lsls	r2, r2, #2
 8000514:	18d2      	adds	r2, r2, r3
 8000516:	2303      	movs	r3, #3
 8000518:	469c      	mov	ip, r3
 800051a:	4666      	mov	r6, ip
 800051c:	9b01      	ldr	r3, [sp, #4]
 800051e:	6897      	ldr	r7, [r2, #8]
 8000520:	4033      	ands	r3, r6
 8000522:	009b      	lsls	r3, r3, #2
 8000524:	360c      	adds	r6, #12
 8000526:	409e      	lsls	r6, r3
 8000528:	43b7      	bics	r7, r6
 800052a:	2690      	movs	r6, #144	; 0x90
 800052c:	9303      	str	r3, [sp, #12]
 800052e:	05f6      	lsls	r6, r6, #23
 8000530:	2300      	movs	r3, #0
 8000532:	42b4      	cmp	r4, r6
 8000534:	d011      	beq.n	800055a <HAL_GPIO_Init+0x1d2>
 8000536:	1c03      	adds	r3, r0, #0
 8000538:	481d      	ldr	r0, [pc, #116]	; (80005b0 <HAL_GPIO_Init+0x228>)
 800053a:	4284      	cmp	r4, r0
 800053c:	d00d      	beq.n	800055a <HAL_GPIO_Init+0x1d2>
 800053e:	481d      	ldr	r0, [pc, #116]	; (80005b4 <HAL_GPIO_Init+0x22c>)
 8000540:	18db      	adds	r3, r3, r3
 8000542:	4284      	cmp	r4, r0
 8000544:	d009      	beq.n	800055a <HAL_GPIO_Init+0x1d2>
 8000546:	481c      	ldr	r0, [pc, #112]	; (80005b8 <HAL_GPIO_Init+0x230>)
 8000548:	4663      	mov	r3, ip
 800054a:	4284      	cmp	r4, r0
 800054c:	d005      	beq.n	800055a <HAL_GPIO_Init+0x1d2>
 800054e:	4b24      	ldr	r3, [pc, #144]	; (80005e0 <HAL_GPIO_Init+0x258>)
 8000550:	18e3      	adds	r3, r4, r3
 8000552:	425e      	negs	r6, r3
 8000554:	415e      	adcs	r6, r3
 8000556:	2005      	movs	r0, #5
 8000558:	1b83      	subs	r3, r0, r6
 800055a:	9803      	ldr	r0, [sp, #12]
 800055c:	4083      	lsls	r3, r0
 800055e:	433b      	orrs	r3, r7
 8000560:	6093      	str	r3, [r2, #8]
 8000562:	4a20      	ldr	r2, [pc, #128]	; (80005e4 <HAL_GPIO_Init+0x25c>)
 8000564:	9b02      	ldr	r3, [sp, #8]
 8000566:	6816      	ldr	r6, [r2, #0]
 8000568:	43d8      	mvns	r0, r3
 800056a:	4333      	orrs	r3, r6
 800056c:	03cf      	lsls	r7, r1, #15
 800056e:	d401      	bmi.n	8000574 <HAL_GPIO_Init+0x1ec>
 8000570:	1c33      	adds	r3, r6, #0
 8000572:	4003      	ands	r3, r0
 8000574:	6013      	str	r3, [r2, #0]
 8000576:	6856      	ldr	r6, [r2, #4]
 8000578:	9b02      	ldr	r3, [sp, #8]
 800057a:	4333      	orrs	r3, r6
 800057c:	038f      	lsls	r7, r1, #14
 800057e:	d401      	bmi.n	8000584 <HAL_GPIO_Init+0x1fc>
 8000580:	1c33      	adds	r3, r6, #0
 8000582:	4003      	ands	r3, r0
 8000584:	6053      	str	r3, [r2, #4]
 8000586:	6896      	ldr	r6, [r2, #8]
 8000588:	9b02      	ldr	r3, [sp, #8]
 800058a:	4333      	orrs	r3, r6
 800058c:	02cf      	lsls	r7, r1, #11
 800058e:	d401      	bmi.n	8000594 <HAL_GPIO_Init+0x20c>
 8000590:	1c33      	adds	r3, r6, #0
 8000592:	4003      	ands	r3, r0
 8000594:	6093      	str	r3, [r2, #8]
 8000596:	68d6      	ldr	r6, [r2, #12]
 8000598:	9b02      	ldr	r3, [sp, #8]
 800059a:	4333      	orrs	r3, r6
 800059c:	0289      	lsls	r1, r1, #10
 800059e:	d401      	bmi.n	80005a4 <HAL_GPIO_Init+0x21c>
 80005a0:	1c33      	adds	r3, r6, #0
 80005a2:	4003      	ands	r3, r0
 80005a4:	60d3      	str	r3, [r2, #12]
 80005a6:	9b01      	ldr	r3, [sp, #4]
 80005a8:	3301      	adds	r3, #1
 80005aa:	e730      	b.n	800040e <HAL_GPIO_Init+0x86>
 80005ac:	b007      	add	sp, #28
 80005ae:	bdf0      	pop	{r4, r5, r6, r7, pc}
 80005b0:	48000400 	stmdami	r0, {sl}
 80005b4:	48000800 	stmdami	r0, {fp}
 80005b8:	48000c00 	stmdami	r0, {sl, fp}
 80005bc:	48001000 	stmdami	r0, {ip}
 80005c0:	48001400 	stmdami	r0, {sl, ip}
 80005c4:	080012c8 	stmdaeq	r0, {r3, r6, r7, r9, ip}
 80005c8:	ffdfffff 			; <UNDEFINED> instruction: 0xffdfffff
 80005cc:	efef0000 	svc	0x00ef0000
 80005d0:	fffeffff 			; <UNDEFINED> instruction: 0xfffeffff
 80005d4:	efdf0000 	svc	0x00df0000
 80005d8:	40021000 	andmi	r1, r2, r0
 80005dc:	40010000 	andmi	r0, r1, r0
 80005e0:	b7fff000 	ldrblt	pc, [pc, r0]!	; <UNPREDICTABLE>
 80005e4:	40010400 	andmi	r0, r1, r0, lsl #8

080005e8 <HAL_GPIO_WritePin>:
 80005e8:	b570      	push	{r4, r5, r6, lr}
 80005ea:	1c05      	adds	r5, r0, #0
 80005ec:	1c0c      	adds	r4, r1, #0
 80005ee:	1c16      	adds	r6, r2, #0
 80005f0:	2900      	cmp	r1, #0
 80005f2:	d104      	bne.n	80005fe <HAL_GPIO_WritePin+0x16>
 80005f4:	21d6      	movs	r1, #214	; 0xd6
 80005f6:	4809      	ldr	r0, [pc, #36]	; (800061c <HAL_GPIO_WritePin+0x34>)
 80005f8:	0049      	lsls	r1, r1, #1
 80005fa:	f7ff fe9b 	bl	8000334 <assert_failed>
 80005fe:	2e01      	cmp	r6, #1
 8000600:	d905      	bls.n	800060e <HAL_GPIO_WritePin+0x26>
 8000602:	21ae      	movs	r1, #174	; 0xae
 8000604:	4805      	ldr	r0, [pc, #20]	; (800061c <HAL_GPIO_WritePin+0x34>)
 8000606:	31ff      	adds	r1, #255	; 0xff
 8000608:	f7ff fe94 	bl	8000334 <assert_failed>
 800060c:	e001      	b.n	8000612 <HAL_GPIO_WritePin+0x2a>
 800060e:	2e00      	cmp	r6, #0
 8000610:	d001      	beq.n	8000616 <HAL_GPIO_WritePin+0x2e>
 8000612:	61ac      	str	r4, [r5, #24]
 8000614:	e000      	b.n	8000618 <HAL_GPIO_WritePin+0x30>
 8000616:	62ac      	str	r4, [r5, #40]	; 0x28
 8000618:	bd70      	pop	{r4, r5, r6, pc}
 800061a:	46c0      	nop			; (mov r8, r8)
 800061c:	080012c8 	stmdaeq	r0, {r3, r6, r7, r9, ip}

08000620 <HAL_GPIO_TogglePin>:
 8000620:	b538      	push	{r3, r4, r5, lr}
 8000622:	1c04      	adds	r4, r0, #0
 8000624:	1e0d      	subs	r5, r1, #0
 8000626:	d104      	bne.n	8000632 <HAL_GPIO_TogglePin+0x12>
 8000628:	21e1      	movs	r1, #225	; 0xe1
 800062a:	4804      	ldr	r0, [pc, #16]	; (800063c <HAL_GPIO_TogglePin+0x1c>)
 800062c:	0049      	lsls	r1, r1, #1
 800062e:	f7ff fe81 	bl	8000334 <assert_failed>
 8000632:	6961      	ldr	r1, [r4, #20]
 8000634:	4069      	eors	r1, r5
 8000636:	6161      	str	r1, [r4, #20]
 8000638:	bd38      	pop	{r3, r4, r5, pc}
 800063a:	46c0      	nop			; (mov r8, r8)
 800063c:	080012c8 	stmdaeq	r0, {r3, r6, r7, r9, ip}

08000640 <HAL_RCC_OscConfig>:
 8000640:	b5f0      	push	{r4, r5, r6, r7, lr}
 8000642:	1c04      	adds	r4, r0, #0
 8000644:	b085      	sub	sp, #20
 8000646:	2800      	cmp	r0, #0
 8000648:	d104      	bne.n	8000654 <HAL_RCC_OscConfig+0x14>
 800064a:	2189      	movs	r1, #137	; 0x89
 800064c:	48aa      	ldr	r0, [pc, #680]	; (80008f8 <HAL_RCC_OscConfig+0x2b8>)
 800064e:	0049      	lsls	r1, r1, #1
 8000650:	f7ff fe70 	bl	8000334 <assert_failed>
 8000654:	6823      	ldr	r3, [r4, #0]
 8000656:	2b00      	cmp	r3, #0
 8000658:	d006      	beq.n	8000668 <HAL_RCC_OscConfig+0x28>
 800065a:	069b      	lsls	r3, r3, #26
 800065c:	d104      	bne.n	8000668 <HAL_RCC_OscConfig+0x28>
 800065e:	2114      	movs	r1, #20
 8000660:	48a5      	ldr	r0, [pc, #660]	; (80008f8 <HAL_RCC_OscConfig+0x2b8>)
 8000662:	31ff      	adds	r1, #255	; 0xff
 8000664:	f7ff fe66 	bl	8000334 <assert_failed>
 8000668:	6823      	ldr	r3, [r4, #0]
 800066a:	07db      	lsls	r3, r3, #31
 800066c:	d403      	bmi.n	8000676 <HAL_RCC_OscConfig+0x36>
 800066e:	6823      	ldr	r3, [r4, #0]
 8000670:	079b      	lsls	r3, r3, #30
 8000672:	d45f      	bmi.n	8000734 <HAL_RCC_OscConfig+0xf4>
 8000674:	e0b8      	b.n	80007e8 <HAL_RCC_OscConfig+0x1a8>
 8000676:	6863      	ldr	r3, [r4, #4]
 8000678:	2b01      	cmp	r3, #1
 800067a:	d906      	bls.n	800068a <HAL_RCC_OscConfig+0x4a>
 800067c:	2b05      	cmp	r3, #5
 800067e:	d004      	beq.n	800068a <HAL_RCC_OscConfig+0x4a>
 8000680:	211a      	movs	r1, #26
 8000682:	489d      	ldr	r0, [pc, #628]	; (80008f8 <HAL_RCC_OscConfig+0x2b8>)
 8000684:	31ff      	adds	r1, #255	; 0xff
 8000686:	f7ff fe55 	bl	8000334 <assert_failed>
 800068a:	230c      	movs	r3, #12
 800068c:	4d9b      	ldr	r5, [pc, #620]	; (80008fc <HAL_RCC_OscConfig+0x2bc>)
 800068e:	686a      	ldr	r2, [r5, #4]
 8000690:	401a      	ands	r2, r3
 8000692:	2a04      	cmp	r2, #4
 8000694:	d00b      	beq.n	80006ae <HAL_RCC_OscConfig+0x6e>
 8000696:	686a      	ldr	r2, [r5, #4]
 8000698:	4013      	ands	r3, r2
 800069a:	2b08      	cmp	r3, #8
 800069c:	d10f      	bne.n	80006be <HAL_RCC_OscConfig+0x7e>
 800069e:	23c0      	movs	r3, #192	; 0xc0
 80006a0:	686a      	ldr	r2, [r5, #4]
 80006a2:	025b      	lsls	r3, r3, #9
 80006a4:	4013      	ands	r3, r2
 80006a6:	2280      	movs	r2, #128	; 0x80
 80006a8:	0252      	lsls	r2, r2, #9
 80006aa:	4293      	cmp	r3, r2
 80006ac:	d107      	bne.n	80006be <HAL_RCC_OscConfig+0x7e>
 80006ae:	682b      	ldr	r3, [r5, #0]
 80006b0:	039b      	lsls	r3, r3, #14
 80006b2:	d5dc      	bpl.n	800066e <HAL_RCC_OscConfig+0x2e>
 80006b4:	6863      	ldr	r3, [r4, #4]
 80006b6:	2b00      	cmp	r3, #0
 80006b8:	d1d9      	bne.n	800066e <HAL_RCC_OscConfig+0x2e>
 80006ba:	2001      	movs	r0, #1
 80006bc:	e264      	b.n	8000b88 <HAL_RCC_OscConfig+0x548>
 80006be:	6863      	ldr	r3, [r4, #4]
 80006c0:	2b01      	cmp	r3, #1
 80006c2:	d014      	beq.n	80006ee <HAL_RCC_OscConfig+0xae>
 80006c4:	2b00      	cmp	r3, #0
 80006c6:	d10b      	bne.n	80006e0 <HAL_RCC_OscConfig+0xa0>
 80006c8:	682a      	ldr	r2, [r5, #0]
 80006ca:	4b8d      	ldr	r3, [pc, #564]	; (8000900 <HAL_RCC_OscConfig+0x2c0>)
 80006cc:	4013      	ands	r3, r2
 80006ce:	602b      	str	r3, [r5, #0]
 80006d0:	682a      	ldr	r2, [r5, #0]
 80006d2:	4b8c      	ldr	r3, [pc, #560]	; (8000904 <HAL_RCC_OscConfig+0x2c4>)
 80006d4:	4013      	ands	r3, r2
 80006d6:	602b      	str	r3, [r5, #0]
 80006d8:	f7ff fe50 	bl	800037c <HAL_GetTick>
 80006dc:	1c06      	adds	r6, r0, #0
 80006de:	e025      	b.n	800072c <HAL_RCC_OscConfig+0xec>
 80006e0:	2b05      	cmp	r3, #5
 80006e2:	d109      	bne.n	80006f8 <HAL_RCC_OscConfig+0xb8>
 80006e4:	2280      	movs	r2, #128	; 0x80
 80006e6:	682b      	ldr	r3, [r5, #0]
 80006e8:	02d2      	lsls	r2, r2, #11
 80006ea:	4313      	orrs	r3, r2
 80006ec:	602b      	str	r3, [r5, #0]
 80006ee:	2280      	movs	r2, #128	; 0x80
 80006f0:	682b      	ldr	r3, [r5, #0]
 80006f2:	0252      	lsls	r2, r2, #9
 80006f4:	4313      	orrs	r3, r2
 80006f6:	e006      	b.n	8000706 <HAL_RCC_OscConfig+0xc6>
 80006f8:	682a      	ldr	r2, [r5, #0]
 80006fa:	4b81      	ldr	r3, [pc, #516]	; (8000900 <HAL_RCC_OscConfig+0x2c0>)
 80006fc:	4013      	ands	r3, r2
 80006fe:	602b      	str	r3, [r5, #0]
 8000700:	682a      	ldr	r2, [r5, #0]
 8000702:	4b80      	ldr	r3, [pc, #512]	; (8000904 <HAL_RCC_OscConfig+0x2c4>)
 8000704:	4013      	ands	r3, r2
 8000706:	602b      	str	r3, [r5, #0]
 8000708:	f7ff fe38 	bl	800037c <HAL_GetTick>
 800070c:	1c06      	adds	r6, r0, #0
 800070e:	682b      	ldr	r3, [r5, #0]
 8000710:	039b      	lsls	r3, r3, #14
 8000712:	d4ac      	bmi.n	800066e <HAL_RCC_OscConfig+0x2e>
 8000714:	f7ff fe32 	bl	800037c <HAL_GetTick>
 8000718:	1b80      	subs	r0, r0, r6
 800071a:	2864      	cmp	r0, #100	; 0x64
 800071c:	d9f7      	bls.n	800070e <HAL_RCC_OscConfig+0xce>
 800071e:	2003      	movs	r0, #3
 8000720:	e232      	b.n	8000b88 <HAL_RCC_OscConfig+0x548>
 8000722:	f7ff fe2b 	bl	800037c <HAL_GetTick>
 8000726:	1b80      	subs	r0, r0, r6
 8000728:	2864      	cmp	r0, #100	; 0x64
 800072a:	d8f8      	bhi.n	800071e <HAL_RCC_OscConfig+0xde>
 800072c:	682b      	ldr	r3, [r5, #0]
 800072e:	039b      	lsls	r3, r3, #14
 8000730:	d4f7      	bmi.n	8000722 <HAL_RCC_OscConfig+0xe2>
 8000732:	e79c      	b.n	800066e <HAL_RCC_OscConfig+0x2e>
 8000734:	68e3      	ldr	r3, [r4, #12]
 8000736:	2b01      	cmp	r3, #1
 8000738:	d904      	bls.n	8000744 <HAL_RCC_OscConfig+0x104>
 800073a:	214e      	movs	r1, #78	; 0x4e
 800073c:	486e      	ldr	r0, [pc, #440]	; (80008f8 <HAL_RCC_OscConfig+0x2b8>)
 800073e:	31ff      	adds	r1, #255	; 0xff
 8000740:	f7ff fdf8 	bl	8000334 <assert_failed>
 8000744:	6923      	ldr	r3, [r4, #16]
 8000746:	2b1f      	cmp	r3, #31
 8000748:	d904      	bls.n	8000754 <HAL_RCC_OscConfig+0x114>
 800074a:	21a7      	movs	r1, #167	; 0xa7
 800074c:	486a      	ldr	r0, [pc, #424]	; (80008f8 <HAL_RCC_OscConfig+0x2b8>)
 800074e:	0049      	lsls	r1, r1, #1
 8000750:	f7ff fdf0 	bl	8000334 <assert_failed>
 8000754:	230c      	movs	r3, #12
 8000756:	4d69      	ldr	r5, [pc, #420]	; (80008fc <HAL_RCC_OscConfig+0x2bc>)
 8000758:	686a      	ldr	r2, [r5, #4]
 800075a:	421a      	tst	r2, r3
 800075c:	d00b      	beq.n	8000776 <HAL_RCC_OscConfig+0x136>
 800075e:	686a      	ldr	r2, [r5, #4]
 8000760:	4013      	ands	r3, r2
 8000762:	2b08      	cmp	r3, #8
 8000764:	d115      	bne.n	8000792 <HAL_RCC_OscConfig+0x152>
 8000766:	23c0      	movs	r3, #192	; 0xc0
 8000768:	686a      	ldr	r2, [r5, #4]
 800076a:	025b      	lsls	r3, r3, #9
 800076c:	4013      	ands	r3, r2
 800076e:	2280      	movs	r2, #128	; 0x80
 8000770:	0212      	lsls	r2, r2, #8
 8000772:	4293      	cmp	r3, r2
 8000774:	d10d      	bne.n	8000792 <HAL_RCC_OscConfig+0x152>
 8000776:	682b      	ldr	r3, [r5, #0]
 8000778:	079b      	lsls	r3, r3, #30
 800077a:	d502      	bpl.n	8000782 <HAL_RCC_OscConfig+0x142>
 800077c:	68e3      	ldr	r3, [r4, #12]
 800077e:	2b01      	cmp	r3, #1
 8000780:	d19b      	bne.n	80006ba <HAL_RCC_OscConfig+0x7a>
 8000782:	21f8      	movs	r1, #248	; 0xf8
 8000784:	682b      	ldr	r3, [r5, #0]
 8000786:	6922      	ldr	r2, [r4, #16]
 8000788:	438b      	bics	r3, r1
 800078a:	00d2      	lsls	r2, r2, #3
 800078c:	4313      	orrs	r3, r2
 800078e:	602b      	str	r3, [r5, #0]
 8000790:	e02a      	b.n	80007e8 <HAL_RCC_OscConfig+0x1a8>
 8000792:	68e3      	ldr	r3, [r4, #12]
 8000794:	2201      	movs	r2, #1
 8000796:	2b00      	cmp	r3, #0
 8000798:	d017      	beq.n	80007ca <HAL_RCC_OscConfig+0x18a>
 800079a:	682b      	ldr	r3, [r5, #0]
 800079c:	4313      	orrs	r3, r2
 800079e:	602b      	str	r3, [r5, #0]
 80007a0:	f7ff fdec 	bl	800037c <HAL_GetTick>
 80007a4:	1c06      	adds	r6, r0, #0
 80007a6:	682b      	ldr	r3, [r5, #0]
 80007a8:	4954      	ldr	r1, [pc, #336]	; (80008fc <HAL_RCC_OscConfig+0x2bc>)
 80007aa:	079b      	lsls	r3, r3, #30
 80007ac:	d405      	bmi.n	80007ba <HAL_RCC_OscConfig+0x17a>
 80007ae:	f7ff fde5 	bl	800037c <HAL_GetTick>
 80007b2:	1b80      	subs	r0, r0, r6
 80007b4:	2802      	cmp	r0, #2
 80007b6:	d9f6      	bls.n	80007a6 <HAL_RCC_OscConfig+0x166>
 80007b8:	e7b1      	b.n	800071e <HAL_RCC_OscConfig+0xde>
 80007ba:	20f8      	movs	r0, #248	; 0xf8
 80007bc:	680b      	ldr	r3, [r1, #0]
 80007be:	6922      	ldr	r2, [r4, #16]
 80007c0:	4383      	bics	r3, r0
 80007c2:	00d2      	lsls	r2, r2, #3
 80007c4:	4313      	orrs	r3, r2
 80007c6:	600b      	str	r3, [r1, #0]
 80007c8:	e00e      	b.n	80007e8 <HAL_RCC_OscConfig+0x1a8>
 80007ca:	682b      	ldr	r3, [r5, #0]
 80007cc:	4393      	bics	r3, r2
 80007ce:	602b      	str	r3, [r5, #0]
 80007d0:	f7ff fdd4 	bl	800037c <HAL_GetTick>
 80007d4:	1c06      	adds	r6, r0, #0
 80007d6:	682b      	ldr	r3, [r5, #0]
 80007d8:	079b      	lsls	r3, r3, #30
 80007da:	d505      	bpl.n	80007e8 <HAL_RCC_OscConfig+0x1a8>
 80007dc:	f7ff fdce 	bl	800037c <HAL_GetTick>
 80007e0:	1b80      	subs	r0, r0, r6
 80007e2:	2802      	cmp	r0, #2
 80007e4:	d9f7      	bls.n	80007d6 <HAL_RCC_OscConfig+0x196>
 80007e6:	e79a      	b.n	800071e <HAL_RCC_OscConfig+0xde>
 80007e8:	6823      	ldr	r3, [r4, #0]
 80007ea:	071b      	lsls	r3, r3, #28
 80007ec:	d403      	bmi.n	80007f6 <HAL_RCC_OscConfig+0x1b6>
 80007ee:	6823      	ldr	r3, [r4, #0]
 80007f0:	075b      	lsls	r3, r3, #29
 80007f2:	d42b      	bmi.n	800084c <HAL_RCC_OscConfig+0x20c>
 80007f4:	e09a      	b.n	800092c <HAL_RCC_OscConfig+0x2ec>
 80007f6:	69e3      	ldr	r3, [r4, #28]
 80007f8:	2b01      	cmp	r3, #1
 80007fa:	d904      	bls.n	8000806 <HAL_RCC_OscConfig+0x1c6>
 80007fc:	21c7      	movs	r1, #199	; 0xc7
 80007fe:	483e      	ldr	r0, [pc, #248]	; (80008f8 <HAL_RCC_OscConfig+0x2b8>)
 8000800:	0049      	lsls	r1, r1, #1
 8000802:	f7ff fd97 	bl	8000334 <assert_failed>
 8000806:	69e3      	ldr	r3, [r4, #28]
 8000808:	2201      	movs	r2, #1
 800080a:	4d3c      	ldr	r5, [pc, #240]	; (80008fc <HAL_RCC_OscConfig+0x2bc>)
 800080c:	2b00      	cmp	r3, #0
 800080e:	d00e      	beq.n	800082e <HAL_RCC_OscConfig+0x1ee>
 8000810:	6a6b      	ldr	r3, [r5, #36]	; 0x24
 8000812:	4313      	orrs	r3, r2
 8000814:	626b      	str	r3, [r5, #36]	; 0x24
 8000816:	f7ff fdb1 	bl	800037c <HAL_GetTick>
 800081a:	1c06      	adds	r6, r0, #0
 800081c:	6a6b      	ldr	r3, [r5, #36]	; 0x24
 800081e:	079b      	lsls	r3, r3, #30
 8000820:	d4e5      	bmi.n	80007ee <HAL_RCC_OscConfig+0x1ae>
 8000822:	f7ff fdab 	bl	800037c <HAL_GetTick>
 8000826:	1b80      	subs	r0, r0, r6
 8000828:	2802      	cmp	r0, #2
 800082a:	d9f7      	bls.n	800081c <HAL_RCC_OscConfig+0x1dc>
 800082c:	e777      	b.n	800071e <HAL_RCC_OscConfig+0xde>
 800082e:	6a6b      	ldr	r3, [r5, #36]	; 0x24
 8000830:	4393      	bics	r3, r2
 8000832:	626b      	str	r3, [r5, #36]	; 0x24
 8000834:	f7ff fda2 	bl	800037c <HAL_GetTick>
 8000838:	1c06      	adds	r6, r0, #0
 800083a:	6a6b      	ldr	r3, [r5, #36]	; 0x24
 800083c:	079b      	lsls	r3, r3, #30
 800083e:	d5d6      	bpl.n	80007ee <HAL_RCC_OscConfig+0x1ae>
 8000840:	f7ff fd9c 	bl	800037c <HAL_GetTick>
 8000844:	1b80      	subs	r0, r0, r6
 8000846:	2802      	cmp	r0, #2
 8000848:	d9f7      	bls.n	800083a <HAL_RCC_OscConfig+0x1fa>
 800084a:	e768      	b.n	800071e <HAL_RCC_OscConfig+0xde>
 800084c:	68a3      	ldr	r3, [r4, #8]
 800084e:	2b01      	cmp	r3, #1
 8000850:	d906      	bls.n	8000860 <HAL_RCC_OscConfig+0x220>
 8000852:	2b05      	cmp	r3, #5
 8000854:	d004      	beq.n	8000860 <HAL_RCC_OscConfig+0x220>
 8000856:	21dd      	movs	r1, #221	; 0xdd
 8000858:	4827      	ldr	r0, [pc, #156]	; (80008f8 <HAL_RCC_OscConfig+0x2b8>)
 800085a:	0049      	lsls	r1, r1, #1
 800085c:	f7ff fd6a 	bl	8000334 <assert_failed>
 8000860:	2380      	movs	r3, #128	; 0x80
 8000862:	4d26      	ldr	r5, [pc, #152]	; (80008fc <HAL_RCC_OscConfig+0x2bc>)
 8000864:	055b      	lsls	r3, r3, #21
 8000866:	69ea      	ldr	r2, [r5, #28]
 8000868:	2700      	movs	r7, #0
 800086a:	421a      	tst	r2, r3
 800086c:	d107      	bne.n	800087e <HAL_RCC_OscConfig+0x23e>
 800086e:	69ea      	ldr	r2, [r5, #28]
 8000870:	3701      	adds	r7, #1
 8000872:	431a      	orrs	r2, r3
 8000874:	61ea      	str	r2, [r5, #28]
 8000876:	69ea      	ldr	r2, [r5, #28]
 8000878:	4013      	ands	r3, r2
 800087a:	9303      	str	r3, [sp, #12]
 800087c:	9b03      	ldr	r3, [sp, #12]
 800087e:	2280      	movs	r2, #128	; 0x80
 8000880:	4e21      	ldr	r6, [pc, #132]	; (8000908 <HAL_RCC_OscConfig+0x2c8>)
 8000882:	0052      	lsls	r2, r2, #1
 8000884:	6833      	ldr	r3, [r6, #0]
 8000886:	4213      	tst	r3, r2
 8000888:	d005      	beq.n	8000896 <HAL_RCC_OscConfig+0x256>
 800088a:	68a3      	ldr	r3, [r4, #8]
 800088c:	2b01      	cmp	r3, #1
 800088e:	d112      	bne.n	80008b6 <HAL_RCC_OscConfig+0x276>
 8000890:	6a2a      	ldr	r2, [r5, #32]
 8000892:	4313      	orrs	r3, r2
 8000894:	e02d      	b.n	80008f2 <HAL_RCC_OscConfig+0x2b2>
 8000896:	6833      	ldr	r3, [r6, #0]
 8000898:	4313      	orrs	r3, r2
 800089a:	6033      	str	r3, [r6, #0]
 800089c:	f7ff fd6e 	bl	800037c <HAL_GetTick>
 80008a0:	9001      	str	r0, [sp, #4]
 80008a2:	6833      	ldr	r3, [r6, #0]
 80008a4:	05db      	lsls	r3, r3, #23
 80008a6:	d4f0      	bmi.n	800088a <HAL_RCC_OscConfig+0x24a>
 80008a8:	f7ff fd68 	bl	800037c <HAL_GetTick>
 80008ac:	9b01      	ldr	r3, [sp, #4]
 80008ae:	1ac0      	subs	r0, r0, r3
 80008b0:	2864      	cmp	r0, #100	; 0x64
 80008b2:	d9f6      	bls.n	80008a2 <HAL_RCC_OscConfig+0x262>
 80008b4:	e733      	b.n	800071e <HAL_RCC_OscConfig+0xde>
 80008b6:	2201      	movs	r2, #1
 80008b8:	2b00      	cmp	r3, #0
 80008ba:	d10a      	bne.n	80008d2 <HAL_RCC_OscConfig+0x292>
 80008bc:	6a2b      	ldr	r3, [r5, #32]
 80008be:	4393      	bics	r3, r2
 80008c0:	622b      	str	r3, [r5, #32]
 80008c2:	6a2b      	ldr	r3, [r5, #32]
 80008c4:	3203      	adds	r2, #3
 80008c6:	4393      	bics	r3, r2
 80008c8:	622b      	str	r3, [r5, #32]
 80008ca:	f7ff fd57 	bl	800037c <HAL_GetTick>
 80008ce:	1c06      	adds	r6, r0, #0
 80008d0:	e023      	b.n	800091a <HAL_RCC_OscConfig+0x2da>
 80008d2:	2b05      	cmp	r3, #5
 80008d4:	d107      	bne.n	80008e6 <HAL_RCC_OscConfig+0x2a6>
 80008d6:	2104      	movs	r1, #4
 80008d8:	6a2b      	ldr	r3, [r5, #32]
 80008da:	430b      	orrs	r3, r1
 80008dc:	622b      	str	r3, [r5, #32]
 80008de:	6a2b      	ldr	r3, [r5, #32]
 80008e0:	431a      	orrs	r2, r3
 80008e2:	622a      	str	r2, [r5, #32]
 80008e4:	e142      	b.n	8000b6c <HAL_RCC_OscConfig+0x52c>
 80008e6:	6a2b      	ldr	r3, [r5, #32]
 80008e8:	4393      	bics	r3, r2
 80008ea:	2204      	movs	r2, #4
 80008ec:	622b      	str	r3, [r5, #32]
 80008ee:	6a2b      	ldr	r3, [r5, #32]
 80008f0:	4393      	bics	r3, r2
 80008f2:	622b      	str	r3, [r5, #32]
 80008f4:	e13a      	b.n	8000b6c <HAL_RCC_OscConfig+0x52c>
 80008f6:	46c0      	nop			; (mov r8, r8)
 80008f8:	080012e9 	stmdaeq	r0, {r0, r3, r5, r6, r7, r9, ip}
 80008fc:	40021000 	andmi	r1, r2, r0
 8000900:	fffeffff 			; <UNDEFINED> instruction: 0xfffeffff
 8000904:	fffbffff 			; <UNDEFINED> instruction: 0xfffbffff
 8000908:	40007000 	andmi	r7, r0, r0
 800090c:	f7ff fd36 	bl	800037c <HAL_GetTick>
 8000910:	4b9e      	ldr	r3, [pc, #632]	; (8000b8c <HAL_RCC_OscConfig+0x54c>)
 8000912:	1b80      	subs	r0, r0, r6
 8000914:	4298      	cmp	r0, r3
 8000916:	d900      	bls.n	800091a <HAL_RCC_OscConfig+0x2da>
 8000918:	e701      	b.n	800071e <HAL_RCC_OscConfig+0xde>
 800091a:	6a2b      	ldr	r3, [r5, #32]
 800091c:	079b      	lsls	r3, r3, #30
 800091e:	d4f5      	bmi.n	800090c <HAL_RCC_OscConfig+0x2cc>
 8000920:	2f01      	cmp	r7, #1
 8000922:	d103      	bne.n	800092c <HAL_RCC_OscConfig+0x2ec>
 8000924:	69ea      	ldr	r2, [r5, #28]
 8000926:	4b9a      	ldr	r3, [pc, #616]	; (8000b90 <HAL_RCC_OscConfig+0x550>)
 8000928:	4013      	ands	r3, r2
 800092a:	61eb      	str	r3, [r5, #28]
 800092c:	6823      	ldr	r3, [r4, #0]
 800092e:	06db      	lsls	r3, r3, #27
 8000930:	d550      	bpl.n	80009d4 <HAL_RCC_OscConfig+0x394>
 8000932:	6963      	ldr	r3, [r4, #20]
 8000934:	2b01      	cmp	r3, #1
 8000936:	d906      	bls.n	8000946 <HAL_RCC_OscConfig+0x306>
 8000938:	3305      	adds	r3, #5
 800093a:	d004      	beq.n	8000946 <HAL_RCC_OscConfig+0x306>
 800093c:	2180      	movs	r1, #128	; 0x80
 800093e:	4895      	ldr	r0, [pc, #596]	; (8000b94 <HAL_RCC_OscConfig+0x554>)
 8000940:	0089      	lsls	r1, r1, #2
 8000942:	f7ff fcf7 	bl	8000334 <assert_failed>
 8000946:	69a3      	ldr	r3, [r4, #24]
 8000948:	2b1f      	cmp	r3, #31
 800094a:	d903      	bls.n	8000954 <HAL_RCC_OscConfig+0x314>
 800094c:	4891      	ldr	r0, [pc, #580]	; (8000b94 <HAL_RCC_OscConfig+0x554>)
 800094e:	4992      	ldr	r1, [pc, #584]	; (8000b98 <HAL_RCC_OscConfig+0x558>)
 8000950:	f7ff fcf0 	bl	8000334 <assert_failed>
 8000954:	6962      	ldr	r2, [r4, #20]
 8000956:	4d91      	ldr	r5, [pc, #580]	; (8000b9c <HAL_RCC_OscConfig+0x55c>)
 8000958:	2304      	movs	r3, #4
 800095a:	2a01      	cmp	r2, #1
 800095c:	d11a      	bne.n	8000994 <HAL_RCC_OscConfig+0x354>
 800095e:	6b69      	ldr	r1, [r5, #52]	; 0x34
 8000960:	430b      	orrs	r3, r1
 8000962:	636b      	str	r3, [r5, #52]	; 0x34
 8000964:	6b6b      	ldr	r3, [r5, #52]	; 0x34
 8000966:	431a      	orrs	r2, r3
 8000968:	636a      	str	r2, [r5, #52]	; 0x34
 800096a:	f7ff fd07 	bl	800037c <HAL_GetTick>
 800096e:	1c06      	adds	r6, r0, #0
 8000970:	6b6b      	ldr	r3, [r5, #52]	; 0x34
 8000972:	498a      	ldr	r1, [pc, #552]	; (8000b9c <HAL_RCC_OscConfig+0x55c>)
 8000974:	079b      	lsls	r3, r3, #30
 8000976:	d405      	bmi.n	8000984 <HAL_RCC_OscConfig+0x344>
 8000978:	f7ff fd00 	bl	800037c <HAL_GetTick>
 800097c:	1b80      	subs	r0, r0, r6
 800097e:	2802      	cmp	r0, #2
 8000980:	d9f6      	bls.n	8000970 <HAL_RCC_OscConfig+0x330>
 8000982:	e6cc      	b.n	800071e <HAL_RCC_OscConfig+0xde>
 8000984:	20f8      	movs	r0, #248	; 0xf8
 8000986:	6b4b      	ldr	r3, [r1, #52]	; 0x34
 8000988:	69a2      	ldr	r2, [r4, #24]
 800098a:	4383      	bics	r3, r0
 800098c:	00d2      	lsls	r2, r2, #3
 800098e:	4313      	orrs	r3, r2
 8000990:	634b      	str	r3, [r1, #52]	; 0x34
 8000992:	e01f      	b.n	80009d4 <HAL_RCC_OscConfig+0x394>
 8000994:	3205      	adds	r2, #5
 8000996:	d10a      	bne.n	80009ae <HAL_RCC_OscConfig+0x36e>
 8000998:	21f8      	movs	r1, #248	; 0xf8
 800099a:	6b6a      	ldr	r2, [r5, #52]	; 0x34
 800099c:	439a      	bics	r2, r3
 800099e:	636a      	str	r2, [r5, #52]	; 0x34
 80009a0:	6b6b      	ldr	r3, [r5, #52]	; 0x34
 80009a2:	69a2      	ldr	r2, [r4, #24]
 80009a4:	438b      	bics	r3, r1
 80009a6:	00d2      	lsls	r2, r2, #3
 80009a8:	4313      	orrs	r3, r2
 80009aa:	636b      	str	r3, [r5, #52]	; 0x34
 80009ac:	e012      	b.n	80009d4 <HAL_RCC_OscConfig+0x394>
 80009ae:	6b6a      	ldr	r2, [r5, #52]	; 0x34
 80009b0:	4313      	orrs	r3, r2
 80009b2:	2201      	movs	r2, #1
 80009b4:	636b      	str	r3, [r5, #52]	; 0x34
 80009b6:	6b6b      	ldr	r3, [r5, #52]	; 0x34
 80009b8:	4393      	bics	r3, r2
 80009ba:	636b      	str	r3, [r5, #52]	; 0x34
 80009bc:	f7ff fcde 	bl	800037c <HAL_GetTick>
 80009c0:	1c06      	adds	r6, r0, #0
 80009c2:	6b6b      	ldr	r3, [r5, #52]	; 0x34
 80009c4:	079b      	lsls	r3, r3, #30
 80009c6:	d505      	bpl.n	80009d4 <HAL_RCC_OscConfig+0x394>
 80009c8:	f7ff fcd8 	bl	800037c <HAL_GetTick>
 80009cc:	1b80      	subs	r0, r0, r6
 80009ce:	2802      	cmp	r0, #2
 80009d0:	d9f7      	bls.n	80009c2 <HAL_RCC_OscConfig+0x382>
 80009d2:	e6a4      	b.n	800071e <HAL_RCC_OscConfig+0xde>
 80009d4:	6823      	ldr	r3, [r4, #0]
 80009d6:	069b      	lsls	r3, r3, #26
 80009d8:	d408      	bmi.n	80009ec <HAL_RCC_OscConfig+0x3ac>
 80009da:	6a63      	ldr	r3, [r4, #36]	; 0x24
 80009dc:	2b02      	cmp	r3, #2
 80009de:	d948      	bls.n	8000a72 <HAL_RCC_OscConfig+0x432>
 80009e0:	219d      	movs	r1, #157	; 0x9d
 80009e2:	486c      	ldr	r0, [pc, #432]	; (8000b94 <HAL_RCC_OscConfig+0x554>)
 80009e4:	0089      	lsls	r1, r1, #2
 80009e6:	f7ff fca5 	bl	8000334 <assert_failed>
 80009ea:	e042      	b.n	8000a72 <HAL_RCC_OscConfig+0x432>
 80009ec:	6a23      	ldr	r3, [r4, #32]
 80009ee:	2b01      	cmp	r3, #1
 80009f0:	d903      	bls.n	80009fa <HAL_RCC_OscConfig+0x3ba>
 80009f2:	4868      	ldr	r0, [pc, #416]	; (8000b94 <HAL_RCC_OscConfig+0x554>)
 80009f4:	496a      	ldr	r1, [pc, #424]	; (8000ba0 <HAL_RCC_OscConfig+0x560>)
 80009f6:	f7ff fc9d 	bl	8000334 <assert_failed>
 80009fa:	230c      	movs	r3, #12
 80009fc:	4d67      	ldr	r5, [pc, #412]	; (8000b9c <HAL_RCC_OscConfig+0x55c>)
 80009fe:	686a      	ldr	r2, [r5, #4]
 8000a00:	401a      	ands	r2, r3
 8000a02:	429a      	cmp	r2, r3
 8000a04:	d009      	beq.n	8000a1a <HAL_RCC_OscConfig+0x3da>
 8000a06:	686a      	ldr	r2, [r5, #4]
 8000a08:	4013      	ands	r3, r2
 8000a0a:	2b08      	cmp	r3, #8
 8000a0c:	d10d      	bne.n	8000a2a <HAL_RCC_OscConfig+0x3ea>
 8000a0e:	22c0      	movs	r2, #192	; 0xc0
 8000a10:	686b      	ldr	r3, [r5, #4]
 8000a12:	0252      	lsls	r2, r2, #9
 8000a14:	4013      	ands	r3, r2
 8000a16:	4293      	cmp	r3, r2
 8000a18:	d107      	bne.n	8000a2a <HAL_RCC_OscConfig+0x3ea>
 8000a1a:	6b6b      	ldr	r3, [r5, #52]	; 0x34
 8000a1c:	03db      	lsls	r3, r3, #15
 8000a1e:	d5dc      	bpl.n	80009da <HAL_RCC_OscConfig+0x39a>
 8000a20:	6a23      	ldr	r3, [r4, #32]
 8000a22:	2b01      	cmp	r3, #1
 8000a24:	d000      	beq.n	8000a28 <HAL_RCC_OscConfig+0x3e8>
 8000a26:	e648      	b.n	80006ba <HAL_RCC_OscConfig+0x7a>
 8000a28:	e7d7      	b.n	80009da <HAL_RCC_OscConfig+0x39a>
 8000a2a:	6a23      	ldr	r3, [r4, #32]
 8000a2c:	2b00      	cmp	r3, #0
 8000a2e:	d010      	beq.n	8000a52 <HAL_RCC_OscConfig+0x412>
 8000a30:	2280      	movs	r2, #128	; 0x80
 8000a32:	6b6b      	ldr	r3, [r5, #52]	; 0x34
 8000a34:	0252      	lsls	r2, r2, #9
 8000a36:	4313      	orrs	r3, r2
 8000a38:	636b      	str	r3, [r5, #52]	; 0x34
 8000a3a:	f7ff fc9f 	bl	800037c <HAL_GetTick>
 8000a3e:	1c06      	adds	r6, r0, #0
 8000a40:	6b6b      	ldr	r3, [r5, #52]	; 0x34
 8000a42:	03db      	lsls	r3, r3, #15
 8000a44:	d4c9      	bmi.n	80009da <HAL_RCC_OscConfig+0x39a>
 8000a46:	f7ff fc99 	bl	800037c <HAL_GetTick>
 8000a4a:	1b80      	subs	r0, r0, r6
 8000a4c:	2802      	cmp	r0, #2
 8000a4e:	d9f7      	bls.n	8000a40 <HAL_RCC_OscConfig+0x400>
 8000a50:	e665      	b.n	800071e <HAL_RCC_OscConfig+0xde>
 8000a52:	6b6a      	ldr	r2, [r5, #52]	; 0x34
 8000a54:	4b53      	ldr	r3, [pc, #332]	; (8000ba4 <HAL_RCC_OscConfig+0x564>)
 8000a56:	4013      	ands	r3, r2
 8000a58:	636b      	str	r3, [r5, #52]	; 0x34
 8000a5a:	f7ff fc8f 	bl	800037c <HAL_GetTick>
 8000a5e:	1c06      	adds	r6, r0, #0
 8000a60:	6b6b      	ldr	r3, [r5, #52]	; 0x34
 8000a62:	03db      	lsls	r3, r3, #15
 8000a64:	d5b9      	bpl.n	80009da <HAL_RCC_OscConfig+0x39a>
 8000a66:	f7ff fc89 	bl	800037c <HAL_GetTick>
 8000a6a:	1b80      	subs	r0, r0, r6
 8000a6c:	2802      	cmp	r0, #2
 8000a6e:	d9f7      	bls.n	8000a60 <HAL_RCC_OscConfig+0x420>
 8000a70:	e655      	b.n	800071e <HAL_RCC_OscConfig+0xde>
 8000a72:	6a62      	ldr	r2, [r4, #36]	; 0x24
 8000a74:	2a00      	cmp	r2, #0
 8000a76:	d101      	bne.n	8000a7c <HAL_RCC_OscConfig+0x43c>
 8000a78:	2000      	movs	r0, #0
 8000a7a:	e085      	b.n	8000b88 <HAL_RCC_OscConfig+0x548>
 8000a7c:	230c      	movs	r3, #12
 8000a7e:	4d47      	ldr	r5, [pc, #284]	; (8000b9c <HAL_RCC_OscConfig+0x55c>)
 8000a80:	6869      	ldr	r1, [r5, #4]
 8000a82:	400b      	ands	r3, r1
 8000a84:	2b08      	cmp	r3, #8
 8000a86:	d100      	bne.n	8000a8a <HAL_RCC_OscConfig+0x44a>
 8000a88:	e617      	b.n	80006ba <HAL_RCC_OscConfig+0x7a>
 8000a8a:	4e47      	ldr	r6, [pc, #284]	; (8000ba8 <HAL_RCC_OscConfig+0x568>)
 8000a8c:	2a02      	cmp	r2, #2
 8000a8e:	d15e      	bne.n	8000b4e <HAL_RCC_OscConfig+0x50e>
 8000a90:	2180      	movs	r1, #128	; 0x80
 8000a92:	6aa2      	ldr	r2, [r4, #40]	; 0x28
 8000a94:	4b43      	ldr	r3, [pc, #268]	; (8000ba4 <HAL_RCC_OscConfig+0x564>)
 8000a96:	0209      	lsls	r1, r1, #8
 8000a98:	4013      	ands	r3, r2
 8000a9a:	428b      	cmp	r3, r1
 8000a9c:	d007      	beq.n	8000aae <HAL_RCC_OscConfig+0x46e>
 8000a9e:	2380      	movs	r3, #128	; 0x80
 8000aa0:	025b      	lsls	r3, r3, #9
 8000aa2:	429a      	cmp	r2, r3
 8000aa4:	d003      	beq.n	8000aae <HAL_RCC_OscConfig+0x46e>
 8000aa6:	483b      	ldr	r0, [pc, #236]	; (8000b94 <HAL_RCC_OscConfig+0x554>)
 8000aa8:	4940      	ldr	r1, [pc, #256]	; (8000bac <HAL_RCC_OscConfig+0x56c>)
 8000aaa:	f7ff fc43 	bl	8000334 <assert_failed>
 8000aae:	6ae2      	ldr	r2, [r4, #44]	; 0x2c
 8000ab0:	493f      	ldr	r1, [pc, #252]	; (8000bb0 <HAL_RCC_OscConfig+0x570>)
 8000ab2:	4b40      	ldr	r3, [pc, #256]	; (8000bb4 <HAL_RCC_OscConfig+0x574>)
 8000ab4:	4011      	ands	r1, r2
 8000ab6:	4013      	ands	r3, r2
 8000ab8:	d013      	beq.n	8000ae2 <HAL_RCC_OscConfig+0x4a2>
 8000aba:	2080      	movs	r0, #128	; 0x80
 8000abc:	0340      	lsls	r0, r0, #13
 8000abe:	4283      	cmp	r3, r0
 8000ac0:	d00f      	beq.n	8000ae2 <HAL_RCC_OscConfig+0x4a2>
 8000ac2:	2080      	movs	r0, #128	; 0x80
 8000ac4:	0380      	lsls	r0, r0, #14
 8000ac6:	4283      	cmp	r3, r0
 8000ac8:	d00b      	beq.n	8000ae2 <HAL_RCC_OscConfig+0x4a2>
 8000aca:	23c0      	movs	r3, #192	; 0xc0
 8000acc:	039b      	lsls	r3, r3, #14
 8000ace:	4299      	cmp	r1, r3
 8000ad0:	d007      	beq.n	8000ae2 <HAL_RCC_OscConfig+0x4a2>
 8000ad2:	23e0      	movs	r3, #224	; 0xe0
 8000ad4:	039b      	lsls	r3, r3, #14
 8000ad6:	429a      	cmp	r2, r3
 8000ad8:	d003      	beq.n	8000ae2 <HAL_RCC_OscConfig+0x4a2>
 8000ada:	482e      	ldr	r0, [pc, #184]	; (8000b94 <HAL_RCC_OscConfig+0x554>)
 8000adc:	4936      	ldr	r1, [pc, #216]	; (8000bb8 <HAL_RCC_OscConfig+0x578>)
 8000ade:	f7ff fc29 	bl	8000334 <assert_failed>
 8000ae2:	6b23      	ldr	r3, [r4, #48]	; 0x30
 8000ae4:	2b0f      	cmp	r3, #15
 8000ae6:	d903      	bls.n	8000af0 <HAL_RCC_OscConfig+0x4b0>
 8000ae8:	482a      	ldr	r0, [pc, #168]	; (8000b94 <HAL_RCC_OscConfig+0x554>)
 8000aea:	4934      	ldr	r1, [pc, #208]	; (8000bbc <HAL_RCC_OscConfig+0x57c>)
 8000aec:	f7ff fc22 	bl	8000334 <assert_failed>
 8000af0:	682b      	ldr	r3, [r5, #0]
 8000af2:	401e      	ands	r6, r3
 8000af4:	602e      	str	r6, [r5, #0]
 8000af6:	f7ff fc41 	bl	800037c <HAL_GetTick>
 8000afa:	1c06      	adds	r6, r0, #0
 8000afc:	682a      	ldr	r2, [r5, #0]
 8000afe:	4b27      	ldr	r3, [pc, #156]	; (8000b9c <HAL_RCC_OscConfig+0x55c>)
 8000b00:	0192      	lsls	r2, r2, #6
 8000b02:	d505      	bpl.n	8000b10 <HAL_RCC_OscConfig+0x4d0>
 8000b04:	f7ff fc3a 	bl	800037c <HAL_GetTick>
 8000b08:	1b80      	subs	r0, r0, r6
 8000b0a:	2802      	cmp	r0, #2
 8000b0c:	d9f6      	bls.n	8000afc <HAL_RCC_OscConfig+0x4bc>
 8000b0e:	e606      	b.n	800071e <HAL_RCC_OscConfig+0xde>
 8000b10:	210f      	movs	r1, #15
 8000b12:	6ada      	ldr	r2, [r3, #44]	; 0x2c
 8000b14:	438a      	bics	r2, r1
 8000b16:	6b21      	ldr	r1, [r4, #48]	; 0x30
 8000b18:	430a      	orrs	r2, r1
 8000b1a:	62da      	str	r2, [r3, #44]	; 0x2c
 8000b1c:	6ae1      	ldr	r1, [r4, #44]	; 0x2c
 8000b1e:	6aa0      	ldr	r0, [r4, #40]	; 0x28
 8000b20:	685a      	ldr	r2, [r3, #4]
 8000b22:	4308      	orrs	r0, r1
 8000b24:	4926      	ldr	r1, [pc, #152]	; (8000bc0 <HAL_RCC_OscConfig+0x580>)
 8000b26:	400a      	ands	r2, r1
 8000b28:	2180      	movs	r1, #128	; 0x80
 8000b2a:	4302      	orrs	r2, r0
 8000b2c:	605a      	str	r2, [r3, #4]
 8000b2e:	681a      	ldr	r2, [r3, #0]
 8000b30:	0449      	lsls	r1, r1, #17
 8000b32:	430a      	orrs	r2, r1
 8000b34:	601a      	str	r2, [r3, #0]
 8000b36:	f7ff fc21 	bl	800037c <HAL_GetTick>
 8000b3a:	1c04      	adds	r4, r0, #0
 8000b3c:	682b      	ldr	r3, [r5, #0]
 8000b3e:	019b      	lsls	r3, r3, #6
 8000b40:	d49a      	bmi.n	8000a78 <HAL_RCC_OscConfig+0x438>
 8000b42:	f7ff fc1b 	bl	800037c <HAL_GetTick>
 8000b46:	1b00      	subs	r0, r0, r4
 8000b48:	2802      	cmp	r0, #2
 8000b4a:	d9f7      	bls.n	8000b3c <HAL_RCC_OscConfig+0x4fc>
 8000b4c:	e5e7      	b.n	800071e <HAL_RCC_OscConfig+0xde>
 8000b4e:	682b      	ldr	r3, [r5, #0]
 8000b50:	401e      	ands	r6, r3
 8000b52:	602e      	str	r6, [r5, #0]
 8000b54:	f7ff fc12 	bl	800037c <HAL_GetTick>
 8000b58:	1c04      	adds	r4, r0, #0
 8000b5a:	682b      	ldr	r3, [r5, #0]
 8000b5c:	019b      	lsls	r3, r3, #6
 8000b5e:	d58b      	bpl.n	8000a78 <HAL_RCC_OscConfig+0x438>
 8000b60:	f7ff fc0c 	bl	800037c <HAL_GetTick>
 8000b64:	1b00      	subs	r0, r0, r4
 8000b66:	2802      	cmp	r0, #2
 8000b68:	d9f7      	bls.n	8000b5a <HAL_RCC_OscConfig+0x51a>
 8000b6a:	e5d8      	b.n	800071e <HAL_RCC_OscConfig+0xde>
 8000b6c:	f7ff fc06 	bl	800037c <HAL_GetTick>
 8000b70:	1c06      	adds	r6, r0, #0
 8000b72:	6a2b      	ldr	r3, [r5, #32]
 8000b74:	079b      	lsls	r3, r3, #30
 8000b76:	d500      	bpl.n	8000b7a <HAL_RCC_OscConfig+0x53a>
 8000b78:	e6d2      	b.n	8000920 <HAL_RCC_OscConfig+0x2e0>
 8000b7a:	f7ff fbff 	bl	800037c <HAL_GetTick>
 8000b7e:	4b03      	ldr	r3, [pc, #12]	; (8000b8c <HAL_RCC_OscConfig+0x54c>)
 8000b80:	1b80      	subs	r0, r0, r6
 8000b82:	4298      	cmp	r0, r3
 8000b84:	d9f5      	bls.n	8000b72 <HAL_RCC_OscConfig+0x532>
 8000b86:	e5ca      	b.n	800071e <HAL_RCC_OscConfig+0xde>
 8000b88:	b005      	add	sp, #20
 8000b8a:	bdf0      	pop	{r4, r5, r6, r7, pc}
 8000b8c:	00001388 	andeq	r1, r0, r8, lsl #7
 8000b90:	efffffff 	svc	0x00ffffff
 8000b94:	080012e9 	stmdaeq	r0, {r0, r3, r5, r6, r7, r9, ip}
 8000b98:	00000201 	andeq	r0, r0, r1, lsl #4
 8000b9c:	40021000 	andmi	r1, r2, r0
 8000ba0:	0000023e 	andeq	r0, r0, lr, lsr r2
 8000ba4:	fffeffff 			; <UNDEFINED> instruction: 0xfffeffff
 8000ba8:	feffffff 	mrc2	15, 7, pc, cr15, cr15, {7}
 8000bac:	0000027d 	andeq	r0, r0, sp, ror r2
 8000bb0:	fffbffff 			; <UNDEFINED> instruction: 0xfffbffff
 8000bb4:	fff3ffff 			; <UNDEFINED> instruction: 0xfff3ffff
 8000bb8:	0000027e 	andeq	r0, r0, lr, ror r2
 8000bbc:	0000027f 	andeq	r0, r0, pc, ror r2
 8000bc0:	ffc27fff 			; <UNDEFINED> instruction: 0xffc27fff

08000bc4 <HAL_RCC_GetSysClockFreq>:
 8000bc4:	b530      	push	{r4, r5, lr}
 8000bc6:	4c19      	ldr	r4, [pc, #100]	; (8000c2c <HAL_RCC_GetSysClockFreq+0x68>)
 8000bc8:	b089      	sub	sp, #36	; 0x24
 8000bca:	1c21      	adds	r1, r4, #0
 8000bcc:	2210      	movs	r2, #16
 8000bce:	4668      	mov	r0, sp
 8000bd0:	f000 faaa 	bl	8001128 <memcpy>
 8000bd4:	1c21      	adds	r1, r4, #0
 8000bd6:	ad04      	add	r5, sp, #16
 8000bd8:	3110      	adds	r1, #16
 8000bda:	2210      	movs	r2, #16
 8000bdc:	1c28      	adds	r0, r5, #0
 8000bde:	f000 faa3 	bl	8001128 <memcpy>
 8000be2:	220c      	movs	r2, #12
 8000be4:	4912      	ldr	r1, [pc, #72]	; (8000c30 <HAL_RCC_GetSysClockFreq+0x6c>)
 8000be6:	684b      	ldr	r3, [r1, #4]
 8000be8:	401a      	ands	r2, r3
 8000bea:	2a08      	cmp	r2, #8
 8000bec:	d003      	beq.n	8000bf6 <HAL_RCC_GetSysClockFreq+0x32>
 8000bee:	2a0c      	cmp	r2, #12
 8000bf0:	d119      	bne.n	8000c26 <HAL_RCC_GetSysClockFreq+0x62>
 8000bf2:	4810      	ldr	r0, [pc, #64]	; (8000c34 <HAL_RCC_GetSysClockFreq+0x70>)
 8000bf4:	e018      	b.n	8000c28 <HAL_RCC_GetSysClockFreq+0x64>
 8000bf6:	4668      	mov	r0, sp
 8000bf8:	029a      	lsls	r2, r3, #10
 8000bfa:	0f12      	lsrs	r2, r2, #28
 8000bfc:	5c84      	ldrb	r4, [r0, r2]
 8000bfe:	220f      	movs	r2, #15
 8000c00:	6ac9      	ldr	r1, [r1, #44]	; 0x2c
 8000c02:	2080      	movs	r0, #128	; 0x80
 8000c04:	400a      	ands	r2, r1
 8000c06:	5ca9      	ldrb	r1, [r5, r2]
 8000c08:	22c0      	movs	r2, #192	; 0xc0
 8000c0a:	0252      	lsls	r2, r2, #9
 8000c0c:	4013      	ands	r3, r2
 8000c0e:	0240      	lsls	r0, r0, #9
 8000c10:	4283      	cmp	r3, r0
 8000c12:	d006      	beq.n	8000c22 <HAL_RCC_GetSysClockFreq+0x5e>
 8000c14:	4293      	cmp	r3, r2
 8000c16:	d104      	bne.n	8000c22 <HAL_RCC_GetSysClockFreq+0x5e>
 8000c18:	4806      	ldr	r0, [pc, #24]	; (8000c34 <HAL_RCC_GetSysClockFreq+0x70>)
 8000c1a:	f7ff faab 	bl	8000174 <__aeabi_uidiv>
 8000c1e:	4360      	muls	r0, r4
 8000c20:	e002      	b.n	8000c28 <HAL_RCC_GetSysClockFreq+0x64>
 8000c22:	4805      	ldr	r0, [pc, #20]	; (8000c38 <HAL_RCC_GetSysClockFreq+0x74>)
 8000c24:	e7f9      	b.n	8000c1a <HAL_RCC_GetSysClockFreq+0x56>
 8000c26:	4804      	ldr	r0, [pc, #16]	; (8000c38 <HAL_RCC_GetSysClockFreq+0x74>)
 8000c28:	b009      	add	sp, #36	; 0x24
 8000c2a:	bd30      	pop	{r4, r5, pc}
 8000c2c:	080012a8 	stmdaeq	r0, {r3, r5, r7, r9, ip}
 8000c30:	40021000 	andmi	r1, r2, r0
 8000c34:	02dc6c00 	sbcseq	r6, ip, #0, 24
 8000c38:	007a1200 	rsbseq	r1, sl, r0, lsl #4

08000c3c <HAL_RCC_ClockConfig>:
 8000c3c:	b5f7      	push	{r0, r1, r2, r4, r5, r6, r7, lr}
 8000c3e:	1c04      	adds	r4, r0, #0
 8000c40:	1c0f      	adds	r7, r1, #0
 8000c42:	2800      	cmp	r0, #0
 8000c44:	d103      	bne.n	8000c4e <HAL_RCC_ClockConfig+0x12>
 8000c46:	4872      	ldr	r0, [pc, #456]	; (8000e10 <HAL_RCC_ClockConfig+0x1d4>)
 8000c48:	4972      	ldr	r1, [pc, #456]	; (8000e14 <HAL_RCC_ClockConfig+0x1d8>)
 8000c4a:	f7ff fb73 	bl	8000334 <assert_failed>
 8000c4e:	6823      	ldr	r3, [r4, #0]
 8000c50:	075b      	lsls	r3, r3, #29
 8000c52:	d103      	bne.n	8000c5c <HAL_RCC_ClockConfig+0x20>
 8000c54:	486e      	ldr	r0, [pc, #440]	; (8000e10 <HAL_RCC_ClockConfig+0x1d4>)
 8000c56:	4970      	ldr	r1, [pc, #448]	; (8000e18 <HAL_RCC_ClockConfig+0x1dc>)
 8000c58:	f7ff fb6c 	bl	8000334 <assert_failed>
 8000c5c:	2f01      	cmp	r7, #1
 8000c5e:	d904      	bls.n	8000c6a <HAL_RCC_ClockConfig+0x2e>
 8000c60:	21b7      	movs	r1, #183	; 0xb7
 8000c62:	486b      	ldr	r0, [pc, #428]	; (8000e10 <HAL_RCC_ClockConfig+0x1d4>)
 8000c64:	0089      	lsls	r1, r1, #2
 8000c66:	f7ff fb65 	bl	8000334 <assert_failed>
 8000c6a:	2301      	movs	r3, #1
 8000c6c:	4e6b      	ldr	r6, [pc, #428]	; (8000e1c <HAL_RCC_ClockConfig+0x1e0>)
 8000c6e:	6832      	ldr	r2, [r6, #0]
 8000c70:	401a      	ands	r2, r3
 8000c72:	4297      	cmp	r7, r2
 8000c74:	d803      	bhi.n	8000c7e <HAL_RCC_ClockConfig+0x42>
 8000c76:	6823      	ldr	r3, [r4, #0]
 8000c78:	079b      	lsls	r3, r3, #30
 8000c7a:	d40a      	bmi.n	8000c92 <HAL_RCC_ClockConfig+0x56>
 8000c7c:	e02a      	b.n	8000cd4 <HAL_RCC_ClockConfig+0x98>
 8000c7e:	6832      	ldr	r2, [r6, #0]
 8000c80:	439a      	bics	r2, r3
 8000c82:	433a      	orrs	r2, r7
 8000c84:	6032      	str	r2, [r6, #0]
 8000c86:	6832      	ldr	r2, [r6, #0]
 8000c88:	4013      	ands	r3, r2
 8000c8a:	42bb      	cmp	r3, r7
 8000c8c:	d0f3      	beq.n	8000c76 <HAL_RCC_ClockConfig+0x3a>
 8000c8e:	2001      	movs	r0, #1
 8000c90:	e0bc      	b.n	8000e0c <HAL_RCC_ClockConfig+0x1d0>
 8000c92:	68a3      	ldr	r3, [r4, #8]
 8000c94:	2280      	movs	r2, #128	; 0x80
 8000c96:	1c19      	adds	r1, r3, #0
 8000c98:	4391      	bics	r1, r2
 8000c9a:	d014      	beq.n	8000cc6 <HAL_RCC_ClockConfig+0x8a>
 8000c9c:	2220      	movs	r2, #32
 8000c9e:	1c19      	adds	r1, r3, #0
 8000ca0:	4391      	bics	r1, r2
 8000ca2:	2990      	cmp	r1, #144	; 0x90
 8000ca4:	d00f      	beq.n	8000cc6 <HAL_RCC_ClockConfig+0x8a>
 8000ca6:	2240      	movs	r2, #64	; 0x40
 8000ca8:	1c19      	adds	r1, r3, #0
 8000caa:	4391      	bics	r1, r2
 8000cac:	29a0      	cmp	r1, #160	; 0xa0
 8000cae:	d00a      	beq.n	8000cc6 <HAL_RCC_ClockConfig+0x8a>
 8000cb0:	2210      	movs	r2, #16
 8000cb2:	1c19      	adds	r1, r3, #0
 8000cb4:	4391      	bics	r1, r2
 8000cb6:	29c0      	cmp	r1, #192	; 0xc0
 8000cb8:	d005      	beq.n	8000cc6 <HAL_RCC_ClockConfig+0x8a>
 8000cba:	2bf0      	cmp	r3, #240	; 0xf0
 8000cbc:	d003      	beq.n	8000cc6 <HAL_RCC_ClockConfig+0x8a>
 8000cbe:	4854      	ldr	r0, [pc, #336]	; (8000e10 <HAL_RCC_ClockConfig+0x1d4>)
 8000cc0:	4957      	ldr	r1, [pc, #348]	; (8000e20 <HAL_RCC_ClockConfig+0x1e4>)
 8000cc2:	f7ff fb37 	bl	8000334 <assert_failed>
 8000cc6:	21f0      	movs	r1, #240	; 0xf0
 8000cc8:	4a56      	ldr	r2, [pc, #344]	; (8000e24 <HAL_RCC_ClockConfig+0x1e8>)
 8000cca:	6853      	ldr	r3, [r2, #4]
 8000ccc:	438b      	bics	r3, r1
 8000cce:	68a1      	ldr	r1, [r4, #8]
 8000cd0:	430b      	orrs	r3, r1
 8000cd2:	6053      	str	r3, [r2, #4]
 8000cd4:	6823      	ldr	r3, [r4, #0]
 8000cd6:	07db      	lsls	r3, r3, #31
 8000cd8:	d406      	bmi.n	8000ce8 <HAL_RCC_ClockConfig+0xac>
 8000cda:	2301      	movs	r3, #1
 8000cdc:	6831      	ldr	r1, [r6, #0]
 8000cde:	4a4f      	ldr	r2, [pc, #316]	; (8000e1c <HAL_RCC_ClockConfig+0x1e0>)
 8000ce0:	4019      	ands	r1, r3
 8000ce2:	428f      	cmp	r7, r1
 8000ce4:	d361      	bcc.n	8000daa <HAL_RCC_ClockConfig+0x16e>
 8000ce6:	e067      	b.n	8000db8 <HAL_RCC_ClockConfig+0x17c>
 8000ce8:	6863      	ldr	r3, [r4, #4]
 8000cea:	2b03      	cmp	r3, #3
 8000cec:	d903      	bls.n	8000cf6 <HAL_RCC_ClockConfig+0xba>
 8000cee:	4848      	ldr	r0, [pc, #288]	; (8000e10 <HAL_RCC_ClockConfig+0x1d4>)
 8000cf0:	494d      	ldr	r1, [pc, #308]	; (8000e28 <HAL_RCC_ClockConfig+0x1ec>)
 8000cf2:	f7ff fb1f 	bl	8000334 <assert_failed>
 8000cf6:	6863      	ldr	r3, [r4, #4]
 8000cf8:	4d4a      	ldr	r5, [pc, #296]	; (8000e24 <HAL_RCC_ClockConfig+0x1e8>)
 8000cfa:	2b01      	cmp	r3, #1
 8000cfc:	d103      	bne.n	8000d06 <HAL_RCC_ClockConfig+0xca>
 8000cfe:	682a      	ldr	r2, [r5, #0]
 8000d00:	0392      	lsls	r2, r2, #14
 8000d02:	d40f      	bmi.n	8000d24 <HAL_RCC_ClockConfig+0xe8>
 8000d04:	e7c3      	b.n	8000c8e <HAL_RCC_ClockConfig+0x52>
 8000d06:	2b02      	cmp	r3, #2
 8000d08:	d103      	bne.n	8000d12 <HAL_RCC_ClockConfig+0xd6>
 8000d0a:	682a      	ldr	r2, [r5, #0]
 8000d0c:	0192      	lsls	r2, r2, #6
 8000d0e:	d409      	bmi.n	8000d24 <HAL_RCC_ClockConfig+0xe8>
 8000d10:	e7bd      	b.n	8000c8e <HAL_RCC_ClockConfig+0x52>
 8000d12:	2b03      	cmp	r3, #3
 8000d14:	d103      	bne.n	8000d1e <HAL_RCC_ClockConfig+0xe2>
 8000d16:	6b6a      	ldr	r2, [r5, #52]	; 0x34
 8000d18:	03d2      	lsls	r2, r2, #15
 8000d1a:	d403      	bmi.n	8000d24 <HAL_RCC_ClockConfig+0xe8>
 8000d1c:	e7b7      	b.n	8000c8e <HAL_RCC_ClockConfig+0x52>
 8000d1e:	682a      	ldr	r2, [r5, #0]
 8000d20:	0792      	lsls	r2, r2, #30
 8000d22:	d5b4      	bpl.n	8000c8e <HAL_RCC_ClockConfig+0x52>
 8000d24:	2103      	movs	r1, #3
 8000d26:	686a      	ldr	r2, [r5, #4]
 8000d28:	438a      	bics	r2, r1
 8000d2a:	4313      	orrs	r3, r2
 8000d2c:	606b      	str	r3, [r5, #4]
 8000d2e:	f7ff fb25 	bl	800037c <HAL_GetTick>
 8000d32:	6863      	ldr	r3, [r4, #4]
 8000d34:	9001      	str	r0, [sp, #4]
 8000d36:	2b01      	cmp	r3, #1
 8000d38:	d10d      	bne.n	8000d56 <HAL_RCC_ClockConfig+0x11a>
 8000d3a:	230c      	movs	r3, #12
 8000d3c:	686a      	ldr	r2, [r5, #4]
 8000d3e:	4013      	ands	r3, r2
 8000d40:	2b04      	cmp	r3, #4
 8000d42:	d0ca      	beq.n	8000cda <HAL_RCC_ClockConfig+0x9e>
 8000d44:	f7ff fb1a 	bl	800037c <HAL_GetTick>
 8000d48:	9b01      	ldr	r3, [sp, #4]
 8000d4a:	1ac0      	subs	r0, r0, r3
 8000d4c:	4b37      	ldr	r3, [pc, #220]	; (8000e2c <HAL_RCC_ClockConfig+0x1f0>)
 8000d4e:	4298      	cmp	r0, r3
 8000d50:	d9f3      	bls.n	8000d3a <HAL_RCC_ClockConfig+0xfe>
 8000d52:	2003      	movs	r0, #3
 8000d54:	e05a      	b.n	8000e0c <HAL_RCC_ClockConfig+0x1d0>
 8000d56:	2b02      	cmp	r3, #2
 8000d58:	d10c      	bne.n	8000d74 <HAL_RCC_ClockConfig+0x138>
 8000d5a:	230c      	movs	r3, #12
 8000d5c:	686a      	ldr	r2, [r5, #4]
 8000d5e:	4013      	ands	r3, r2
 8000d60:	2b08      	cmp	r3, #8
 8000d62:	d0ba      	beq.n	8000cda <HAL_RCC_ClockConfig+0x9e>
 8000d64:	f7ff fb0a 	bl	800037c <HAL_GetTick>
 8000d68:	9b01      	ldr	r3, [sp, #4]
 8000d6a:	1ac0      	subs	r0, r0, r3
 8000d6c:	4b2f      	ldr	r3, [pc, #188]	; (8000e2c <HAL_RCC_ClockConfig+0x1f0>)
 8000d6e:	4298      	cmp	r0, r3
 8000d70:	d9f3      	bls.n	8000d5a <HAL_RCC_ClockConfig+0x11e>
 8000d72:	e7ee      	b.n	8000d52 <HAL_RCC_ClockConfig+0x116>
 8000d74:	2b03      	cmp	r3, #3
 8000d76:	d113      	bne.n	8000da0 <HAL_RCC_ClockConfig+0x164>
 8000d78:	230c      	movs	r3, #12
 8000d7a:	686a      	ldr	r2, [r5, #4]
 8000d7c:	4013      	ands	r3, r2
 8000d7e:	2b0c      	cmp	r3, #12
 8000d80:	d0ab      	beq.n	8000cda <HAL_RCC_ClockConfig+0x9e>
 8000d82:	f7ff fafb 	bl	800037c <HAL_GetTick>
 8000d86:	9b01      	ldr	r3, [sp, #4]
 8000d88:	1ac0      	subs	r0, r0, r3
 8000d8a:	4b28      	ldr	r3, [pc, #160]	; (8000e2c <HAL_RCC_ClockConfig+0x1f0>)
 8000d8c:	4298      	cmp	r0, r3
 8000d8e:	d9f3      	bls.n	8000d78 <HAL_RCC_ClockConfig+0x13c>
 8000d90:	e7df      	b.n	8000d52 <HAL_RCC_ClockConfig+0x116>
 8000d92:	f7ff faf3 	bl	800037c <HAL_GetTick>
 8000d96:	9b01      	ldr	r3, [sp, #4]
 8000d98:	1ac0      	subs	r0, r0, r3
 8000d9a:	4b24      	ldr	r3, [pc, #144]	; (8000e2c <HAL_RCC_ClockConfig+0x1f0>)
 8000d9c:	4298      	cmp	r0, r3
 8000d9e:	d8d8      	bhi.n	8000d52 <HAL_RCC_ClockConfig+0x116>
 8000da0:	230c      	movs	r3, #12
 8000da2:	686a      	ldr	r2, [r5, #4]
 8000da4:	421a      	tst	r2, r3
 8000da6:	d1f4      	bne.n	8000d92 <HAL_RCC_ClockConfig+0x156>
 8000da8:	e797      	b.n	8000cda <HAL_RCC_ClockConfig+0x9e>
 8000daa:	6811      	ldr	r1, [r2, #0]
 8000dac:	4399      	bics	r1, r3
 8000dae:	6011      	str	r1, [r2, #0]
 8000db0:	6812      	ldr	r2, [r2, #0]
 8000db2:	421a      	tst	r2, r3
 8000db4:	d000      	beq.n	8000db8 <HAL_RCC_ClockConfig+0x17c>
 8000db6:	e76a      	b.n	8000c8e <HAL_RCC_ClockConfig+0x52>
 8000db8:	6823      	ldr	r3, [r4, #0]
 8000dba:	4d1a      	ldr	r5, [pc, #104]	; (8000e24 <HAL_RCC_ClockConfig+0x1e8>)
 8000dbc:	075b      	lsls	r3, r3, #29
 8000dbe:	d517      	bpl.n	8000df0 <HAL_RCC_ClockConfig+0x1b4>
 8000dc0:	68e3      	ldr	r3, [r4, #12]
 8000dc2:	4a1b      	ldr	r2, [pc, #108]	; (8000e30 <HAL_RCC_ClockConfig+0x1f4>)
 8000dc4:	4213      	tst	r3, r2
 8000dc6:	d00d      	beq.n	8000de4 <HAL_RCC_ClockConfig+0x1a8>
 8000dc8:	21a0      	movs	r1, #160	; 0xa0
 8000dca:	4a1a      	ldr	r2, [pc, #104]	; (8000e34 <HAL_RCC_ClockConfig+0x1f8>)
 8000dcc:	00c9      	lsls	r1, r1, #3
 8000dce:	401a      	ands	r2, r3
 8000dd0:	428a      	cmp	r2, r1
 8000dd2:	d007      	beq.n	8000de4 <HAL_RCC_ClockConfig+0x1a8>
 8000dd4:	22c0      	movs	r2, #192	; 0xc0
 8000dd6:	00d2      	lsls	r2, r2, #3
 8000dd8:	4293      	cmp	r3, r2
 8000dda:	d003      	beq.n	8000de4 <HAL_RCC_ClockConfig+0x1a8>
 8000ddc:	480c      	ldr	r0, [pc, #48]	; (8000e10 <HAL_RCC_ClockConfig+0x1d4>)
 8000dde:	4916      	ldr	r1, [pc, #88]	; (8000e38 <HAL_RCC_ClockConfig+0x1fc>)
 8000de0:	f7ff faa8 	bl	8000334 <assert_failed>
 8000de4:	686a      	ldr	r2, [r5, #4]
 8000de6:	4b15      	ldr	r3, [pc, #84]	; (8000e3c <HAL_RCC_ClockConfig+0x200>)
 8000de8:	4013      	ands	r3, r2
 8000dea:	68e2      	ldr	r2, [r4, #12]
 8000dec:	4313      	orrs	r3, r2
 8000dee:	606b      	str	r3, [r5, #4]
 8000df0:	f7ff fee8 	bl	8000bc4 <HAL_RCC_GetSysClockFreq>
 8000df4:	686b      	ldr	r3, [r5, #4]
 8000df6:	4a12      	ldr	r2, [pc, #72]	; (8000e40 <HAL_RCC_ClockConfig+0x204>)
 8000df8:	061b      	lsls	r3, r3, #24
 8000dfa:	0f1b      	lsrs	r3, r3, #28
 8000dfc:	5cd3      	ldrb	r3, [r2, r3]
 8000dfe:	40d8      	lsrs	r0, r3
 8000e00:	4b10      	ldr	r3, [pc, #64]	; (8000e44 <HAL_RCC_ClockConfig+0x208>)
 8000e02:	6018      	str	r0, [r3, #0]
 8000e04:	2003      	movs	r0, #3
 8000e06:	f7ff fa97 	bl	8000338 <HAL_InitTick>
 8000e0a:	2000      	movs	r0, #0
 8000e0c:	bdfe      	pop	{r1, r2, r3, r4, r5, r6, r7, pc}
 8000e0e:	46c0      	nop			; (mov r8, r8)
 8000e10:	080012e9 	stmdaeq	r0, {r0, r3, r5, r6, r7, r9, ip}
 8000e14:	000002da 	ldrdeq	r0, [r0], -sl
 8000e18:	000002db 	ldrdeq	r0, [r0], -fp
 8000e1c:	40022000 	andmi	r2, r2, r0
 8000e20:	000002f3 	strdeq	r0, [r0], -r3
 8000e24:	40021000 	andmi	r1, r2, r0
 8000e28:	000002fa 	strdeq	r0, [r0], -sl
 8000e2c:	00001388 	andeq	r1, r0, r8, lsl #7
 8000e30:	fffffbff 			; <UNDEFINED> instruction: 0xfffffbff
 8000e34:	fffffdff 			; <UNDEFINED> instruction: 0xfffffdff
 8000e38:	00000363 	andeq	r0, r0, r3, ror #6
 8000e3c:	fffff8ff 			; <UNDEFINED> instruction: 0xfffff8ff
 8000e40:	08001334 	stmdaeq	r0, {r2, r4, r5, r8, r9, ip}
 8000e44:	20000010 	andcs	r0, r0, r0, lsl r0

08000e48 <HAL_RCC_GetHCLKFreq>:
 8000e48:	4b01      	ldr	r3, [pc, #4]	; (8000e50 <HAL_RCC_GetHCLKFreq+0x8>)
 8000e4a:	6818      	ldr	r0, [r3, #0]
 8000e4c:	4770      	bx	lr
 8000e4e:	46c0      	nop			; (mov r8, r8)
 8000e50:	20000010 	andcs	r0, r0, r0, lsl r0

08000e54 <HAL_NVIC_SetPriority>:
 8000e54:	b570      	push	{r4, r5, r6, lr}
 8000e56:	1c04      	adds	r4, r0, #0
 8000e58:	1e0d      	subs	r5, r1, #0
 8000e5a:	2d03      	cmp	r5, #3
 8000e5c:	d903      	bls.n	8000e66 <HAL_NVIC_SetPriority+0x12>
 8000e5e:	4818      	ldr	r0, [pc, #96]	; (8000ec0 <HAL_NVIC_SetPriority+0x6c>)
 8000e60:	219b      	movs	r1, #155	; 0x9b
 8000e62:	f7ff fa67 	bl	8000334 <assert_failed>
 8000e66:	01a9      	lsls	r1, r5, #6
 8000e68:	2c00      	cmp	r4, #0
 8000e6a:	da15      	bge.n	8000e98 <HAL_NVIC_SetPriority+0x44>
 8000e6c:	230f      	movs	r3, #15
 8000e6e:	b2e4      	uxtb	r4, r4
 8000e70:	4023      	ands	r3, r4
 8000e72:	3b08      	subs	r3, #8
 8000e74:	4a13      	ldr	r2, [pc, #76]	; (8000ec4 <HAL_NVIC_SetPriority+0x70>)
 8000e76:	089b      	lsrs	r3, r3, #2
 8000e78:	2003      	movs	r0, #3
 8000e7a:	009b      	lsls	r3, r3, #2
 8000e7c:	189b      	adds	r3, r3, r2
 8000e7e:	22ff      	movs	r2, #255	; 0xff
 8000e80:	4004      	ands	r4, r0
 8000e82:	4084      	lsls	r4, r0
 8000e84:	1c10      	adds	r0, r2, #0
 8000e86:	40a0      	lsls	r0, r4
 8000e88:	69dd      	ldr	r5, [r3, #28]
 8000e8a:	4011      	ands	r1, r2
 8000e8c:	4385      	bics	r5, r0
 8000e8e:	40a1      	lsls	r1, r4
 8000e90:	1c2a      	adds	r2, r5, #0
 8000e92:	430a      	orrs	r2, r1
 8000e94:	61da      	str	r2, [r3, #28]
 8000e96:	e012      	b.n	8000ebe <HAL_NVIC_SetPriority+0x6a>
 8000e98:	08a0      	lsrs	r0, r4, #2
 8000e9a:	4b0b      	ldr	r3, [pc, #44]	; (8000ec8 <HAL_NVIC_SetPriority+0x74>)
 8000e9c:	2203      	movs	r2, #3
 8000e9e:	0080      	lsls	r0, r0, #2
 8000ea0:	18c0      	adds	r0, r0, r3
 8000ea2:	23ff      	movs	r3, #255	; 0xff
 8000ea4:	4014      	ands	r4, r2
 8000ea6:	4094      	lsls	r4, r2
 8000ea8:	1c1a      	adds	r2, r3, #0
 8000eaa:	25c0      	movs	r5, #192	; 0xc0
 8000eac:	40a2      	lsls	r2, r4
 8000eae:	00ad      	lsls	r5, r5, #2
 8000eb0:	5946      	ldr	r6, [r0, r5]
 8000eb2:	4019      	ands	r1, r3
 8000eb4:	4396      	bics	r6, r2
 8000eb6:	40a1      	lsls	r1, r4
 8000eb8:	1c33      	adds	r3, r6, #0
 8000eba:	430b      	orrs	r3, r1
 8000ebc:	5143      	str	r3, [r0, r5]
 8000ebe:	bd70      	pop	{r4, r5, r6, pc}
 8000ec0:	08001309 	stmdaeq	r0, {r0, r3, r8, r9, ip}
 8000ec4:	e000ed00 	and	lr, r0, r0, lsl #26
 8000ec8:	e000e100 	and	lr, r0, r0, lsl #2

08000ecc <HAL_NVIC_EnableIRQ>:
 8000ecc:	b510      	push	{r4, lr}
 8000ece:	1e04      	subs	r4, r0, #0
 8000ed0:	da03      	bge.n	8000eda <HAL_NVIC_EnableIRQ+0xe>
 8000ed2:	4806      	ldr	r0, [pc, #24]	; (8000eec <HAL_NVIC_EnableIRQ+0x20>)
 8000ed4:	21ab      	movs	r1, #171	; 0xab
 8000ed6:	f7ff fa2d 	bl	8000334 <assert_failed>
 8000eda:	201f      	movs	r0, #31
 8000edc:	2301      	movs	r3, #1
 8000ede:	4020      	ands	r0, r4
 8000ee0:	4083      	lsls	r3, r0
 8000ee2:	1c18      	adds	r0, r3, #0
 8000ee4:	4b02      	ldr	r3, [pc, #8]	; (8000ef0 <HAL_NVIC_EnableIRQ+0x24>)
 8000ee6:	6018      	str	r0, [r3, #0]
 8000ee8:	bd10      	pop	{r4, pc}
 8000eea:	46c0      	nop			; (mov r8, r8)
 8000eec:	08001309 	stmdaeq	r0, {r0, r3, r8, r9, ip}
 8000ef0:	e000e100 	and	lr, r0, r0, lsl #2

08000ef4 <HAL_SYSTICK_Config>:
 8000ef4:	4a09      	ldr	r2, [pc, #36]	; (8000f1c <HAL_SYSTICK_Config+0x28>)
 8000ef6:	1e43      	subs	r3, r0, #1
 8000ef8:	2001      	movs	r0, #1
 8000efa:	4293      	cmp	r3, r2
 8000efc:	d80d      	bhi.n	8000f1a <HAL_SYSTICK_Config+0x26>
 8000efe:	20c0      	movs	r0, #192	; 0xc0
 8000f00:	4a07      	ldr	r2, [pc, #28]	; (8000f20 <HAL_SYSTICK_Config+0x2c>)
 8000f02:	4908      	ldr	r1, [pc, #32]	; (8000f24 <HAL_SYSTICK_Config+0x30>)
 8000f04:	6053      	str	r3, [r2, #4]
 8000f06:	6a0b      	ldr	r3, [r1, #32]
 8000f08:	0600      	lsls	r0, r0, #24
 8000f0a:	021b      	lsls	r3, r3, #8
 8000f0c:	0a1b      	lsrs	r3, r3, #8
 8000f0e:	4303      	orrs	r3, r0
 8000f10:	620b      	str	r3, [r1, #32]
 8000f12:	2000      	movs	r0, #0
 8000f14:	2307      	movs	r3, #7
 8000f16:	6090      	str	r0, [r2, #8]
 8000f18:	6013      	str	r3, [r2, #0]
 8000f1a:	4770      	bx	lr
 8000f1c:	00ffffff 	ldrshteq	pc, [pc], #255	; <UNPREDICTABLE>
 8000f20:	e000e010 	and	lr, r0, r0, lsl r0
 8000f24:	e000ed00 	and	lr, r0, r0, lsl #26

08000f28 <BSP_LED_Init>:
 8000f28:	b570      	push	{r4, r5, r6, lr}
 8000f2a:	b08a      	sub	sp, #40	; 0x28
 8000f2c:	2800      	cmp	r0, #0
 8000f2e:	d10a      	bne.n	8000f46 <BSP_LED_Init+0x1e>
 8000f30:	2380      	movs	r3, #128	; 0x80
 8000f32:	4a23      	ldr	r2, [pc, #140]	; (8000fc0 <BSP_LED_Init+0x98>)
 8000f34:	031b      	lsls	r3, r3, #12
 8000f36:	6951      	ldr	r1, [r2, #20]
 8000f38:	4319      	orrs	r1, r3
 8000f3a:	6151      	str	r1, [r2, #20]
 8000f3c:	6952      	ldr	r2, [r2, #20]
 8000f3e:	4013      	ands	r3, r2
 8000f40:	9301      	str	r3, [sp, #4]
 8000f42:	9b01      	ldr	r3, [sp, #4]
 8000f44:	e025      	b.n	8000f92 <BSP_LED_Init+0x6a>
 8000f46:	2801      	cmp	r0, #1
 8000f48:	d10a      	bne.n	8000f60 <BSP_LED_Init+0x38>
 8000f4a:	2380      	movs	r3, #128	; 0x80
 8000f4c:	4a1c      	ldr	r2, [pc, #112]	; (8000fc0 <BSP_LED_Init+0x98>)
 8000f4e:	031b      	lsls	r3, r3, #12
 8000f50:	6951      	ldr	r1, [r2, #20]
 8000f52:	4319      	orrs	r1, r3
 8000f54:	6151      	str	r1, [r2, #20]
 8000f56:	6952      	ldr	r2, [r2, #20]
 8000f58:	4013      	ands	r3, r2
 8000f5a:	9302      	str	r3, [sp, #8]
 8000f5c:	9b02      	ldr	r3, [sp, #8]
 8000f5e:	e018      	b.n	8000f92 <BSP_LED_Init+0x6a>
 8000f60:	2802      	cmp	r0, #2
 8000f62:	d10a      	bne.n	8000f7a <BSP_LED_Init+0x52>
 8000f64:	2380      	movs	r3, #128	; 0x80
 8000f66:	4a16      	ldr	r2, [pc, #88]	; (8000fc0 <BSP_LED_Init+0x98>)
 8000f68:	031b      	lsls	r3, r3, #12
 8000f6a:	6951      	ldr	r1, [r2, #20]
 8000f6c:	4319      	orrs	r1, r3
 8000f6e:	6151      	str	r1, [r2, #20]
 8000f70:	6952      	ldr	r2, [r2, #20]
 8000f72:	4013      	ands	r3, r2
 8000f74:	9303      	str	r3, [sp, #12]
 8000f76:	9b03      	ldr	r3, [sp, #12]
 8000f78:	e00b      	b.n	8000f92 <BSP_LED_Init+0x6a>
 8000f7a:	2803      	cmp	r0, #3
 8000f7c:	d109      	bne.n	8000f92 <BSP_LED_Init+0x6a>
 8000f7e:	2380      	movs	r3, #128	; 0x80
 8000f80:	4a0f      	ldr	r2, [pc, #60]	; (8000fc0 <BSP_LED_Init+0x98>)
 8000f82:	031b      	lsls	r3, r3, #12
 8000f84:	6951      	ldr	r1, [r2, #20]
 8000f86:	4319      	orrs	r1, r3
 8000f88:	6151      	str	r1, [r2, #20]
 8000f8a:	6952      	ldr	r2, [r2, #20]
 8000f8c:	4013      	ands	r3, r2
 8000f8e:	9304      	str	r3, [sp, #16]
 8000f90:	9b04      	ldr	r3, [sp, #16]
 8000f92:	4b0c      	ldr	r3, [pc, #48]	; (8000fc4 <BSP_LED_Init+0x9c>)
 8000f94:	0042      	lsls	r2, r0, #1
 8000f96:	5ad5      	ldrh	r5, [r2, r3]
 8000f98:	2301      	movs	r3, #1
 8000f9a:	4e0b      	ldr	r6, [pc, #44]	; (8000fc8 <BSP_LED_Init+0xa0>)
 8000f9c:	0084      	lsls	r4, r0, #2
 8000f9e:	9306      	str	r3, [sp, #24]
 8000fa0:	9307      	str	r3, [sp, #28]
 8000fa2:	59a0      	ldr	r0, [r4, r6]
 8000fa4:	3302      	adds	r3, #2
 8000fa6:	a905      	add	r1, sp, #20
 8000fa8:	9308      	str	r3, [sp, #32]
 8000faa:	9505      	str	r5, [sp, #20]
 8000fac:	f7ff f9ec 	bl	8000388 <HAL_GPIO_Init>
 8000fb0:	59a0      	ldr	r0, [r4, r6]
 8000fb2:	1c29      	adds	r1, r5, #0
 8000fb4:	2200      	movs	r2, #0
 8000fb6:	f7ff fb17 	bl	80005e8 <HAL_GPIO_WritePin>
 8000fba:	b00a      	add	sp, #40	; 0x28
 8000fbc:	bd70      	pop	{r4, r5, r6, pc}
 8000fbe:	46c0      	nop			; (mov r8, r8)
 8000fc0:	40021000 	andmi	r1, r2, r0
 8000fc4:	0800132c 	stmdaeq	r0, {r2, r3, r5, r8, r9, ip}
 8000fc8:	20000000 	andcs	r0, r0, r0

08000fcc <BSP_LED_Toggle>:
 8000fcc:	b508      	push	{r3, lr}
 8000fce:	4b04      	ldr	r3, [pc, #16]	; (8000fe0 <BSP_LED_Toggle+0x14>)
 8000fd0:	0082      	lsls	r2, r0, #2
 8000fd2:	0040      	lsls	r0, r0, #1
 8000fd4:	5ac1      	ldrh	r1, [r0, r3]
 8000fd6:	4b03      	ldr	r3, [pc, #12]	; (8000fe4 <BSP_LED_Toggle+0x18>)
 8000fd8:	58d0      	ldr	r0, [r2, r3]
 8000fda:	f7ff fb21 	bl	8000620 <HAL_GPIO_TogglePin>
 8000fde:	bd08      	pop	{r3, pc}
 8000fe0:	0800132c 	stmdaeq	r0, {r2, r3, r5, r8, r9, ip}
 8000fe4:	20000000 	andcs	r0, r0, r0

08000fe8 <SystemInit>:
 8000fe8:	2101      	movs	r1, #1
 8000fea:	4b11      	ldr	r3, [pc, #68]	; (8001030 <SystemInit+0x48>)
 8000fec:	681a      	ldr	r2, [r3, #0]
 8000fee:	430a      	orrs	r2, r1
 8000ff0:	601a      	str	r2, [r3, #0]
 8000ff2:	6858      	ldr	r0, [r3, #4]
 8000ff4:	4a0f      	ldr	r2, [pc, #60]	; (8001034 <SystemInit+0x4c>)
 8000ff6:	4002      	ands	r2, r0
 8000ff8:	605a      	str	r2, [r3, #4]
 8000ffa:	6818      	ldr	r0, [r3, #0]
 8000ffc:	4a0e      	ldr	r2, [pc, #56]	; (8001038 <SystemInit+0x50>)
 8000ffe:	4002      	ands	r2, r0
 8001000:	601a      	str	r2, [r3, #0]
 8001002:	6818      	ldr	r0, [r3, #0]
 8001004:	4a0d      	ldr	r2, [pc, #52]	; (800103c <SystemInit+0x54>)
 8001006:	4002      	ands	r2, r0
 8001008:	601a      	str	r2, [r3, #0]
 800100a:	6858      	ldr	r0, [r3, #4]
 800100c:	4a0c      	ldr	r2, [pc, #48]	; (8001040 <SystemInit+0x58>)
 800100e:	4002      	ands	r2, r0
 8001010:	200f      	movs	r0, #15
 8001012:	605a      	str	r2, [r3, #4]
 8001014:	6ada      	ldr	r2, [r3, #44]	; 0x2c
 8001016:	4382      	bics	r2, r0
 8001018:	62da      	str	r2, [r3, #44]	; 0x2c
 800101a:	6b18      	ldr	r0, [r3, #48]	; 0x30
 800101c:	4a09      	ldr	r2, [pc, #36]	; (8001044 <SystemInit+0x5c>)
 800101e:	4002      	ands	r2, r0
 8001020:	631a      	str	r2, [r3, #48]	; 0x30
 8001022:	6b5a      	ldr	r2, [r3, #52]	; 0x34
 8001024:	438a      	bics	r2, r1
 8001026:	635a      	str	r2, [r3, #52]	; 0x34
 8001028:	2200      	movs	r2, #0
 800102a:	609a      	str	r2, [r3, #8]
 800102c:	4770      	bx	lr
 800102e:	46c0      	nop			; (mov r8, r8)
 8001030:	40021000 	andmi	r1, r2, r0
 8001034:	08ffb80c 	ldmeq	pc!, {r2, r3, fp, ip, sp, pc}^	; <UNPREDICTABLE>
 8001038:	fef6ffff 	mrc2	15, 7, pc, cr6, cr15, {7}
 800103c:	fffbffff 			; <UNDEFINED> instruction: 0xfffbffff
 8001040:	ffc0ffff 			; <UNDEFINED> instruction: 0xffc0ffff
 8001044:	fffcfe2c 			; <UNDEFINED> instruction: 0xfffcfe2c

08001048 <Reset_Handler>:
 8001048:	480d      	ldr	r0, [pc, #52]	; (8001080 <LoopForever+0x2>)
 800104a:	4685      	mov	sp, r0
 800104c:	480d      	ldr	r0, [pc, #52]	; (8001084 <LoopForever+0x6>)
 800104e:	490e      	ldr	r1, [pc, #56]	; (8001088 <LoopForever+0xa>)
 8001050:	4a0e      	ldr	r2, [pc, #56]	; (800108c <LoopForever+0xe>)
 8001052:	2300      	movs	r3, #0
 8001054:	e002      	b.n	800105c <LoopCopyDataInit>

08001056 <CopyDataInit>:
 8001056:	58d4      	ldr	r4, [r2, r3]
 8001058:	50c4      	str	r4, [r0, r3]
 800105a:	3304      	adds	r3, #4

0800105c <LoopCopyDataInit>:
 800105c:	18c4      	adds	r4, r0, r3
 800105e:	428c      	cmp	r4, r1
 8001060:	d3f9      	bcc.n	8001056 <CopyDataInit>
 8001062:	4a0b      	ldr	r2, [pc, #44]	; (8001090 <LoopForever+0x12>)
 8001064:	4c0b      	ldr	r4, [pc, #44]	; (8001094 <LoopForever+0x16>)
 8001066:	2300      	movs	r3, #0
 8001068:	e001      	b.n	800106e <LoopFillZerobss>

0800106a <FillZerobss>:
 800106a:	6013      	str	r3, [r2, #0]
 800106c:	3204      	adds	r2, #4

0800106e <LoopFillZerobss>:
 800106e:	42a2      	cmp	r2, r4
 8001070:	d3fb      	bcc.n	800106a <FillZerobss>
 8001072:	f7ff ffb9 	bl	8000fe8 <SystemInit>
 8001076:	f000 f833 	bl	80010e0 <__libc_init_array>
 800107a:	f7ff f90d 	bl	8000298 <main>

0800107e <LoopForever>:
 800107e:	e7fe      	b.n	800107e <LoopForever>
 8001080:	20004000 	andcs	r4, r0, r0
 8001084:	20000000 	andcs	r0, r0, r0
 8001088:	20000440 	andcs	r0, r0, r0, asr #8
 800108c:	08001358 	stmdaeq	r0, {r3, r4, r6, r8, r9, ip}
 8001090:	20000440 	andcs	r0, r0, r0, asr #8
 8001094:	20000460 	andcs	r0, r0, r0, ror #8

08001098 <ADC1_COMP_IRQHandler>:
 8001098:	e7fe      	b.n	8001098 <ADC1_COMP_IRQHandler>
	...

0800109c <atexit>:
 800109c:	b508      	push	{r3, lr}
 800109e:	1c01      	adds	r1, r0, #0
 80010a0:	2200      	movs	r2, #0
 80010a2:	2000      	movs	r0, #0
 80010a4:	2300      	movs	r3, #0
 80010a6:	f000 f87d 	bl	80011a4 <__register_exitproc>
 80010aa:	bd08      	pop	{r3, pc}

080010ac <__libc_fini_array>:
 80010ac:	b538      	push	{r3, r4, r5, lr}
 80010ae:	4b09      	ldr	r3, [pc, #36]	; (80010d4 <__libc_fini_array+0x28>)
 80010b0:	4c09      	ldr	r4, [pc, #36]	; (80010d8 <__libc_fini_array+0x2c>)
 80010b2:	1ae4      	subs	r4, r4, r3
 80010b4:	10a4      	asrs	r4, r4, #2
 80010b6:	d009      	beq.n	80010cc <__libc_fini_array+0x20>
 80010b8:	4a08      	ldr	r2, [pc, #32]	; (80010dc <__libc_fini_array+0x30>)
 80010ba:	18a5      	adds	r5, r4, r2
 80010bc:	00ad      	lsls	r5, r5, #2
 80010be:	18ed      	adds	r5, r5, r3
 80010c0:	682b      	ldr	r3, [r5, #0]
 80010c2:	3c01      	subs	r4, #1
 80010c4:	4798      	blx	r3
 80010c6:	3d04      	subs	r5, #4
 80010c8:	2c00      	cmp	r4, #0
 80010ca:	d1f9      	bne.n	80010c0 <__libc_fini_array+0x14>
 80010cc:	f000 f8e6 	bl	800129c <_fini>
 80010d0:	bd38      	pop	{r3, r4, r5, pc}
 80010d2:	46c0      	nop			; (mov r8, r8)
 80010d4:	08001354 	stmdaeq	r0, {r2, r4, r6, r8, r9, ip}
 80010d8:	08001358 	stmdaeq	r0, {r3, r4, r6, r8, r9, ip}
 80010dc:	3fffffff 	svccc	0x00ffffff

080010e0 <__libc_init_array>:
 80010e0:	b570      	push	{r4, r5, r6, lr}
 80010e2:	4e0d      	ldr	r6, [pc, #52]	; (8001118 <__libc_init_array+0x38>)
 80010e4:	4d0d      	ldr	r5, [pc, #52]	; (800111c <__libc_init_array+0x3c>)
 80010e6:	2400      	movs	r4, #0
 80010e8:	1bad      	subs	r5, r5, r6
 80010ea:	10ad      	asrs	r5, r5, #2
 80010ec:	d005      	beq.n	80010fa <__libc_init_array+0x1a>
 80010ee:	00a3      	lsls	r3, r4, #2
 80010f0:	58f3      	ldr	r3, [r6, r3]
 80010f2:	3401      	adds	r4, #1
 80010f4:	4798      	blx	r3
 80010f6:	42a5      	cmp	r5, r4
 80010f8:	d1f9      	bne.n	80010ee <__libc_init_array+0xe>
 80010fa:	f000 f8c9 	bl	8001290 <_init>
 80010fe:	4e08      	ldr	r6, [pc, #32]	; (8001120 <__libc_init_array+0x40>)
 8001100:	4d08      	ldr	r5, [pc, #32]	; (8001124 <__libc_init_array+0x44>)
 8001102:	2400      	movs	r4, #0
 8001104:	1bad      	subs	r5, r5, r6
 8001106:	10ad      	asrs	r5, r5, #2
 8001108:	d005      	beq.n	8001116 <__libc_init_array+0x36>
 800110a:	00a3      	lsls	r3, r4, #2
 800110c:	58f3      	ldr	r3, [r6, r3]
 800110e:	3401      	adds	r4, #1
 8001110:	4798      	blx	r3
 8001112:	42a5      	cmp	r5, r4
 8001114:	d1f9      	bne.n	800110a <__libc_init_array+0x2a>
 8001116:	bd70      	pop	{r4, r5, r6, pc}
 8001118:	0800134c 	stmdaeq	r0, {r2, r3, r6, r8, r9, ip}
 800111c:	0800134c 	stmdaeq	r0, {r2, r3, r6, r8, r9, ip}
 8001120:	0800134c 	stmdaeq	r0, {r2, r3, r6, r8, r9, ip}
 8001124:	08001354 	stmdaeq	r0, {r2, r4, r6, r8, r9, ip}

08001128 <memcpy>:
 8001128:	b570      	push	{r4, r5, r6, lr}
 800112a:	2a0f      	cmp	r2, #15
 800112c:	d932      	bls.n	8001194 <memcpy+0x6c>
 800112e:	1c04      	adds	r4, r0, #0
 8001130:	430c      	orrs	r4, r1
 8001132:	1c0b      	adds	r3, r1, #0
 8001134:	07a4      	lsls	r4, r4, #30
 8001136:	d131      	bne.n	800119c <memcpy+0x74>
 8001138:	1c15      	adds	r5, r2, #0
 800113a:	1c04      	adds	r4, r0, #0
 800113c:	3d10      	subs	r5, #16
 800113e:	092d      	lsrs	r5, r5, #4
 8001140:	3501      	adds	r5, #1
 8001142:	012d      	lsls	r5, r5, #4
 8001144:	1949      	adds	r1, r1, r5
 8001146:	681e      	ldr	r6, [r3, #0]
 8001148:	6026      	str	r6, [r4, #0]
 800114a:	685e      	ldr	r6, [r3, #4]
 800114c:	6066      	str	r6, [r4, #4]
 800114e:	689e      	ldr	r6, [r3, #8]
 8001150:	60a6      	str	r6, [r4, #8]
 8001152:	68de      	ldr	r6, [r3, #12]
 8001154:	3310      	adds	r3, #16
 8001156:	60e6      	str	r6, [r4, #12]
 8001158:	3410      	adds	r4, #16
 800115a:	4299      	cmp	r1, r3
 800115c:	d1f3      	bne.n	8001146 <memcpy+0x1e>
 800115e:	230f      	movs	r3, #15
 8001160:	1945      	adds	r5, r0, r5
 8001162:	4013      	ands	r3, r2
 8001164:	2b03      	cmp	r3, #3
 8001166:	d91b      	bls.n	80011a0 <memcpy+0x78>
 8001168:	1f1c      	subs	r4, r3, #4
 800116a:	2300      	movs	r3, #0
 800116c:	08a4      	lsrs	r4, r4, #2
 800116e:	3401      	adds	r4, #1
 8001170:	00a4      	lsls	r4, r4, #2
 8001172:	58ce      	ldr	r6, [r1, r3]
 8001174:	50ee      	str	r6, [r5, r3]
 8001176:	3304      	adds	r3, #4
 8001178:	42a3      	cmp	r3, r4
 800117a:	d1fa      	bne.n	8001172 <memcpy+0x4a>
 800117c:	18ed      	adds	r5, r5, r3
 800117e:	18c9      	adds	r1, r1, r3
 8001180:	2303      	movs	r3, #3
 8001182:	401a      	ands	r2, r3
 8001184:	d005      	beq.n	8001192 <memcpy+0x6a>
 8001186:	2300      	movs	r3, #0
 8001188:	5ccc      	ldrb	r4, [r1, r3]
 800118a:	54ec      	strb	r4, [r5, r3]
 800118c:	3301      	adds	r3, #1
 800118e:	4293      	cmp	r3, r2
 8001190:	d1fa      	bne.n	8001188 <memcpy+0x60>
 8001192:	bd70      	pop	{r4, r5, r6, pc}
 8001194:	1c05      	adds	r5, r0, #0
 8001196:	2a00      	cmp	r2, #0
 8001198:	d1f5      	bne.n	8001186 <memcpy+0x5e>
 800119a:	e7fa      	b.n	8001192 <memcpy+0x6a>
 800119c:	1c05      	adds	r5, r0, #0
 800119e:	e7f2      	b.n	8001186 <memcpy+0x5e>
 80011a0:	1c1a      	adds	r2, r3, #0
 80011a2:	e7f8      	b.n	8001196 <memcpy+0x6e>

080011a4 <__register_exitproc>:
 80011a4:	b5f8      	push	{r3, r4, r5, r6, r7, lr}
 80011a6:	4644      	mov	r4, r8
 80011a8:	465f      	mov	r7, fp
 80011aa:	4656      	mov	r6, sl
 80011ac:	464d      	mov	r5, r9
 80011ae:	469b      	mov	fp, r3
 80011b0:	4b2f      	ldr	r3, [pc, #188]	; (8001270 <__register_exitproc+0xcc>)
 80011b2:	b4f0      	push	{r4, r5, r6, r7}
 80011b4:	681c      	ldr	r4, [r3, #0]
 80011b6:	23a4      	movs	r3, #164	; 0xa4
 80011b8:	005b      	lsls	r3, r3, #1
 80011ba:	1c05      	adds	r5, r0, #0
 80011bc:	58e0      	ldr	r0, [r4, r3]
 80011be:	1c0e      	adds	r6, r1, #0
 80011c0:	4690      	mov	r8, r2
 80011c2:	2800      	cmp	r0, #0
 80011c4:	d04b      	beq.n	800125e <__register_exitproc+0xba>
 80011c6:	6843      	ldr	r3, [r0, #4]
 80011c8:	2b1f      	cmp	r3, #31
 80011ca:	dc0d      	bgt.n	80011e8 <__register_exitproc+0x44>
 80011cc:	1c5c      	adds	r4, r3, #1
 80011ce:	2d00      	cmp	r5, #0
 80011d0:	d121      	bne.n	8001216 <__register_exitproc+0x72>
 80011d2:	3302      	adds	r3, #2
 80011d4:	009b      	lsls	r3, r3, #2
 80011d6:	6044      	str	r4, [r0, #4]
 80011d8:	501e      	str	r6, [r3, r0]
 80011da:	2000      	movs	r0, #0
 80011dc:	bc3c      	pop	{r2, r3, r4, r5}
 80011de:	4690      	mov	r8, r2
 80011e0:	4699      	mov	r9, r3
 80011e2:	46a2      	mov	sl, r4
 80011e4:	46ab      	mov	fp, r5
 80011e6:	bdf8      	pop	{r3, r4, r5, r6, r7, pc}
 80011e8:	4b22      	ldr	r3, [pc, #136]	; (8001274 <__register_exitproc+0xd0>)
 80011ea:	2b00      	cmp	r3, #0
 80011ec:	d03c      	beq.n	8001268 <__register_exitproc+0xc4>
 80011ee:	20c8      	movs	r0, #200	; 0xc8
 80011f0:	0040      	lsls	r0, r0, #1
 80011f2:	e000      	b.n	80011f6 <__register_exitproc+0x52>
 80011f4:	bf00      	nop
 80011f6:	2800      	cmp	r0, #0
 80011f8:	d036      	beq.n	8001268 <__register_exitproc+0xc4>
 80011fa:	22a4      	movs	r2, #164	; 0xa4
 80011fc:	2300      	movs	r3, #0
 80011fe:	0052      	lsls	r2, r2, #1
 8001200:	58a1      	ldr	r1, [r4, r2]
 8001202:	6043      	str	r3, [r0, #4]
 8001204:	6001      	str	r1, [r0, #0]
 8001206:	50a0      	str	r0, [r4, r2]
 8001208:	3240      	adds	r2, #64	; 0x40
 800120a:	5083      	str	r3, [r0, r2]
 800120c:	3204      	adds	r2, #4
 800120e:	5083      	str	r3, [r0, r2]
 8001210:	2401      	movs	r4, #1
 8001212:	2d00      	cmp	r5, #0
 8001214:	d0dd      	beq.n	80011d2 <__register_exitproc+0x2e>
 8001216:	009a      	lsls	r2, r3, #2
 8001218:	4691      	mov	r9, r2
 800121a:	4481      	add	r9, r0
 800121c:	4642      	mov	r2, r8
 800121e:	2188      	movs	r1, #136	; 0x88
 8001220:	464f      	mov	r7, r9
 8001222:	507a      	str	r2, [r7, r1]
 8001224:	22c4      	movs	r2, #196	; 0xc4
 8001226:	0052      	lsls	r2, r2, #1
 8001228:	4690      	mov	r8, r2
 800122a:	4480      	add	r8, r0
 800122c:	4642      	mov	r2, r8
 800122e:	3987      	subs	r1, #135	; 0x87
 8001230:	4099      	lsls	r1, r3
 8001232:	6812      	ldr	r2, [r2, #0]
 8001234:	468a      	mov	sl, r1
 8001236:	430a      	orrs	r2, r1
 8001238:	4694      	mov	ip, r2
 800123a:	4642      	mov	r2, r8
 800123c:	4661      	mov	r1, ip
 800123e:	6011      	str	r1, [r2, #0]
 8001240:	2284      	movs	r2, #132	; 0x84
 8001242:	4649      	mov	r1, r9
 8001244:	465f      	mov	r7, fp
 8001246:	0052      	lsls	r2, r2, #1
 8001248:	508f      	str	r7, [r1, r2]
 800124a:	2d02      	cmp	r5, #2
 800124c:	d1c1      	bne.n	80011d2 <__register_exitproc+0x2e>
 800124e:	1c02      	adds	r2, r0, #0
 8001250:	4655      	mov	r5, sl
 8001252:	328d      	adds	r2, #141	; 0x8d
 8001254:	32ff      	adds	r2, #255	; 0xff
 8001256:	6811      	ldr	r1, [r2, #0]
 8001258:	430d      	orrs	r5, r1
 800125a:	6015      	str	r5, [r2, #0]
 800125c:	e7b9      	b.n	80011d2 <__register_exitproc+0x2e>
 800125e:	1c20      	adds	r0, r4, #0
 8001260:	304d      	adds	r0, #77	; 0x4d
 8001262:	30ff      	adds	r0, #255	; 0xff
 8001264:	50e0      	str	r0, [r4, r3]
 8001266:	e7ae      	b.n	80011c6 <__register_exitproc+0x22>
 8001268:	2001      	movs	r0, #1
 800126a:	4240      	negs	r0, r0
 800126c:	e7b6      	b.n	80011dc <__register_exitproc+0x38>
 800126e:	46c0      	nop			; (mov r8, r8)
 8001270:	08001348 	stmdaeq	r0, {r3, r6, r8, r9, ip}
 8001274:	00000000 	andeq	r0, r0, r0

08001278 <register_fini>:
 8001278:	b508      	push	{r3, lr}
 800127a:	4b03      	ldr	r3, [pc, #12]	; (8001288 <register_fini+0x10>)
 800127c:	2b00      	cmp	r3, #0
 800127e:	d002      	beq.n	8001286 <register_fini+0xe>
 8001280:	4802      	ldr	r0, [pc, #8]	; (800128c <register_fini+0x14>)
 8001282:	f7ff ff0b 	bl	800109c <atexit>
 8001286:	bd08      	pop	{r3, pc}
 8001288:	00000000 	andeq	r0, r0, r0
 800128c:	080010ad 	stmdaeq	r0, {r0, r2, r3, r5, r7, ip}

08001290 <_init>:
 8001290:	b5f8      	push	{r3, r4, r5, r6, r7, lr}
 8001292:	46c0      	nop			; (mov r8, r8)
 8001294:	bcf8      	pop	{r3, r4, r5, r6, r7}
 8001296:	bc08      	pop	{r3}
 8001298:	469e      	mov	lr, r3
 800129a:	4770      	bx	lr

0800129c <_fini>:
 800129c:	b5f8      	push	{r3, r4, r5, r6, r7, lr}
 800129e:	46c0      	nop			; (mov r8, r8)
 80012a0:	bcf8      	pop	{r3, r4, r5, r6, r7}
 80012a2:	bc08      	pop	{r3}
 80012a4:	469e      	mov	lr, r3
 80012a6:	4770      	bx	lr
