
./main.elf:     file format elf32-littlearm


Disassembly of section .isr_vector:

08000000 <g_pfnVectors>:
 8000000:	20004000 	andcs	r4, r0, r0
 8000004:	08001049 	stmdaeq	r0, {r0, r3, r6, ip}
 8000008:	08001099 	stmdaeq	r0, {r0, r3, r4, r7, ip}
 800000c:	08001099 	stmdaeq	r0, {r0, r3, r4, r7, ip}
	...
 800002c:	08001099 	stmdaeq	r0, {r0, r3, r4, r7, ip}
	...
 8000038:	08001099 	stmdaeq	r0, {r0, r3, r4, r7, ip}
 800003c:	08001099 	stmdaeq	r0, {r0, r3, r4, r7, ip}
 8000040:	08001099 	stmdaeq	r0, {r0, r3, r4, r7, ip}
 8000044:	08001099 	stmdaeq	r0, {r0, r3, r4, r7, ip}
 8000048:	08001099 	stmdaeq	r0, {r0, r3, r4, r7, ip}
 800004c:	08001099 	stmdaeq	r0, {r0, r3, r4, r7, ip}
 8000050:	08001099 	stmdaeq	r0, {r0, r3, r4, r7, ip}
 8000054:	08001099 	stmdaeq	r0, {r0, r3, r4, r7, ip}
 8000058:	08001099 	stmdaeq	r0, {r0, r3, r4, r7, ip}
 800005c:	08001099 	stmdaeq	r0, {r0, r3, r4, r7, ip}
 8000060:	08001099 	stmdaeq	r0, {r0, r3, r4, r7, ip}
 8000064:	08001099 	stmdaeq	r0, {r0, r3, r4, r7, ip}
 8000068:	08001099 	stmdaeq	r0, {r0, r3, r4, r7, ip}
 800006c:	08001099 	stmdaeq	r0, {r0, r3, r4, r7, ip}
 8000070:	08001099 	stmdaeq	r0, {r0, r3, r4, r7, ip}
 8000074:	08001099 	stmdaeq	r0, {r0, r3, r4, r7, ip}
 8000078:	08001099 	stmdaeq	r0, {r0, r3, r4, r7, ip}
 800007c:	08001099 	stmdaeq	r0, {r0, r3, r4, r7, ip}
 8000080:	08001099 	stmdaeq	r0, {r0, r3, r4, r7, ip}
 8000084:	08001099 	stmdaeq	r0, {r0, r3, r4, r7, ip}
 8000088:	08001099 	stmdaeq	r0, {r0, r3, r4, r7, ip}
 800008c:	08001099 	stmdaeq	r0, {r0, r3, r4, r7, ip}
 8000090:	08001099 	stmdaeq	r0, {r0, r3, r4, r7, ip}
 8000094:	08001099 	stmdaeq	r0, {r0, r3, r4, r7, ip}
 8000098:	08001099 	stmdaeq	r0, {r0, r3, r4, r7, ip}
 800009c:	08001099 	stmdaeq	r0, {r0, r3, r4, r7, ip}
 80000a0:	08001099 	stmdaeq	r0, {r0, r3, r4, r7, ip}
 80000a4:	08001099 	stmdaeq	r0, {r0, r3, r4, r7, ip}
 80000a8:	08001099 	stmdaeq	r0, {r0, r3, r4, r7, ip}
 80000ac:	08001099 	stmdaeq	r0, {r0, r3, r4, r7, ip}
 80000b0:	08001099 	stmdaeq	r0, {r0, r3, r4, r7, ip}
 80000b4:	08001099 	stmdaeq	r0, {r0, r3, r4, r7, ip}
 80000b8:	08001099 	stmdaeq	r0, {r0, r3, r4, r7, ip}
 80000bc:	08001099 	stmdaeq	r0, {r0, r3, r4, r7, ip}

Disassembly of section .text:

080000c0 <deregister_tm_clones>:
 80000c0:	b508      	push	{r3, lr}
 80000c2:	4b05      	ldr	r3, [pc, #20]	; (80000d8 <deregister_tm_clones+0x18>)
 80000c4:	4805      	ldr	r0, [pc, #20]	; (80000dc <deregister_tm_clones+0x1c>)
 80000c6:	3303      	adds	r3, #3
 80000c8:	1a1b      	subs	r3, r3, r0
 80000ca:	2b06      	cmp	r3, #6
 80000cc:	d903      	bls.n	80000d6 <deregister_tm_clones+0x16>
 80000ce:	4b04      	ldr	r3, [pc, #16]	; (80000e0 <deregister_tm_clones+0x20>)
 80000d0:	2b00      	cmp	r3, #0
 80000d2:	d000      	beq.n	80000d6 <deregister_tm_clones+0x16>
 80000d4:	4798      	blx	r3
 80000d6:	bd08      	pop	{r3, pc}
 80000d8:	20000440 	andcs	r0, r0, r0, asr #8
 80000dc:	20000440 	andcs	r0, r0, r0, asr #8
 80000e0:	00000000 	andeq	r0, r0, r0

080000e4 <register_tm_clones>:
 80000e4:	4806      	ldr	r0, [pc, #24]	; (8000100 <register_tm_clones+0x1c>)
 80000e6:	4907      	ldr	r1, [pc, #28]	; (8000104 <register_tm_clones+0x20>)
 80000e8:	b508      	push	{r3, lr}
 80000ea:	1a09      	subs	r1, r1, r0
 80000ec:	1089      	asrs	r1, r1, #2
 80000ee:	0fcb      	lsrs	r3, r1, #31
 80000f0:	1859      	adds	r1, r3, r1
 80000f2:	1049      	asrs	r1, r1, #1
 80000f4:	d003      	beq.n	80000fe <register_tm_clones+0x1a>
 80000f6:	4b04      	ldr	r3, [pc, #16]	; (8000108 <register_tm_clones+0x24>)
 80000f8:	2b00      	cmp	r3, #0
 80000fa:	d000      	beq.n	80000fe <register_tm_clones+0x1a>
 80000fc:	4798      	blx	r3
 80000fe:	bd08      	pop	{r3, pc}
 8000100:	20000440 	andcs	r0, r0, r0, asr #8
 8000104:	20000440 	andcs	r0, r0, r0, asr #8
 8000108:	00000000 	andeq	r0, r0, r0

0800010c <__do_global_dtors_aux>:
 800010c:	b510      	push	{r4, lr}
 800010e:	4c07      	ldr	r4, [pc, #28]	; (800012c <__do_global_dtors_aux+0x20>)
 8000110:	7823      	ldrb	r3, [r4, #0]
 8000112:	2b00      	cmp	r3, #0
 8000114:	d109      	bne.n	800012a <__do_global_dtors_aux+0x1e>
 8000116:	f7ff ffd3 	bl	80000c0 <deregister_tm_clones>
 800011a:	4b05      	ldr	r3, [pc, #20]	; (8000130 <__do_global_dtors_aux+0x24>)
 800011c:	2b00      	cmp	r3, #0
 800011e:	d002      	beq.n	8000126 <__do_global_dtors_aux+0x1a>
 8000120:	4804      	ldr	r0, [pc, #16]	; (8000134 <__do_global_dtors_aux+0x28>)
 8000122:	e000      	b.n	8000126 <__do_global_dtors_aux+0x1a>
 8000124:	bf00      	nop
 8000126:	2301      	movs	r3, #1
 8000128:	7023      	strb	r3, [r4, #0]
 800012a:	bd10      	pop	{r4, pc}
 800012c:	20000440 	andcs	r0, r0, r0, asr #8
 8000130:	00000000 	andeq	r0, r0, r0
 8000134:	08001290 	stmdaeq	r0, {r4, r7, r9, ip}

08000138 <frame_dummy>:
 8000138:	b508      	push	{r3, lr}
 800013a:	4b09      	ldr	r3, [pc, #36]	; (8000160 <frame_dummy+0x28>)
 800013c:	2b00      	cmp	r3, #0
 800013e:	d003      	beq.n	8000148 <frame_dummy+0x10>
 8000140:	4808      	ldr	r0, [pc, #32]	; (8000164 <frame_dummy+0x2c>)
 8000142:	4909      	ldr	r1, [pc, #36]	; (8000168 <frame_dummy+0x30>)
 8000144:	e000      	b.n	8000148 <frame_dummy+0x10>
 8000146:	bf00      	nop
 8000148:	4808      	ldr	r0, [pc, #32]	; (800016c <frame_dummy+0x34>)
 800014a:	6803      	ldr	r3, [r0, #0]
 800014c:	2b00      	cmp	r3, #0
 800014e:	d102      	bne.n	8000156 <frame_dummy+0x1e>
 8000150:	f7ff ffc8 	bl	80000e4 <register_tm_clones>
 8000154:	bd08      	pop	{r3, pc}
 8000156:	4b06      	ldr	r3, [pc, #24]	; (8000170 <frame_dummy+0x38>)
 8000158:	2b00      	cmp	r3, #0
 800015a:	d0f9      	beq.n	8000150 <frame_dummy+0x18>
 800015c:	4798      	blx	r3
 800015e:	e7f7      	b.n	8000150 <frame_dummy+0x18>
 8000160:	00000000 	andeq	r0, r0, r0
 8000164:	08001290 	stmdaeq	r0, {r4, r7, r9, ip}
 8000168:	20000444 	andcs	r0, r0, r4, asr #8
 800016c:	20000440 	andcs	r0, r0, r0, asr #8
 8000170:	00000000 	andeq	r0, r0, r0

08000174 <__aeabi_uidiv>:
 8000174:	2200      	movs	r2, #0
 8000176:	0843      	lsrs	r3, r0, #1
 8000178:	428b      	cmp	r3, r1
 800017a:	d374      	bcc.n	8000266 <__aeabi_uidiv+0xf2>
 800017c:	0903      	lsrs	r3, r0, #4
 800017e:	428b      	cmp	r3, r1
 8000180:	d35f      	bcc.n	8000242 <__aeabi_uidiv+0xce>
 8000182:	0a03      	lsrs	r3, r0, #8
 8000184:	428b      	cmp	r3, r1
 8000186:	d344      	bcc.n	8000212 <__aeabi_uidiv+0x9e>
 8000188:	0b03      	lsrs	r3, r0, #12
 800018a:	428b      	cmp	r3, r1
 800018c:	d328      	bcc.n	80001e0 <__aeabi_uidiv+0x6c>
 800018e:	0c03      	lsrs	r3, r0, #16
 8000190:	428b      	cmp	r3, r1
 8000192:	d30d      	bcc.n	80001b0 <__aeabi_uidiv+0x3c>
 8000194:	22ff      	movs	r2, #255	; 0xff
 8000196:	0209      	lsls	r1, r1, #8
 8000198:	ba12      	rev	r2, r2
 800019a:	0c03      	lsrs	r3, r0, #16
 800019c:	428b      	cmp	r3, r1
 800019e:	d302      	bcc.n	80001a6 <__aeabi_uidiv+0x32>
 80001a0:	1212      	asrs	r2, r2, #8
 80001a2:	0209      	lsls	r1, r1, #8
 80001a4:	d065      	beq.n	8000272 <__aeabi_uidiv+0xfe>
 80001a6:	0b03      	lsrs	r3, r0, #12
 80001a8:	428b      	cmp	r3, r1
 80001aa:	d319      	bcc.n	80001e0 <__aeabi_uidiv+0x6c>
 80001ac:	e000      	b.n	80001b0 <__aeabi_uidiv+0x3c>
 80001ae:	0a09      	lsrs	r1, r1, #8
 80001b0:	0bc3      	lsrs	r3, r0, #15
 80001b2:	428b      	cmp	r3, r1
 80001b4:	d301      	bcc.n	80001ba <__aeabi_uidiv+0x46>
 80001b6:	03cb      	lsls	r3, r1, #15
 80001b8:	1ac0      	subs	r0, r0, r3
 80001ba:	4152      	adcs	r2, r2
 80001bc:	0b83      	lsrs	r3, r0, #14
 80001be:	428b      	cmp	r3, r1
 80001c0:	d301      	bcc.n	80001c6 <__aeabi_uidiv+0x52>
 80001c2:	038b      	lsls	r3, r1, #14
 80001c4:	1ac0      	subs	r0, r0, r3
 80001c6:	4152      	adcs	r2, r2
 80001c8:	0b43      	lsrs	r3, r0, #13
 80001ca:	428b      	cmp	r3, r1
 80001cc:	d301      	bcc.n	80001d2 <__aeabi_uidiv+0x5e>
 80001ce:	034b      	lsls	r3, r1, #13
 80001d0:	1ac0      	subs	r0, r0, r3
 80001d2:	4152      	adcs	r2, r2
 80001d4:	0b03      	lsrs	r3, r0, #12
 80001d6:	428b      	cmp	r3, r1
 80001d8:	d301      	bcc.n	80001de <__aeabi_uidiv+0x6a>
 80001da:	030b      	lsls	r3, r1, #12
 80001dc:	1ac0      	subs	r0, r0, r3
 80001de:	4152      	adcs	r2, r2
 80001e0:	0ac3      	lsrs	r3, r0, #11
 80001e2:	428b      	cmp	r3, r1
 80001e4:	d301      	bcc.n	80001ea <__aeabi_uidiv+0x76>
 80001e6:	02cb      	lsls	r3, r1, #11
 80001e8:	1ac0      	subs	r0, r0, r3
 80001ea:	4152      	adcs	r2, r2
 80001ec:	0a83      	lsrs	r3, r0, #10
 80001ee:	428b      	cmp	r3, r1
 80001f0:	d301      	bcc.n	80001f6 <__aeabi_uidiv+0x82>
 80001f2:	028b      	lsls	r3, r1, #10
 80001f4:	1ac0      	subs	r0, r0, r3
 80001f6:	4152      	adcs	r2, r2
 80001f8:	0a43      	lsrs	r3, r0, #9
 80001fa:	428b      	cmp	r3, r1
 80001fc:	d301      	bcc.n	8000202 <__aeabi_uidiv+0x8e>
 80001fe:	024b      	lsls	r3, r1, #9
 8000200:	1ac0      	subs	r0, r0, r3
 8000202:	4152      	adcs	r2, r2
 8000204:	0a03      	lsrs	r3, r0, #8
 8000206:	428b      	cmp	r3, r1
 8000208:	d301      	bcc.n	800020e <__aeabi_uidiv+0x9a>
 800020a:	020b      	lsls	r3, r1, #8
 800020c:	1ac0      	subs	r0, r0, r3
 800020e:	4152      	adcs	r2, r2
 8000210:	d2cd      	bcs.n	80001ae <__aeabi_uidiv+0x3a>
 8000212:	09c3      	lsrs	r3, r0, #7
 8000214:	428b      	cmp	r3, r1
 8000216:	d301      	bcc.n	800021c <__aeabi_uidiv+0xa8>
 8000218:	01cb      	lsls	r3, r1, #7
 800021a:	1ac0      	subs	r0, r0, r3
 800021c:	4152      	adcs	r2, r2
 800021e:	0983      	lsrs	r3, r0, #6
 8000220:	428b      	cmp	r3, r1
 8000222:	d301      	bcc.n	8000228 <__aeabi_uidiv+0xb4>
 8000224:	018b      	lsls	r3, r1, #6
 8000226:	1ac0      	subs	r0, r0, r3
 8000228:	4152      	adcs	r2, r2
 800022a:	0943      	lsrs	r3, r0, #5
 800022c:	428b      	cmp	r3, r1
 800022e:	d301      	bcc.n	8000234 <__aeabi_uidiv+0xc0>
 8000230:	014b      	lsls	r3, r1, #5
 8000232:	1ac0      	subs	r0, r0, r3
 8000234:	4152      	adcs	r2, r2
 8000236:	0903      	lsrs	r3, r0, #4
 8000238:	428b      	cmp	r3, r1
 800023a:	d301      	bcc.n	8000240 <__aeabi_uidiv+0xcc>
 800023c:	010b      	lsls	r3, r1, #4
 800023e:	1ac0      	subs	r0, r0, r3
 8000240:	4152      	adcs	r2, r2
 8000242:	08c3      	lsrs	r3, r0, #3
 8000244:	428b      	cmp	r3, r1
 8000246:	d301      	bcc.n	800024c <__aeabi_uidiv+0xd8>
 8000248:	00cb      	lsls	r3, r1, #3
 800024a:	1ac0      	subs	r0, r0, r3
 800024c:	4152      	adcs	r2, r2
 800024e:	0883      	lsrs	r3, r0, #2
 8000250:	428b      	cmp	r3, r1
 8000252:	d301      	bcc.n	8000258 <__aeabi_uidiv+0xe4>
 8000254:	008b      	lsls	r3, r1, #2
 8000256:	1ac0      	subs	r0, r0, r3
 8000258:	4152      	adcs	r2, r2
 800025a:	0843      	lsrs	r3, r0, #1
 800025c:	428b      	cmp	r3, r1
 800025e:	d301      	bcc.n	8000264 <__aeabi_uidiv+0xf0>
 8000260:	004b      	lsls	r3, r1, #1
 8000262:	1ac0      	subs	r0, r0, r3
 8000264:	4152      	adcs	r2, r2
 8000266:	1a41      	subs	r1, r0, r1
 8000268:	d200      	bcs.n	800026c <__aeabi_uidiv+0xf8>
 800026a:	4601      	mov	r1, r0
 800026c:	4152      	adcs	r2, r2
 800026e:	4610      	mov	r0, r2
 8000270:	4770      	bx	lr
 8000272:	e7ff      	b.n	8000274 <__aeabi_uidiv+0x100>
 8000274:	b501      	push	{r0, lr}
 8000276:	2000      	movs	r0, #0
 8000278:	f000 f80c 	bl	8000294 <__aeabi_idiv0>
 800027c:	bd02      	pop	{r1, pc}
 800027e:	46c0      	nop			; (mov r8, r8)

08000280 <__aeabi_uidivmod>:
 8000280:	2900      	cmp	r1, #0
 8000282:	d0f7      	beq.n	8000274 <__aeabi_uidiv+0x100>
 8000284:	b503      	push	{r0, r1, lr}
 8000286:	f7ff ff75 	bl	8000174 <__aeabi_uidiv>
 800028a:	bc0e      	pop	{r1, r2, r3}
 800028c:	4342      	muls	r2, r0
 800028e:	1a89      	subs	r1, r1, r2
 8000290:	4718      	bx	r3
 8000292:	46c0      	nop			; (mov r8, r8)

08000294 <__aeabi_idiv0>:
 8000294:	4770      	bx	lr
 8000296:	46c0      	nop			; (mov r8, r8)

08000298 <main>:
 8000298:	b570      	push	{r4, r5, r6, lr}
 800029a:	b092      	sub	sp, #72	; 0x48
 800029c:	f000 f85e 	bl	800035c <HAL_Init>
 80002a0:	2000      	movs	r0, #0
 80002a2:	f000 fe41 	bl	8000f28 <BSP_LED_Init>
 80002a6:	2001      	movs	r0, #1
 80002a8:	f000 fe3e 	bl	8000f28 <BSP_LED_Init>
 80002ac:	2320      	movs	r3, #32
 80002ae:	9305      	str	r3, [sp, #20]
 80002b0:	23c0      	movs	r3, #192	; 0xc0
 80002b2:	025b      	lsls	r3, r3, #9
 80002b4:	2401      	movs	r4, #1
 80002b6:	2602      	movs	r6, #2
 80002b8:	930f      	str	r3, [sp, #60]	; 0x3c
 80002ba:	2300      	movs	r3, #0
 80002bc:	a805      	add	r0, sp, #20
 80002be:	940d      	str	r4, [sp, #52]	; 0x34
 80002c0:	960e      	str	r6, [sp, #56]	; 0x38
 80002c2:	9411      	str	r4, [sp, #68]	; 0x44
 80002c4:	9310      	str	r3, [sp, #64]	; 0x40
 80002c6:	f000 f9bb 	bl	8000640 <HAL_RCC_OscConfig>
 80002ca:	2800      	cmp	r0, #0
 80002cc:	d003      	beq.n	80002d6 <main+0x3e>
 80002ce:	1c20      	adds	r0, r4, #0
 80002d0:	f000 fe7c 	bl	8000fcc <BSP_LED_Toggle>
 80002d4:	e7fe      	b.n	80002d4 <main+0x3c>
 80002d6:	2307      	movs	r3, #7
 80002d8:	9003      	str	r0, [sp, #12]
 80002da:	9004      	str	r0, [sp, #16]
 80002dc:	1c21      	adds	r1, r4, #0
 80002de:	a801      	add	r0, sp, #4
 80002e0:	9301      	str	r3, [sp, #4]
 80002e2:	9602      	str	r6, [sp, #8]
 80002e4:	f000 fcaa 	bl	8000c3c <HAL_RCC_ClockConfig>
 80002e8:	1e05      	subs	r5, r0, #0
 80002ea:	d003      	beq.n	80002f4 <main+0x5c>
 80002ec:	1c20      	adds	r0, r4, #0
 80002ee:	f000 fe6d 	bl	8000fcc <BSP_LED_Toggle>
 80002f2:	e7fe      	b.n	80002f2 <main+0x5a>
 80002f4:	2380      	movs	r3, #128	; 0x80
 80002f6:	4a0d      	ldr	r2, [pc, #52]	; (800032c <main+0x94>)
 80002f8:	029b      	lsls	r3, r3, #10
 80002fa:	6951      	ldr	r1, [r2, #20]
 80002fc:	4319      	orrs	r1, r3
 80002fe:	6151      	str	r1, [r2, #20]
 8000300:	6952      	ldr	r2, [r2, #20]
 8000302:	9007      	str	r0, [sp, #28]
 8000304:	2090      	movs	r0, #144	; 0x90
 8000306:	4013      	ands	r3, r2
 8000308:	9301      	str	r3, [sp, #4]
 800030a:	9b01      	ldr	r3, [sp, #4]
 800030c:	4b08      	ldr	r3, [pc, #32]	; (8000330 <main+0x98>)
 800030e:	05c0      	lsls	r0, r0, #23
 8000310:	a905      	add	r1, sp, #20
 8000312:	9306      	str	r3, [sp, #24]
 8000314:	9405      	str	r4, [sp, #20]
 8000316:	f000 f837 	bl	8000388 <HAL_GPIO_Init>
 800031a:	2005      	movs	r0, #5
 800031c:	1c31      	adds	r1, r6, #0
 800031e:	1c2a      	adds	r2, r5, #0
 8000320:	f000 fd98 	bl	8000e54 <HAL_NVIC_SetPriority>
 8000324:	2005      	movs	r0, #5
 8000326:	f000 fdd1 	bl	8000ecc <HAL_NVIC_EnableIRQ>
 800032a:	e7fe      	b.n	800032a <main+0x92>
 800032c:	40021000 	andmi	r1, r2, r0
 8000330:	10110000 	andsne	r0, r1, r0

08000334 <assert_failed>:
 8000334:	e7fe      	b.n	8000334 <assert_failed>

08000336 <HAL_MspInit>:
 8000336:	4770      	bx	lr

08000338 <HAL_InitTick>:
 8000338:	b510      	push	{r4, lr}
 800033a:	1c04      	adds	r4, r0, #0
 800033c:	f000 fd84 	bl	8000e48 <HAL_RCC_GetHCLKFreq>
 8000340:	21fa      	movs	r1, #250	; 0xfa
 8000342:	0089      	lsls	r1, r1, #2
 8000344:	f7ff ff16 	bl	8000174 <__aeabi_uidiv>
 8000348:	f000 fdd4 	bl	8000ef4 <HAL_SYSTICK_Config>
 800034c:	2001      	movs	r0, #1
 800034e:	1c21      	adds	r1, r4, #0
 8000350:	4240      	negs	r0, r0
 8000352:	2200      	movs	r2, #0
 8000354:	f000 fd7e 	bl	8000e54 <HAL_NVIC_SetPriority>
 8000358:	2000      	movs	r0, #0
 800035a:	bd10      	pop	{r4, pc}

0800035c <HAL_Init>:
 800035c:	2110      	movs	r1, #16
 800035e:	4a06      	ldr	r2, [pc, #24]	; (8000378 <HAL_Init+0x1c>)
 8000360:	b508      	push	{r3, lr}
 8000362:	6813      	ldr	r3, [r2, #0]
 8000364:	2003      	movs	r0, #3
 8000366:	430b      	orrs	r3, r1
 8000368:	6013      	str	r3, [r2, #0]
 800036a:	f7ff ffe5 	bl	8000338 <HAL_InitTick>
 800036e:	f7ff ffe2 	bl	8000336 <HAL_MspInit>
 8000372:	2000      	movs	r0, #0
 8000374:	bd08      	pop	{r3, pc}
 8000376:	46c0      	nop			; (mov r8, r8)
 8000378:	40022000 	andmi	r2, r2, r0

0800037c <HAL_GetTick>:
 800037c:	4b01      	ldr	r3, [pc, #4]	; (8000384 <HAL_GetTick+0x8>)
 800037e:	6818      	ldr	r0, [r3, #0]
 8000380:	4770      	bx	lr
 8000382:	46c0      	nop			; (mov r8, r8)
 8000384:	2000045c 	andcs	r0, r0, ip, asr r4

08000388 <HAL_GPIO_Init>:
 8000388:	2390      	movs	r3, #144	; 0x90
 800038a:	b5f0      	push	{r4, r5, r6, r7, lr}
 800038c:	05db      	lsls	r3, r3, #23
 800038e:	b087      	sub	sp, #28
 8000390:	1c04      	adds	r4, r0, #0
 8000392:	1c0d      	adds	r5, r1, #0
 8000394:	4298      	cmp	r0, r3
 8000396:	d012      	beq.n	80003be <HAL_GPIO_Init+0x36>
 8000398:	4b85      	ldr	r3, [pc, #532]	; (80005b0 <HAL_GPIO_Init+0x228>)
 800039a:	4298      	cmp	r0, r3
 800039c:	d00f      	beq.n	80003be <HAL_GPIO_Init+0x36>
 800039e:	4b85      	ldr	r3, [pc, #532]	; (80005b4 <HAL_GPIO_Init+0x22c>)
 80003a0:	4298      	cmp	r0, r3
 80003a2:	d00c      	beq.n	80003be <HAL_GPIO_Init+0x36>
 80003a4:	4b84      	ldr	r3, [pc, #528]	; (80005b8 <HAL_GPIO_Init+0x230>)
 80003a6:	4298      	cmp	r0, r3
 80003a8:	d009      	beq.n	80003be <HAL_GPIO_Init+0x36>
 80003aa:	4b84      	ldr	r3, [pc, #528]	; (80005bc <HAL_GPIO_Init+0x234>)
 80003ac:	4298      	cmp	r0, r3
 80003ae:	d006      	beq.n	80003be <HAL_GPIO_Init+0x36>
 80003b0:	4b83      	ldr	r3, [pc, #524]	; (80005c0 <HAL_GPIO_Init+0x238>)
 80003b2:	4298      	cmp	r0, r3
 80003b4:	d003      	beq.n	80003be <HAL_GPIO_Init+0x36>
 80003b6:	4883      	ldr	r0, [pc, #524]	; (80005c4 <HAL_GPIO_Init+0x23c>)
 80003b8:	21c1      	movs	r1, #193	; 0xc1
 80003ba:	f7ff ffbb 	bl	8000334 <assert_failed>
 80003be:	682b      	ldr	r3, [r5, #0]
 80003c0:	b29a      	uxth	r2, r3
 80003c2:	2a00      	cmp	r2, #0
 80003c4:	d001      	beq.n	80003ca <HAL_GPIO_Init+0x42>
 80003c6:	0c1b      	lsrs	r3, r3, #16
 80003c8:	d003      	beq.n	80003d2 <HAL_GPIO_Init+0x4a>
 80003ca:	487e      	ldr	r0, [pc, #504]	; (80005c4 <HAL_GPIO_Init+0x23c>)
 80003cc:	21c2      	movs	r1, #194	; 0xc2
 80003ce:	f7ff ffb1 	bl	8000334 <assert_failed>
 80003d2:	686b      	ldr	r3, [r5, #4]
 80003d4:	2b03      	cmp	r3, #3
 80003d6:	d912      	bls.n	80003fe <HAL_GPIO_Init+0x76>
 80003d8:	1c1a      	adds	r2, r3, #0
 80003da:	3a11      	subs	r2, #17
 80003dc:	2a01      	cmp	r2, #1
 80003de:	d90e      	bls.n	80003fe <HAL_GPIO_Init+0x76>
 80003e0:	4a79      	ldr	r2, [pc, #484]	; (80005c8 <HAL_GPIO_Init+0x240>)
 80003e2:	497a      	ldr	r1, [pc, #488]	; (80005cc <HAL_GPIO_Init+0x244>)
 80003e4:	401a      	ands	r2, r3
 80003e6:	1852      	adds	r2, r2, r1
 80003e8:	4979      	ldr	r1, [pc, #484]	; (80005d0 <HAL_GPIO_Init+0x248>)
 80003ea:	420a      	tst	r2, r1
 80003ec:	d007      	beq.n	80003fe <HAL_GPIO_Init+0x76>
 80003ee:	4a79      	ldr	r2, [pc, #484]	; (80005d4 <HAL_GPIO_Init+0x24c>)
 80003f0:	189b      	adds	r3, r3, r2
 80003f2:	420b      	tst	r3, r1
 80003f4:	d003      	beq.n	80003fe <HAL_GPIO_Init+0x76>
 80003f6:	4873      	ldr	r0, [pc, #460]	; (80005c4 <HAL_GPIO_Init+0x23c>)
 80003f8:	21c3      	movs	r1, #195	; 0xc3
 80003fa:	f7ff ff9b 	bl	8000334 <assert_failed>
 80003fe:	68ab      	ldr	r3, [r5, #8]
 8000400:	2b02      	cmp	r3, #2
 8000402:	d903      	bls.n	800040c <HAL_GPIO_Init+0x84>
 8000404:	486f      	ldr	r0, [pc, #444]	; (80005c4 <HAL_GPIO_Init+0x23c>)
 8000406:	21c4      	movs	r1, #196	; 0xc4
 8000408:	f7ff ff94 	bl	8000334 <assert_failed>
 800040c:	2300      	movs	r3, #0
 800040e:	9301      	str	r3, [sp, #4]
 8000410:	682b      	ldr	r3, [r5, #0]
 8000412:	9901      	ldr	r1, [sp, #4]
 8000414:	1c1a      	adds	r2, r3, #0
 8000416:	40ca      	lsrs	r2, r1
 8000418:	d100      	bne.n	800041c <HAL_GPIO_Init+0x94>
 800041a:	e0c7      	b.n	80005ac <HAL_GPIO_Init+0x224>
 800041c:	2201      	movs	r2, #1
 800041e:	9901      	ldr	r1, [sp, #4]
 8000420:	408a      	lsls	r2, r1
 8000422:	9203      	str	r2, [sp, #12]
 8000424:	401a      	ands	r2, r3
 8000426:	9202      	str	r2, [sp, #8]
 8000428:	d100      	bne.n	800042c <HAL_GPIO_Init+0xa4>
 800042a:	e0bc      	b.n	80005a6 <HAL_GPIO_Init+0x21e>
 800042c:	2310      	movs	r3, #16
 800042e:	686a      	ldr	r2, [r5, #4]
 8000430:	439a      	bics	r2, r3
 8000432:	2a02      	cmp	r2, #2
 8000434:	d12b      	bne.n	800048e <HAL_GPIO_Init+0x106>
 8000436:	2390      	movs	r3, #144	; 0x90
 8000438:	05db      	lsls	r3, r3, #23
 800043a:	429c      	cmp	r4, r3
 800043c:	d00f      	beq.n	800045e <HAL_GPIO_Init+0xd6>
 800043e:	4b5c      	ldr	r3, [pc, #368]	; (80005b0 <HAL_GPIO_Init+0x228>)
 8000440:	429c      	cmp	r4, r3
 8000442:	d00c      	beq.n	800045e <HAL_GPIO_Init+0xd6>
 8000444:	4b5b      	ldr	r3, [pc, #364]	; (80005b4 <HAL_GPIO_Init+0x22c>)
 8000446:	429c      	cmp	r4, r3
 8000448:	d009      	beq.n	800045e <HAL_GPIO_Init+0xd6>
 800044a:	4b5b      	ldr	r3, [pc, #364]	; (80005b8 <HAL_GPIO_Init+0x230>)
 800044c:	429c      	cmp	r4, r3
 800044e:	d006      	beq.n	800045e <HAL_GPIO_Init+0xd6>
 8000450:	4b5a      	ldr	r3, [pc, #360]	; (80005bc <HAL_GPIO_Init+0x234>)
 8000452:	429c      	cmp	r4, r3
 8000454:	d003      	beq.n	800045e <HAL_GPIO_Init+0xd6>
 8000456:	485b      	ldr	r0, [pc, #364]	; (80005c4 <HAL_GPIO_Init+0x23c>)
 8000458:	21d3      	movs	r1, #211	; 0xd3
 800045a:	f7ff ff6b 	bl	8000334 <assert_failed>
 800045e:	692b      	ldr	r3, [r5, #16]
 8000460:	2b07      	cmp	r3, #7
 8000462:	d903      	bls.n	800046c <HAL_GPIO_Init+0xe4>
 8000464:	4857      	ldr	r0, [pc, #348]	; (80005c4 <HAL_GPIO_Init+0x23c>)
 8000466:	21d4      	movs	r1, #212	; 0xd4
 8000468:	f7ff ff64 	bl	8000334 <assert_failed>
 800046c:	2207      	movs	r2, #7
 800046e:	9801      	ldr	r0, [sp, #4]
 8000470:	9b01      	ldr	r3, [sp, #4]
 8000472:	4002      	ands	r2, r0
 8000474:	200f      	movs	r0, #15
 8000476:	0092      	lsls	r2, r2, #2
 8000478:	4090      	lsls	r0, r2
 800047a:	08db      	lsrs	r3, r3, #3
 800047c:	009b      	lsls	r3, r3, #2
 800047e:	18e3      	adds	r3, r4, r3
 8000480:	6a19      	ldr	r1, [r3, #32]
 8000482:	4381      	bics	r1, r0
 8000484:	6928      	ldr	r0, [r5, #16]
 8000486:	4090      	lsls	r0, r2
 8000488:	1c02      	adds	r2, r0, #0
 800048a:	430a      	orrs	r2, r1
 800048c:	621a      	str	r2, [r3, #32]
 800048e:	9b01      	ldr	r3, [sp, #4]
 8000490:	6869      	ldr	r1, [r5, #4]
 8000492:	005f      	lsls	r7, r3, #1
 8000494:	2303      	movs	r3, #3
 8000496:	1c1e      	adds	r6, r3, #0
 8000498:	40be      	lsls	r6, r7
 800049a:	400b      	ands	r3, r1
 800049c:	43f6      	mvns	r6, r6
 800049e:	1c1a      	adds	r2, r3, #0
 80004a0:	6820      	ldr	r0, [r4, #0]
 80004a2:	40ba      	lsls	r2, r7
 80004a4:	4030      	ands	r0, r6
 80004a6:	1c03      	adds	r3, r0, #0
 80004a8:	4313      	orrs	r3, r2
 80004aa:	6023      	str	r3, [r4, #0]
 80004ac:	2310      	movs	r3, #16
 80004ae:	4399      	bics	r1, r3
 80004b0:	3901      	subs	r1, #1
 80004b2:	2901      	cmp	r1, #1
 80004b4:	d818      	bhi.n	80004e8 <HAL_GPIO_Init+0x160>
 80004b6:	68eb      	ldr	r3, [r5, #12]
 80004b8:	2b01      	cmp	r3, #1
 80004ba:	d905      	bls.n	80004c8 <HAL_GPIO_Init+0x140>
 80004bc:	2b03      	cmp	r3, #3
 80004be:	d003      	beq.n	80004c8 <HAL_GPIO_Init+0x140>
 80004c0:	4840      	ldr	r0, [pc, #256]	; (80005c4 <HAL_GPIO_Init+0x23c>)
 80004c2:	21e8      	movs	r1, #232	; 0xe8
 80004c4:	f7ff ff36 	bl	8000334 <assert_failed>
 80004c8:	68ea      	ldr	r2, [r5, #12]
 80004ca:	68a3      	ldr	r3, [r4, #8]
 80004cc:	40ba      	lsls	r2, r7
 80004ce:	4033      	ands	r3, r6
 80004d0:	4313      	orrs	r3, r2
 80004d2:	60a3      	str	r3, [r4, #8]
 80004d4:	6863      	ldr	r3, [r4, #4]
 80004d6:	9a03      	ldr	r2, [sp, #12]
 80004d8:	9901      	ldr	r1, [sp, #4]
 80004da:	4393      	bics	r3, r2
 80004dc:	686a      	ldr	r2, [r5, #4]
 80004de:	06d2      	lsls	r2, r2, #27
 80004e0:	0fd2      	lsrs	r2, r2, #31
 80004e2:	408a      	lsls	r2, r1
 80004e4:	4313      	orrs	r3, r2
 80004e6:	6063      	str	r3, [r4, #4]
 80004e8:	68e3      	ldr	r3, [r4, #12]
 80004ea:	6869      	ldr	r1, [r5, #4]
 80004ec:	401e      	ands	r6, r3
 80004ee:	68ab      	ldr	r3, [r5, #8]
 80004f0:	40bb      	lsls	r3, r7
 80004f2:	431e      	orrs	r6, r3
 80004f4:	60e6      	str	r6, [r4, #12]
 80004f6:	00cb      	lsls	r3, r1, #3
 80004f8:	d555      	bpl.n	80005a6 <HAL_GPIO_Init+0x21e>
 80004fa:	2001      	movs	r0, #1
 80004fc:	4b36      	ldr	r3, [pc, #216]	; (80005d8 <HAL_GPIO_Init+0x250>)
 80004fe:	699a      	ldr	r2, [r3, #24]
 8000500:	4302      	orrs	r2, r0
 8000502:	619a      	str	r2, [r3, #24]
 8000504:	699b      	ldr	r3, [r3, #24]
 8000506:	4003      	ands	r3, r0
 8000508:	9305      	str	r3, [sp, #20]
 800050a:	9b05      	ldr	r3, [sp, #20]
 800050c:	9b01      	ldr	r3, [sp, #4]
 800050e:	089a      	lsrs	r2, r3, #2
 8000510:	4b32      	ldr	r3, [pc, #200]	; (80005dc <HAL_GPIO_Init+0x254>)
 8000512:	0092      	lsls	r2, r2, #2
 8000514:	18d2      	adds	r2, r2, r3
 8000516:	2303      	movs	r3, #3
 8000518:	469c      	mov	ip, r3
 800051a:	4666      	mov	r6, ip
 800051c:	9b01      	ldr	r3, [sp, #4]
 800051e:	6897      	ldr	r7, [r2, #8]
 8000520:	4033      	ands	r3, r6
 8000522:	009b      	lsls	r3, r3, #2
 8000524:	360c      	adds	r6, #12
 8000526:	409e      	lsls	r6, r3
 8000528:	43b7      	bics	r7, r6
 800052a:	2690      	movs	r6, #144	; 0x90
 800052c:	9303      	str	r3, [sp, #12]
 800052e:	05f6      	lsls	r6, r6, #23
 8000530:	2300      	movs	r3, #0
 8000532:	42b4      	cmp	r4, r6
 8000534:	d011      	beq.n	800055a <HAL_GPIO_Init+0x1d2>
 8000536:	1c03      	adds	r3, r0, #0
 8000538:	481d      	ldr	r0, [pc, #116]	; (80005b0 <HAL_GPIO_Init+0x228>)
 800053a:	4284      	cmp	r4, r0
 800053c:	d00d      	beq.n	800055a <HAL_GPIO_Init+0x1d2>
 800053e:	481d      	ldr	r0, [pc, #116]	; (80005b4 <HAL_GPIO_Init+0x22c>)
 8000540:	18db      	adds	r3, r3, r3
 8000542:	4284      	cmp	r4, r0
 8000544:	d009      	beq.n	800055a <HAL_GPIO_Init+0x1d2>
 8000546:	481c      	ldr	r0, [pc, #112]	; (80005b8 <HAL_GPIO_Init+0x230>)
 8000548:	4663      	mov	r3, ip
 800054a:	4284      	cmp	r4, r0
 800054c:	d005      	beq.n	800055a <HAL_GPIO_Init+0x1d2>
 800054e:	4b24      	ldr	r3, [pc, #144]	; (80005e0 <HAL_GPIO_Init+0x258>)
 8000550:	18e3      	adds	r3, r4, r3
 8000552:	425e      	negs	r6, r3
 8000554:	415e      	adcs	r6, r3
 8000556:	2005      	movs	r0, #5
 8000558:	1b83      	subs	r3, r0, r6
 800055a:	9803      	ldr	r0, [sp, #12]
 800055c:	4083      	lsls	r3, r0
 800055e:	433b      	orrs	r3, r7
 8000560:	6093      	str	r3, [r2, #8]
 8000562:	4a20      	ldr	r2, [pc, #128]	; (80005e4 <HAL_GPIO_Init+0x25c>)
 8000564:	9b02      	ldr	r3, [sp, #8]
 8000566:	6816      	ldr	r6, [r2, #0]
 8000568:	43d8      	mvns	r0, r3
 800056a:	4333      	orrs	r3, r6
 800056c:	03cf      	lsls	r7, r1, #15
 800056e:	d401      	bmi.n	8000574 <HAL_GPIO_Init+0x1ec>
 8000570:	1c33      	adds	r3, r6, #0
 8000572:	4003      	ands	r3, r0
 8000574:	6013      	str	r3, [r2, #0]
 8000576:	6856      	ldr	r6, [r2, #4]
 8000578:	9b02      	ldr	r3, [sp, #8]
 800057a:	4333      	orrs	r3, r6
 800057c:	038f      	lsls	r7, r1, #14
 800057e:	d401      	bmi.n	8000584 <HAL_GPIO_Init+0x1fc>
 8000580:	1c33      	adds	r3, r6, #0
 8000582:	4003      	ands	r3, r0
 8000584:	6053      	str	r3, [r2, #4]
 8000586:	6896      	ldr	r6, [r2, #8]
 8000588:	9b02      	ldr	r3, [sp, #8]
 800058a:	4333      	orrs	r3, r6
 800058c:	02cf      	lsls	r7, r1, #11
 800058e:	d401      	bmi.n	8000594 <HAL_GPIO_Init+0x20c>
 8000590:	1c33      	adds	r3, r6, #0
 8000592:	4003      	ands	r3, r0
 8000594:	6093      	str	r3, [r2, #8]
 8000596:	68d6      	ldr	r6, [r2, #12]
 8000598:	9b02      	ldr	r3, [sp, #8]
 800059a:	4333      	orrs	r3, r6
 800059c:	0289      	lsls	r1, r1, #10
 800059e:	d401      	bmi.n	80005a4 <HAL_GPIO_Init+0x21c>
 80005a0:	1c33      	adds	r3, r6, #0
 80005a2:	4003      	ands	r3, r0
 80005a4:	60d3      	str	r3, [r2, #12]
 80005a6:	9b01      	ldr	r3, [sp, #4]
 80005a8:	3301      	adds	r3, #1
 80005aa:	e730      	b.n	800040e <HAL_GPIO_Init+0x86>
 80005ac:	b007      	add	sp, #28
 80005ae:	bdf0      	pop	{r4, r5, r6, r7, pc}
 80005b0:	48000400 	stmdami	r0, {sl}
 80005b4:	48000800 	stmdami	r0, {fp}
 80005b8:	48000c00 	stmdami	r0, {sl, fp}
 80005bc:	48001000 	stmdami	r0, {ip}
 80005c0:	48001400 	stmdami	r0, {sl, ip}
 80005c4:	080012c8 	stmdaeq	r0, {r3, r6, r7, r9, ip}
 80005c8:	ffdfffff 			; <UNDEFINED> instruction: 0xffdfffff
 80005cc:	efef0000 	svc	0x00ef0000
 80005d0:	fffeffff 			; <UNDEFINED> instruction: 0xfffeffff
 80005d4:	efdf0000 	svc	0x00df0000
 80005d8:	40021000 	andmi	r1, r2, r0
 80005dc:	40010000 	andmi	r0, r1, r0
 80005e0:	b7fff000 	ldrblt	pc, [pc, r0]!	; <UNPREDICTABLE>
 80005e4:	40010400 	andmi	r0, r1, r0, lsl #8

080005e8 <HAL_GPIO_WritePin>:
 80005e8:	b570      	push	{r4, r5, r6, lr}
 80005ea:	1c05      	adds	r5, r0, #0
 80005ec:	1c0c      	adds	r4, r1, #0
 80005ee:	1c16      	adds	r6, r2, #0
 80005f0:	2900      	cmp	r1, #0
 80005f2:	d104      	bne.n	80005fe <HAL_GPIO_WritePin+0x16>
 80005f4:	21d6      	movs	r1, #214	; 0xd6
 80005f6:	4809      	ldr	r0, [pc, #36]	; (800061c <HAL_GPIO_WritePin+0x34>)
 80005f8:	0049      	lsls	r1, r1, #1
 80005fa:	f7ff fe9b 	bl	8000334 <assert_failed>
 80005fe:	2e01      	cmp	r6, #1
 8000600:	d905      	bls.n	800060e <HAL_GPIO_WritePin+0x26>
 8000602:	21ae      	movs	r1, #174	; 0xae
 8000604:	4805      	ldr	r0, [pc, #20]	; (800061c <HAL_GPIO_WritePin+0x34>)
 8000606:	31ff      	adds	r1, #255	; 0xff
 8000608:	f7ff fe94 	bl	8000334 <assert_failed>
 800060c:	e001      	b.n	8000612 <HAL_GPIO_WritePin+0x2a>
 800060e:	2e00      	cmp	r6, #0
 8000610:	d001      	beq.n	8000616 <HAL_GPIO_WritePin+0x2e>
 8000612:	61ac      	str	r4, [r5, #24]
 8000614:	e000      	b.n	8000618 <HAL_GPIO_WritePin+0x30>
 8000616:	62ac      	str	r4, [r5, #40]	; 0x28
 8000618:	bd70      	pop	{r4, r5, r6, pc}
 800061a:	46c0      	nop			; (mov r8, r8)
 800061c:	080012c8 	stmdaeq	r0, {r3, r6, r7, r9, ip}

08000620 <HAL_GPIO_TogglePin>:
 8000620:	b538      	push	{r3, r4, r5, lr}
 8000622:	1c04      	adds	r4, r0, #0
 8000624:	1e0d      	subs	r5, r1, #0
 8000626:	d104      	bne.n	8000632 <HAL_GPIO_TogglePin+0x12>
 8000628:	21e1      	movs	r1, #225	; 0xe1
 800062a:	4804      	ldr	r0, [pc, #16]	; (800063c <HAL_GPIO_TogglePin+0x1c>)
 800062c:	0049      	lsls	r1, r1, #1
 800062e:	f7ff fe81 	bl	8000334 <assert_failed>
 8000632:	6961      	ldr	r1, [r4, #20]
 8000634:	4069      	eors	r1, r5
 8000636:	6161      	str	r1, [r4, #20]
 8000638:	bd38      	pop	{r3, r4, r5, pc}
 800063a:	46c0      	nop			; (mov r8, r8)
 800063c:	080012c8 	stmdaeq	r0, {r3, r6, r7, r9, ip}

08000640 <HAL_RCC_OscConfig>:
 8000640:	b5f0      	push	{r4, r5, r6, r7, lr}
 8000642:	1c04      	adds	r4, r0, #0
 8000644:	b085      	sub	sp, #20
 8000646:	2800      	cmp	r0, #0
 8000648:	d104      	bne.n	8000654 <HAL_RCC_OscConfig+0x14>
 800064a:	2189      	movs	r1, #137	; 0x89
 800064c:	48aa      	ldr	r0, [pc, #680]	; (80008f8 <HAL_RCC_OscConfig+0x2b8>)
 800064e:	0049      	lsls	r1, r1, #1
 8000650:	f7ff fe70 	bl	8000334 <assert_failed>
 8000654:	6823      	ldr	r3, [r4, #0]
 8000656:	2b00      	cmp	r3, #0
 8000658:	d006      	beq.n	8000668 <HAL_RCC_OscConfig+0x28>
 800065a:	069b      	lsls	r3, r3, #26
 800065c:	d104      	bne.n	8000668 <HAL_RCC_OscConfig+0x28>
 800065e:	2114      	movs	r1, #20
 8000660:	48a5      	ldr	r0, [pc, #660]	; (80008f8 <HAL_RCC_OscConfig+0x2b8>)
 8000662:	31ff      	adds	r1, #255	; 0xff
 8000664:	f7ff fe66 	bl	8000334 <assert_failed>
 8000668:	6823      	ldr	r3, [r4, #0]
 800066a:	07db      	lsls	r3, r3, #31
 800066c:	d403      	bmi.n	8000676 <HAL_RCC_OscConfig+0x36>
 800066e:	6823      	ldr	r3, [r4, #0]
 8000670:	079b      	lsls	r3, r3, #30
 8000672:	d45f      	bmi.n	8000734 <HAL_RCC_OscConfig+0xf4>
 8000674:	e0b8      	b.n	80007e8 <HAL_RCC_OscConfig+0x1a8>
 8000676:	6863      	ldr	r3, [r4, #4]
 8000678:	2b01      	cmp	r3, #1
 800067a:	d906      	bls.n	800068a <HAL_RCC_OscConfig+0x4a>
 800067c:	2b05      	cmp	r3, #5
 800067e:	d004      	beq.n	800068a <HAL_RCC_OscConfig+0x4a>
 8000680:	211a      	movs	r1, #26
 8000682:	489d      	ldr	r0, [pc, #628]	; (80008f8 <HAL_RCC_OscConfig+0x2b8>)
 8000684:	31ff      	adds	r1, #255	; 0xff
 8000686:	f7ff fe55 	bl	8000334 <assert_failed>
 800068a:	230c      	movs	r3, #12
 800068c:	4d9b      	ldr	r5, [pc, #620]	; (80008fc <HAL_RCC_OscConfig+0x2bc>)
 800068e:	686a      	ldr	r2, [r5, #4]
 8000690:	401a      	ands	r2, r3
 8000692:	2a04      	cmp	r2, #4
 8000694:	d00b      	beq.n	80006ae <HAL_RCC_OscConfig+0x6e>
 8000696:	686a      	ldr	r2, [r5, #4]
 8000698:	4013      	ands	r3, r2
 800069a:	2b08      	cmp	r3, #8
 800069c:	d10f      	bne.n	80006be <HAL_RCC_OscConfig+0x7e>
 800069e:	23c0      	movs	r3, #192	; 0xc0
 80006a0:	686a      	ldr	r2, [r5, #4]
 80006a2:	025b      	lsls	r3, r3, #9
 80006a4:	4013      	ands	r3, r2
 80006a6:	2280      	movs	r2, #128	; 0x80
 80006a8:	0252      	lsls	r2, r2, #9
 80006aa:	4293      	cmp	r3, r2
 80006ac:	d107      	bne.n	80006be <HAL_RCC_OscConfig+0x7e>
 80006ae:	682b      	ldr	r3, [r5, #0]
 80006b0:	039b      	lsls	r3, r3, #14
 80006b2:	d5dc      	bpl.n	800066e <HAL_RCC_OscConfig+0x2e>
 80006b4:	6863      	ldr	r3, [r4, #4]
 80006b6:	2b00      	cmp	r3, #0
 80006b8:	d1d9      	bne.n	800066e <HAL_RCC_OscConfig+0x2e>
 80006ba:	2001      	movs	r0, #1
 80006bc:	e264      	b.n	8000b88 <HAL_RCC_OscConfig+0x548>
 80006be:	6863      	ldr	r3, [r4, #4]
 80006c0:	2b01      	cmp	r3, #1
 80006c2:	d014      	beq.n	80006ee <HAL_RCC_OscConfig+0xae>
 80006c4:	2b00      	cmp	r3, #0
 80006c6:	d10b      	bne.n	80006e0 <HAL_RCC_OscConfig+0xa0>
 80006c8:	682a      	ldr	r2, [r5, #0]
 80006ca:	4b8d      	ldr	r3, [pc, #564]	; (8000900 <HAL_RCC_OscConfig+0x2c0>)
 80006cc:	4013      	ands	r3, r2
 80006ce:	602b      	str	r3, [r5, #0]
 80006d0:	682a      	ldr	r2, [r5, #0]
 80006d2:	4b8c      	ldr	r3, [pc, #560]	; (8000904 <HAL_RCC_OscConfig+0x2c4>)
 80006d4:	4013      	ands	r3, r2
 80006d6:	602b      	str	r3, [r5, #0]
 80006d8:	f7ff fe50 	bl	800037c <HAL_GetTick>
 80006dc:	1c06      	adds	r6, r0, #0
 80006de:	e025      	b.n	800072c <HAL_RCC_OscConfig+0xec>
 80006e0:	2b05      	cmp	r3, #5
 80006e2:	d109      	bne.n	80006f8 <HAL_RCC_OscConfig+0xb8>
 80006e4:	2280      	movs	r2, #128	; 0x80
 80006e6:	682b      	ldr	r3, [r5, #0]
 80006e8:	02d2      	lsls	r2, r2, #11
 80006ea:	4313      	orrs	r3, r2
 80006ec:	602b      	str	r3, [r5, #0]
 80006ee:	2280      	movs	r2, #128	; 0x80
 80006f0:	682b      	ldr	r3, [r5, #0]
 80006f2:	0252      	lsls	r2, r2, #9
 80006f4:	4313      	orrs	r3, r2
 80006f6:	e006      	b.n	8000706 <HAL_RCC_OscConfig+0xc6>
 80006f8:	682a      	ldr	r2, [r5, #0]
 80006fa:	4b81      	ldr	r3, [pc, #516]	; (8000900 <HAL_RCC_OscConfig+0x2c0>)
 80006fc:	4013      	ands	r3, r2
 80006fe:	602b      	str	r3, [r5, #0]
 8000700:	682a      	ldr	r2, [r5, #0]
 8000702:	4b80      	ldr	r3, [pc, #512]	; (8000904 <HAL_RCC_OscConfig+0x2c4>)
 8000704:	4013      	ands	r3, r2
 8000706:	602b      	str	r3, [r5, #0]
 8000708:	f7ff fe38 	bl	800037c <HAL_GetTick>
 800070c:	1c06      	adds	r6, r0, #0
 800070e:	682b      	ldr	r3, [r5, #0]
 8000710:	039b      	lsls	r3, r3, #14
 8000712:	d4ac      	bmi.n	800066e <HAL_RCC_OscConfig+0x2e>
 8000714:	f7ff fe32 	bl	800037c <HAL_GetTick>
 8000718:	1b80      	subs	r0, r0, r6
 800071a:	2864      	cmp	r0, #100	; 0x64
 800071c:	d9f7      	bls.n	800070e <HAL_RCC_OscConfig+0xce>
 800071e:	2003      	movs	r0, #3
 8000720:	e232      	b.n	8000b88 <HAL_RCC_OscConfig+0x548>
 8000722:	f7ff fe2b 	bl	800037c <HAL_GetTick>
 8000726:	1b80      	subs	r0, r0, r6
 8000728:	2864      	cmp	r0, #100	; 0x64
 800072a:	d8f8      	bhi.n	800071e <HAL_RCC_OscConfig+0xde>
 800072c:	682b      	ldr	r3, [r5, #0]
 800072e:	039b      	lsls	r3, r3, #14
 8000730:	d4f7      	bmi.n	8000722 <HAL_RCC_OscConfig+0xe2>
 8000732:	e79c      	b.n	800066e <HAL_RCC_OscConfig+0x2e>
 8000734:	68e3      	ldr	r3, [r4, #12]
 8000736:	2b01      	cmp	r3, #1
 8000738:	d904      	bls.n	8000744 <HAL_RCC_OscConfig+0x104>
 800073a:	214e      	movs	r1, #78	; 0x4e
 800073c:	486e      	ldr	r0, [pc, #440]	; (80008f8 <HAL_RCC_OscConfig+0x2b8>)
 800073e:	31ff      	adds	r1, #255	; 0xff
 8000740:	f7ff fdf8 	bl	8000334 <assert_failed>
 8000744:	6923      	ldr	r3, [r4, #16]
 8000746:	2b1f      	cmp	r3, #31
 8000748:	d904      	bls.n	8000754 <HAL_RCC_OscConfig+0x114>
 800074a:	21a7      	movs	r1, #167	; 0xa7
 800074c:	486a      	ldr	r0, [pc, #424]	; (80008f8 <HAL_RCC_OscConfig+0x2b8>)
 800074e:	0049      	lsls	r1, r1, #1
 8000750:	f7ff fdf0 	bl	8000334 <assert_failed>
 8000754:	230c      	movs	r3, #12
 8000756:	4d69      	ldr	r5, [pc, #420]	; (80008fc <HAL_RCC_OscConfig+0x2bc>)
 8000758:	686a      	ldr	r2, [r5, #4]
 800075a:	421a      	tst	r2, r3
 800075c:	d00b      	beq.n	8000776 <HAL_RCC_OscConfig+0x136>
 800075e:	686a      	ldr	r2, [r5, #4]
 8000760:	4013      	ands	r3, r2
 8000762:	2b08      	cmp	r3, #8
 8000764:	d115      	bne.n	8000792 <HAL_RCC_OscConfig+0x152>
 8000766:	23c0      	movs	r3, #192	; 0xc0
 8000768:	686a      	ldr	r2, [r5, #4]
 800076a:	025b      	lsls	r3, r3, #9
 800076c:	4013      	ands	r3, r2
 800076e:	2280      	movs	r2, #128	; 0x80
 8000770:	0212      	lsls	r2, r2, #8
 8000772:	4293      	cmp	r3, r2
 8000774:	d10d      	bne.n	8000792 <HAL_RCC_OscConfig+0x152>
 8000776:	682b      	ldr	r3, [r5, #0]
 8000778:	079b      	lsls	r3, r3, #30
 800077a:	d502      	bpl.n	8000782 <HAL_RCC_OscConfig+0x142>
 800077c:	68e3      	ldr	r3, [r4, #12]
 800077e:	2b01      	cmp	r3, #1
 8000780:	d19b      	bne.n	80006ba <HAL_RCC_OscConfig+0x7a>
 8000782:	21f8      	movs	r1, #248	; 0xf8
 8000784:	682b      	ldr	r3, [r5, #0]
 8000786:	6922      	ldr	r2, [r4, #16]
 8000788:	438b      	bics	r3, r1
 800078a:	00d2      	lsls	r2, r2, #3
 800078c:	4313      	orrs	r3, r2
 800078e:	602b      	str	r3, [r5, #0]
 8000790:	e02a      	b.n	80007e8 <HAL_RCC_OscConfig+0x1a8>
 8000792:	68e3      	ldr	r3, [r4, #12]
 8000794:	2201      	movs	r2, #1
 8000796:	2b00      	cmp	r3, #0
 8000798:	d017      	beq.n	80007ca <HAL_RCC_OscConfig+0x18a>
 800079a:	682b      	ldr	r3, [r5, #0]
 800079c:	4313      	orrs	r3, r2
 800079e:	602b      	str	r3, [r5, #0]
 80007a0:	f7ff fdec 	bl	800037c <HAL_GetTick>
 80007a4:	1c06      	adds	r6, r0, #0
 80007a6:	682b      	ldr	r3, [r5, #0]
 80007a8:	4954      	ldr	r1, [pc, #336]	; (80008fc <HAL_RCC_OscConfig+0x2bc>)
 80007aa:	079b      	lsls	r3, r3, #30
 80007ac:	d405      	bmi.n	80007ba <HAL_RCC_OscConfig+0x17a>
 80007ae:	f7ff fde5 	bl	800037c <HAL_GetTick>
 80007b2:	1b80      	subs	r0, r0, r6
 80007b4:	2802      	cmp	r0, #2
 80007b6:	d9f6      	bls.n	80007a6 <HAL_RCC_OscConfig+0x166>
 80007b8:	e7b1      	b.n	800071e <HAL_RCC_OscConfig+0xde>
 80007ba:	20f8      	movs	r0, #248	; 0xf8
 80007bc:	680b      	ldr	r3, [r1, #0]
 80007be:	6922      	ldr	r2, [r4, #16]
 80007c0:	4383      	bics	r3, r0
 80007c2:	00d2      	lsls	r2, r2, #3
 80007c4:	4313      	orrs	r3, r2
 80007c6:	600b      	str	r3, [r1, #0]
 80007c8:	e00e      	b.n	80007e8 <HAL_RCC_OscConfig+0x1a8>
 80007ca:	682b      	ldr	r3, [r5, #0]
 80007cc:	4393      	bics	r3, r2
 80007ce:	602b      	str	r3, [r5, #0]
 80007d0:	f7ff fdd4 	bl	800037c <HAL_GetTick>
 80007d4:	1c06      	adds	r6, r0, #0
 80007d6:	682b      	ldr	r3, [r5, #0]
 80007d8:	079b      	lsls	r3, r3, #30
 80007da:	d505      	bpl.n	80007e8 <HAL_RCC_OscConfig+0x1a8>
 80007dc:	f7ff fdce 	bl	800037c <HAL_GetTick>
 80007e0:	1b80      	subs	r0, r0, r6
 80007e2:	2802      	cmp	r0, #2
 80007e4:	d9f7      	bls.n	80007d6 <HAL_RCC_OscConfig+0x196>
 80007e6:	e79a      	b.n	800071e <HAL_RCC_OscConfig+0xde>
 80007e8:	6823      	ldr	r3, [r4, #0]
 80007ea:	071b      	lsls	r3, r3, #28
 80007ec:	d403      	bmi.n	80007f6 <HAL_RCC_OscConfig+0x1b6>
 80007ee:	6823      	ldr	r3, [r4, #0]
 80007f0:	075b      	lsls	r3, r3, #29
 80007f2:	d42b      	bmi.n	800084c <HAL_RCC_OscConfig+0x20c>
 80007f4:	e09a      	b.n	800092c <HAL_RCC_OscConfig+0x2ec>
 80007f6:	69e3      	ldr	r3, [r4, #28]
 80007f8:	2b01      	cmp	r3, #1
 80007fa:	d904      	bls.n	8000806 <HAL_RCC_OscConfig+0x1c6>
 80007fc:	21c7      	movs	r1, #199	; 0xc7
 80007fe:	483e      	ldr	r0, [pc, #248]	; (80008f8 <HAL_RCC_OscConfig+0x2b8>)
 8000800:	0049      	lsls	r1, r1, #1
 8000802:	f7ff fd97 	bl	8000334 <assert_failed>
 8000806:	69e3      	ldr	r3, [r4, #28]
 8000808:	2201      	movs	r2, #1
 800080a:	4d3c      	ldr	r5, [pc, #240]	; (80008fc <HAL_RCC_OscConfig+0x2bc>)
 800080c:	2b00      	cmp	r3, #0
 800080e:	d00e      	beq.n	800082e <HAL_RCC_OscConfig+0x1ee>
 8000810:	6a6b      	ldr	r3, [r5, #36]	; 0x24
 8000812:	4313      	orrs	r3, r2
 8000814:	626b      	str	r3, [r5, #36]	; 0x24
 8000816:	f7ff fdb1 	bl	800037c <HAL_GetTick>
 800081a:	1c06      	adds	r6, r0, #0
 800081c:	6a6b      	ldr	r3, [r5, #36]	; 0x24
 800081e:	079b      	lsls	r3, r3, #30
 8000820:	d4e5      	bmi.n	80007ee <HAL_RCC_OscConfig+0x1ae>
 8000822:	f7ff fdab 	bl	800037c <HAL_GetTick>
 8000826:	1b80      	subs	r0, r0, r6
 8000828:	2802      	cmp	r0, #2
 800082a:	d9f7      	bls.n	800081c <HAL_RCC_OscConfig+0x1dc>
 800082c:	e777      	b.n	800071e <HAL_RCC_OscConfig+0xde>
 800082e:	6a6b      	ldr	r3, [r5, #36]	; 0x24
 8000830:	4393      	bics	r3, r2
 8000832:	626b      	str	r3, [r5, #36]	; 0x24
 8000834:	f7ff fda2 	bl	800037c <HAL_GetTick>
 8000838:	1c06      	adds	r6, r0, #0
 800083a:	6a6b      	ldr	r3, [r5, #36]	; 0x24
 800083c:	079b      	lsls	r3, r3, #30
 800083e:	d5d6      	bpl.n	80007ee <HAL_RCC_OscConfig+0x1ae>
 8000840:	f7ff fd9c 	bl	800037c <HAL_GetTick>
 8000844:	1b80      	subs	r0, r0, r6
 8000846:	2802      	cmp	r0, #2
 8000848:	d9f7      	bls.n	800083a <HAL_RCC_OscConfig+0x1fa>
 800084a:	e768      	b.n	800071e <HAL_RCC_OscConfig+0xde>
 800084c:	68a3      	ldr	r3, [r4, #8]
 800084e:	2b01      	cmp	r3, #1
 8000850:	d906      	bls.n	8000860 <HAL_RCC_OscConfig+0x220>
 8000852:	2b05      	cmp	r3, #5
 8000854:	d004      	beq.n	8000860 <HAL_RCC_OscConfig+0x220>
 8000856:	21dd      	movs	r1, #221	; 0xdd
 8000858:	4827      	ldr	r0, [pc, #156]	; (80008f8 <HAL_RCC_OscConfig+0x2b8>)
 800085a:	0049      	lsls	r1, r1, #1
 800085c:	f7ff fd6a 	bl	8000334 <assert_failed>
 8000860:	2380      	movs	r3, #128	; 0x80
 8000862:	4d26      	ldr	r5, [pc, #152]	; (80008fc <HAL_RCC_OscConfig+0x2bc>)
 8000864:	055b      	lsls	r3, r3, #21
 8000866:	69ea      	ldr	r2, [r5, #28]
 8000868:	2700      	movs	r7, #0
 800086a:	421a      	tst	r2, r3
 800086c:	d107      	bne.n	800087e <HAL_RCC_OscConfig+0x23e>
 800086e:	69ea      	ldr	r2, [r5, #28]
 8000870:	3701      	adds	r7, #1
 8000872:	431a      	orrs	r2, r3
 8000874:	61ea      	str	r2, [r5, #28]
 8000876:	69ea      	ldr	r2, [r5, #28]
 8000878:	4013      	ands	r3, r2
 800087a:	9303      	str	r3, [sp, #12]
 800087c:	9b03      	ldr	r3, [sp, #12]
 800087e:	2280      	movs	r2, #128	; 0x80
 8000880:	4e21      	ldr	r6, [pc, #132]	; (8000908 <HAL_RCC_OscConfig+0x2c8>)
 8000882:	0052      	lsls	r2, r2, #1
 8000884:	6833      	ldr	r3, [r6, #0]
 8000886:	4213      	tst	r3, r2
 8000888:	d005      	beq.n	8000896 <HAL_RCC_OscConfig+0x256>
 800088a:	68a3      	ldr	r3, [r4, #8]
 800088c:	2b01      	cmp	r3, #1
 800088e:	d112      	bne.n	80008b6 <HAL_RCC_OscConfig+0x276>
 8000890:	6a2a      	ldr	r2, [r5, #32]
 8000892:	4313      	orrs	r3, r2
 8000894:	e02d      	b.n	80008f2 <HAL_RCC_OscConfig+0x2b2>
 8000896:	6833      	ldr	r3, [r6, #0]
 8000898:	4313      	orrs	r3, r2
 800089a:	6033      	str	r3, [r6, #0]
 800089c:	f7ff fd6e 	bl	800037c <HAL_GetTick>
 80008a0:	9001      	str	r0, [sp, #4]
 80008a2:	6833      	ldr	r3, [r6, #0]
 80008a4:	05db      	lsls	r3, r3, #23
 80008a6:	d4f0      	bmi.n	800088a <HAL_RCC_OscConfig+0x24a>
 80008a8:	f7ff fd68 	bl	800037c <HAL_GetTick>
 80008ac:	9b01      	ldr	r3, [sp, #4]
 80008ae:	1ac0      	subs	r0, r0, r3
 80008b0:	2864      	cmp	r0, #100	; 0x64
 80008b2:	d9f6      	bls.n	80008a2 <HAL_RCC_OscConfig+0x262>
 80008b4:	e733      	b.n	800071e <HAL_RCC_OscConfig+0xde>
 80008b6:	2201      	movs	r2, #1
 80008b8:	2b00      	cmp	r3, #0
 80008ba:	d10a      	bne.n	80008d2 <HAL_RCC_OscConfig+0x292>
 80008bc:	6a2b      	ldr	r3, [r5, #32]
 80008be:	4393      	bics	r3, r2
 80008c0:	622b      	str	r3, [r5, #32]
 80008c2:	6a2b      	ldr	r3, [r5, #32]
 80008c4:	3203      	adds	r2, #3
 80008c6:	4393      	bics	r3, r2
 80008c8:	622b      	str	r3, [r5, #32]
 80008ca:	f7ff fd57 	bl	800037c <HAL_GetTick>
 80008ce:	1c06      	adds	r6, r0, #0
 80008d0:	e023      	b.n	800091a <HAL_RCC_OscConfig+0x2da>
 80008d2:	2b05      	cmp	r3, #5
 80008d4:	d107      	bne.n	80008e6 <HAL_RCC_OscConfig+0x2a6>
 80008d6:	2104      	movs	r1, #4
 80008d8:	6a2b      	ldr	r3, [r5, #32]
 80008da:	430b      	orrs	r3, r1
 80008dc:	622b      	str	r3, [r5, #32]
 80008de:	6a2b      	ldr	r3, [r5, #32]
 80008e0:	431a      	orrs	r2, r3
 80008e2:	622a      	str	r2, [r5, #32]
 80008e4:	e142      	b.n	8000b6c <HAL_RCC_OscConfig+0x52c>
 80008e6:	6a2b      	ldr	r3, [r5, #32]
 80008e8:	4393      	bics	r3, r2
 80008ea:	2204      	movs	r2, #4
 80008ec:	622b      	str	r3, [r5, #32]
 80008ee:	6a2b      	ldr	r3, [r5, #32]
 80008f0:	4393      	bics	r3, r2
 80008f2:	622b      	str	r3, [r5, #32]
 80008f4:	e13a      	b.n	8000b6c <HAL_RCC_OscConfig+0x52c>
 80008f6:	46c0      	nop			; (mov r8, r8)
 80008f8:	080012e9 	stmdaeq	r0, {r0, r3, r5, r6, r7, r9, ip}
 80008fc:	40021000 	andmi	r1, r2, r0
 8000900:	fffeffff 			; <UNDEFINED> instruction: 0xfffeffff
 8000904:	fffbffff 			; <UNDEFINED> instruction: 0xfffbffff
 8000908:	40007000 	andmi	r7, r0, r0
 800090c:	f7ff fd36 	bl	800037c <HAL_GetTick>
 8000910:	4b9e      	ldr	r3, [pc, #632]	; (8000b8c <HAL_RCC_OscConfig+0x54c>)
 8000912:	1b80      	subs	r0, r0, r6
 8000914:	4298      	cmp	r0, r3
 8000916:	d900      	bls.n	800091a <HAL_RCC_OscConfig+0x2da>
 8000918:	e701      	b.n	800071e <HAL_RCC_OscConfig+0xde>
 800091a:	6a2b      	ldr	r3, [r5, #32]
 800091c:	079b      	lsls	r3, r3, #30
 800091e:	d4f5      	bmi.n	800090c <HAL_RCC_OscConfig+0x2cc>
 8000920:	2f01      	cmp	r7, #1
 8000922:	d103      	bne.n	800092c <HAL_RCC_OscConfig+0x2ec>
 8000924:	69ea      	ldr	r2, [r5, #28]
 8000926:	4b9a      	ldr	r3, [pc, #616]	; (8000b90 <HAL_RCC_OscConfig+0x550>)
 8000928:	4013      	ands	r3, r2
 800092a:	61eb      	str	r3, [r5, #28]
 800092c:	6823      	ldr	r3, [r4, #0]
 800092e:	06db      	lsls	r3, r3, #27
 8000930:	d550      	bpl.n	80009d4 <HAL_RCC_OscConfig+0x394>
 8000932:	6963      	ldr	r3, [r4, #20]
 8000934:	2b01      	cmp	r3, #1
 8000936:	d906      	bls.n	8000946 <HAL_RCC_OscConfig+0x306>
 8000938:	3305      	adds	r3, #5
 800093a:	d004      	beq.n	8000946 <HAL_RCC_OscConfig+0x306>
 800093c:	2180      	movs	r1, #128	; 0x80
 800093e:	4895      	ldr	r0, [pc, #596]	; (8000b94 <HAL_RCC_OscConfig+0x554>)
 8000940:	0089      	lsls	r1, r1, #2
 8000942:	f7ff fcf7 	bl	8000334 <assert_failed>
 8000946:	69a3      	ldr	r3, [r4, #24]
 8000948:	2b1f      	cmp	r3, #31
 800094a:	d903      	bls.n	8000954 <HAL_RCC_OscConfig+0x314>
 800094c:	4891      	ldr	r0, [pc, #580]	; (8000b94 <HAL_RCC_OscConfig+0x554>)
 800094e:	4992      	ldr	r1, [pc, #584]	; (8000b98 <HAL_RCC_OscConfig+0x558>)
 8000950:	f7ff fcf0 	bl	8000334 <assert_failed>
 8000954:	6962      	ldr	r2, [r4, #20]
 8000956:	4d91      	ldr	r5, [pc, #580]	; (8000b9c <HAL_RCC_OscConfig+0x55c>)
 8000958:	2304      	movs	r3, #4
 800095a:	2a01      	cmp	r2, #1
 800095c:	d11a      	bne.n	8000994 <HAL_RCC_OscConfig+0x354>
 800095e:	6b69      	ldr	r1, [r5, #52]	; 0x34
 8000960:	430b      	orrs	r3, r1
 8000962:	636b      	str	r3, [r5, #52]	; 0x34
 8000964:	6b6b      	ldr	r3, [r5, #52]	; 0x34
 8000966:	431a      	orrs	r2, r3
 8000968:	636a      	str	r2, [r5, #52]	; 0x34
 800096a:	f7ff fd07 	bl	800037c <HAL_GetTick>
 800096e:	1c06      	adds	r6, r0, #0
 8000970:	6b6b      	ldr	r3, [r5, #52]	; 0x34
 8000972:	498a      	ldr	r1, [pc, #552]	; (8000b9c <HAL_RCC_OscConfig+0x55c>)
 8000974:	079b      	lsls	r3, r3, #30
 8000976:	d405      	bmi.n	8000984 <HAL_RCC_OscConfig+0x344>
 8000978:	f7ff fd00 	bl	800037c <HAL_GetTick>
 800097c:	1b80      	subs	r0, r0, r6
 800097e:	2802      	cmp	r0, #2
 8000980:	d9f6      	bls.n	8000970 <HAL_RCC_OscConfig+0x330>
 8000982:	e6cc      	b.n	800071e <HAL_RCC_OscConfig+0xde>
 8000984:	20f8      	movs	r0, #248	; 0xf8
 8000986:	6b4b      	ldr	r3, [r1, #52]	; 0x34
 8000988:	69a2      	ldr	r2, [r4, #24]
 800098a:	4383      	bics	r3, r0
 800098c:	00d2      	lsls	r2, r2, #3
 800098e:	4313      	orrs	r3, r2
 8000990:	634b      	str	r3, [r1, #52]	; 0x34
 8000992:	e01f      	b.n	80009d4 <HAL_RCC_OscConfig+0x394>
 8000994:	3205      	adds	r2, #5
 8000996:	d10a      	bne.n	80009ae <HAL_RCC_OscConfig+0x36e>
 8000998:	21f8      	movs	r1, #248	; 0xf8
 800099a:	6b6a      	ldr	r2, [r5, #52]	; 0x34
 800099c:	439a      	bics	r2, r3
 800099e:	636a      	str	r2, [r5, #52]	; 0x34
 80009a0:	6b6b      	ldr	r3, [r5, #52]	; 0x34
 80009a2:	69a2      	ldr	r2, [r4, #24]
 80009a4:	438b      	bics	r3, r1
 80009a6:	00d2      	lsls	r2, r2, #3
 80009a8:	4313      	orrs	r3, r2
 80009aa:	636b      	str	r3, [r5, #52]	; 0x34
 80009ac:	e012      	b.n	80009d4 <HAL_RCC_OscConfig+0x394>
 80009ae:	6b6a      	ldr	r2, [r5, #52]	; 0x34
 80009b0:	4313      	orrs	r3, r2
 80009b2:	2201      	movs	r2, #1
 80009b4:	636b      	str	r3, [r5, #52]	; 0x34
 80009b6:	6b6b      	ldr	r3, [r5, #52]	; 0x34
 80009b8:	4393      	bics	r3, r2
 80009ba:	636b      	str	r3, [r5, #52]	; 0x34
 80009bc:	f7ff fcde 	bl	800037c <HAL_GetTick>
 80009c0:	1c06      	adds	r6, r0, #0
 80009c2:	6b6b      	ldr	r3, [r5, #52]	; 0x34
 80009c4:	079b      	lsls	r3, r3, #30
 80009c6:	d505      	bpl.n	80009d4 <HAL_RCC_OscConfig+0x394>
 80009c8:	f7ff fcd8 	bl	800037c <HAL_GetTick>
 80009cc:	1b80      	subs	r0, r0, r6
 80009ce:	2802      	cmp	r0, #2
 80009d0:	d9f7      	bls.n	80009c2 <HAL_RCC_OscConfig+0x382>
 80009d2:	e6a4      	b.n	800071e <HAL_RCC_OscConfig+0xde>
 80009d4:	6823      	ldr	r3, [r4, #0]
 80009d6:	069b      	lsls	r3, r3, #26
 80009d8:	d408      	bmi.n	80009ec <HAL_RCC_OscConfig+0x3ac>
 80009da:	6a63      	ldr	r3, [r4, #36]	; 0x24
 80009dc:	2b02      	cmp	r3, #2
 80009de:	d948      	bls.n	8000a72 <HAL_RCC_OscConfig+0x432>
 80009e0:	219d      	movs	r1, #157	; 0x9d
 80009e2:	486c      	ldr	r0, [pc, #432]	; (8000b94 <HAL_RCC_OscConfig+0x554>)
 80009e4:	0089      	lsls	r1, r1, #2
 80009e6:	f7ff fca5 	bl	8000334 <assert_failed>
 80009ea:	e042      	b.n	8000a72 <HAL_RCC_OscConfig+0x432>
 80009ec:	6a23      	ldr	r3, [r4, #32]
 80009ee:	2b01      	cmp	r3, #1
 80009f0:	d903      	bls.n	80009fa <HAL_RCC_OscConfig+0x3ba>
 80009f2:	4868      	ldr	r0, [pc, #416]	; (8000b94 <HAL_RCC_OscConfig+0x554>)
 80009f4:	496a      	ldr	r1, [pc, #424]	; (8000ba0 <HAL_RCC_OscConfig+0x560>)
 80009f6:	f7ff fc9d 	bl	8000334 <assert_failed>
 80009fa:	230c      	movs	r3, #12
 80009fc:	4d67      	ldr	r5, [pc, #412]	; (8000b9c <HAL_RCC_OscConfig+0x55c>)
 80009fe:	686a      	ldr	r2, [r5, #4]
 8000a00:	401a      	ands	r2, r3
 8000a02:	429a      	cmp	r2, r3
 8000a04:	d009      	beq.n	8000a1a <HAL_RCC_OscConfig+0x3da>
 8000a06:	686a      	ldr	r2, [r5, #4]
 8000a08:	4013      	ands	r3, r2
 8000a0a:	2b08      	cmp	r3, #8
 8000a0c:	d10d      	bne.n	8000a2a <HAL_RCC_OscConfig+0x3ea>
 8000a0e:	22c0      	movs	r2, #192	; 0xc0
 8000a10:	686b      	ldr	r3, [r5, #4]
 8000a12:	0252      	lsls	r2, r2, #9
 8000a14:	4013      	ands	r3, r2
 8000a16:	4293      	cmp	r3, r2
 8000a18:	d107      	bne.n	8000a2a <HAL_RCC_OscConfig+0x3ea>
 8000a1a:	6b6b      	ldr	r3, [r5, #52]	; 0x34
 8000a1c:	03db      	lsls	r3, r3, #15
 8000a1e:	d5dc      	bpl.n	80009da <HAL_RCC_OscConfig+0x39a>
 8000a20:	6a23      	ldr	r3, [r4, #32]
 8000a22:	2b01      	cmp	r3, #1
 8000a24:	d000      	beq.n	8000a28 <HAL_RCC_OscConfig+0x3e8>
 8000a26:	e648      	b.n	80006ba <HAL_RCC_OscConfig+0x7a>
 8000a28:	e7d7      	b.n	80009da <HAL_RCC_OscConfig+0x39a>
 8000a2a:	6a23      	ldr	r3, [r4, #32]
 8000a2c:	2b00      	cmp	r3, #0
 8000a2e:	d010      	beq.n	8000a52 <HAL_RCC_OscConfig+0x412>
 8000a30:	2280      	movs	r2, #128	; 0x80
 8000a32:	6b6b      	ldr	r3, [r5, #52]	; 0x34
 8000a34:	0252      	lsls	r2, r2, #9
 8000a36:	4313      	orrs	r3, r2
 8000a38:	636b      	str	r3, [r5, #52]	; 0x34
 8000a3a:	f7ff fc9f 	bl	800037c <HAL_GetTick>
 8000a3e:	1c06      	adds	r6, r0, #0
 8000a40:	6b6b      	ldr	r3, [r5, #52]	; 0x34
 8000a42:	03db      	lsls	r3, r3, #15
 8000a44:	d4c9      	bmi.n	80009da <HAL_RCC_OscConfig+0x39a>
 8000a46:	f7ff fc99 	bl	800037c <HAL_GetTick>
 8000a4a:	1b80      	subs	r0, r0, r6
 8000a4c:	2802      	cmp	r0, #2
 8000a4e:	d9f7      	bls.n	8000a40 <HAL_RCC_OscConfig+0x400>
 8000a50:	e665      	b.n	800071e <HAL_RCC_OscConfig+0xde>
 8000a52:	6b6a      	ldr	r2, [r5, #52]	; 0x34
 8000a54:	4b53      	ldr	r3, [pc, #332]	; (8000ba4 <HAL_RCC_OscConfig+0x564>)
 8000a56:	4013      	ands	r3, r2
 8000a58:	636b      	str	r3, [r5, #52]	; 0x34
 8000a5a:	f7ff fc8f 	bl	800037c <HAL_GetTick>
 8000a5e:	1c06      	adds	r6, r0, #0
 8000a60:	6b6b      	ldr	r3, [r5, #52]	; 0x34
 8000a62:	03db      	lsls	r3, r3, #15
 8000a64:	d5b9      	bpl.n	80009da <HAL_RCC_OscConfig+0x39a>
 8000a66:	f7ff fc89 	bl	800037c <HAL_GetTick>
 8000a6a:	1b80      	subs	r0, r0, r6
 8000a6c:	2802      	cmp	r0, #2
 8000a6e:	d9f7      	bls.n	8000a60 <HAL_RCC_OscConfig+0x420>
 8000a70:	e655      	b.n	800071e <HAL_RCC_OscConfig+0xde>
 8000a72:	6a62      	ldr	r2, [r4, #36]	; 0x24
 8000a74:	2a00      	cmp	r2, #0
 8000a76:	d101      	bne.n	8000a7c <HAL_RCC_OscConfig+0x43c>
 8000a78:	2000      	movs	r0, #0
 8000a7a:	e085      	b.n	8000b88 <HAL_RCC_OscConfig+0x548>
 8000a7c:	230c      	movs	r3, #12
 8000a7e:	4d47      	ldr	r5, [pc, #284]	; (8000b9c <HAL_RCC_OscConfig+0x55c>)
 8000a80:	6869      	ldr	r1, [r5, #4]
 8000a82:	400b      	ands	r3, r1
 8000a84:	2b08      	cmp	r3, #8
 8000a86:	d100      	bne.n	8000a8a <HAL_RCC_OscConfig+0x44a>
 8000a88:	e617      	b.n	80006ba <HAL_RCC_OscConfig+0x7a>
 8000a8a:	4e47      	ldr	r6, [pc, #284]	; (8000ba8 <HAL_RCC_OscConfig+0x568>)
 8000a8c:	2a02      	cmp	r2, #2
 8000a8e:	d15e      	bne.n	8000b4e <HAL_RCC_OscConfig+0x50e>
 8000a90:	2180      	movs	r1, #128	; 0x80
 8000a92:	6aa2      	ldr	r2, [r4, #40]	; 0x28
 8000a94:	4b43      	ldr	r3, [pc, #268]	; (8000ba4 <HAL_RCC_OscConfig+0x564>)
 8000a96:	0209      	lsls	r1, r1, #8
 8000a98:	4013      	ands	r3, r2
 8000a9a:	428b      	cmp	r3, r1
 8000a9c:	d007      	beq.n	8000aae <HAL_RCC_OscConfig+0x46e>
 8000a9e:	2380      	movs	r3, #128	; 0x80
 8000aa0:	025b      	lsls	r3, r3, #9
 8000aa2:	429a      	cmp	r2, r3
 8000aa4:	d003      	beq.n	8000aae <HAL_RCC_OscConfig+0x46e>
 8000aa6:	483b      	ldr	r0, [pc, #236]	; (8000b94 <HAL_RCC_OscConfig+0x554>)
 8000aa8:	4940      	ldr	r1, [pc, #256]	; (8000bac <HAL_RCC_OscConfig+0x56c>)
 8000aaa:	f7ff fc43 	bl	8000334 <assert_failed>
 8000aae:	6ae2      	ldr	r2, [r4, #44]	; 0x2c
 8000ab0:	493f      	ldr	r1, [pc, #252]	; (8000bb0 <HAL_RCC_OscConfig+0x570>)
 8000ab2:	4b40      	ldr	r3, [pc, #256]	; (8000bb4 <HAL_RCC_OscConfig+0x574>)
 8000ab4:	4011      	ands	r1, r2
 8000ab6:	4013      	ands	r3, r2
 8000ab8:	d013      	beq.n	8000ae2 <HAL_RCC_OscConfig+0x4a2>
 8000aba:	2080      	movs	r0, #128	; 0x80
 8000abc:	0340      	lsls	r0, r0, #13
 8000abe:	4283      	cmp	r3, r0
 8000ac0:	d00f      	beq.n	8000ae2 <HAL_RCC_OscConfig+0x4a2>
 8000ac2:	2080      	movs	r0, #128	; 0x80
 8000ac4:	0380      	lsls	r0, r0, #14
 8000ac6:	4283      	cmp	r3, r0
 8000ac8:	d00b      	beq.n	8000ae2 <HAL_RCC_OscConfig+0x4a2>
 8000aca:	23c0      	movs	r3, #192	; 0xc0
 8000acc:	039b      	lsls	r3, r3, #14
 8000ace:	4299      	cmp	r1, r3
 8000ad0:	d007      	beq.n	8000ae2 <HAL_RCC_OscConfig+0x4a2>
 8000ad2:	23e0      	movs	r3, #224	; 0xe0
 8000ad4:	039b      	lsls	r3, r3, #14
 8000ad6:	429a      	cmp	r2, r3
 8000ad8:	d003      	beq.n	8000ae2 <HAL_RCC_OscConfig+0x4a2>
 8000ada:	482e      	ldr	r0, [pc, #184]	; (8000b94 <HAL_RCC_OscConfig+0x554>)
 8000adc:	4936      	ldr	r1, [pc, #216]	; (8000bb8 <HAL_RCC_OscConfig+0x578>)
 8000ade:	f7ff fc29 	bl	8000334 <assert_failed>
 8000ae2:	6b23      	ldr	r3, [r4, #48]	; 0x30
 8000ae4:	2b0f      	cmp	r3, #15
 8000ae6:	d903      	bls.n	8000af0 <HAL_RCC_OscConfig+0x4b0>
 8000ae8:	482a      	ldr	r0, [pc, #168]	; (8000b94 <HAL_RCC_OscConfig+0x554>)
 8000aea:	4934      	ldr	r1, [pc, #208]	; (8000bbc <HAL_RCC_OscConfig+0x57c>)
 8000aec:	f7ff fc22 	bl	8000334 <assert_failed>
 8000af0:	682b      	ldr	r3, [r5, #0]
 8000af2:	401e      	ands	r6, r3
 8000af4:	602e      	str	r6, [r5, #0]
 8000af6:	f7ff fc41 	bl	800037c <HAL_GetTick>
 8000afa:	1c06      	adds	r6, r0, #0
 8000afc:	682a      	ldr	r2, [r5, #0]
 8000afe:	4b27      	ldr	r3, [pc, #156]	; (8000b9c <HAL_RCC_OscConfig+0x55c>)
 8000b00:	0192      	lsls	r2, r2, #6
 8000b02:	d505      	bpl.n	8000b10 <HAL_RCC_OscConfig+0x4d0>
 8000b04:	f7ff fc3a 	bl	800037c <HAL_GetTick>
 8000b08:	1b80      	subs	r0, r0, r6
 8000b0a:	2802      	cmp	r0, #2
 8000b0c:	d9f6      	bls.n	8000afc <HAL_RCC_OscConfig+0x4bc>
 8000b0e:	e606      	b.n	800071e <HAL_RCC_OscConfig+0xde>
 8000b10:	210f      	movs	r1, #15
 8000b12:	6ada      	ldr	r2, [r3, #44]	; 0x2c
 8000b14:	438a      	bics	r2, r1
 8000b16:	6b21      	ldr	r1, [r4, #48]	; 0x30
 8000b18:	430a      	orrs	r2, r1
 8000b1a:	62da      	str	r2, [r3, #44]	; 0x2c
 8000b1c:	6ae1      	ldr	r1, [r4, #44]	; 0x2c
 8000b1e:	6aa0      	ldr	r0, [r4, #40]	; 0x28
 8000b20:	685a      	ldr	r2, [r3, #4]
 8000b22:	4308      	orrs	r0, r1
 8000b24:	4926      	ldr	r1, [pc, #152]	; (8000bc0 <HAL_RCC_OscConfig+0x580>)
 8000b26:	400a      	ands	r2, r1
 8000b28:	2180      	movs	r1, #128	; 0x80
 8000b2a:	4302      	orrs	r2, r0
 8000b2c:	605a      	str	r2, [r3, #4]
 8000b2e:	681a      	ldr	r2, [r3, #0]
 8000b30:	0449      	lsls	r1, r1, #17
 8000b32:	430a      	orrs	r2, r1
 8000b34:	601a      	str	r2, [r3, #0]
 8000b36:	f7ff fc21 	bl	800037c <HAL_GetTick>
 8000b3a:	1c04      	adds	r4, r0, #0
 8000b3c:	682b      	ldr	r3, [r5, #0]
 8000b3e:	019b      	lsls	r3, r3, #6
 8000b40:	d49a      	bmi.n	8000a78 <HAL_RCC_OscConfig+0x438>
 8000b42:	f7ff fc1b 	bl	800037c <HAL_GetTick>
 8000b46:	1b00      	subs	r0, r0, r4
 8000b48:	2802      	cmp	r0, #2
 8000b4a:	d9f7      	bls.n	8000b3c <HAL_RCC_OscConfig+0x4fc>
 8000b4c:	e5e7      	b.n	800071e <HAL_RCC_OscConfig+0xde>
 8000b4e:	682b      	ldr	r3, [r5, #0]
 8000b50:	401e      	ands	r6, r3
 8000b52:	602e      	str	r6, [r5, #0]
 8000b54:	f7ff fc12 	bl	800037c <HAL_GetTick>
 8000b58:	1c04      	adds	r4, r0, #0
 8000b5a:	682b      	ldr	r3, [r5, #0]
 8000b5c:	019b      	lsls	r3, r3, #6
 8000b5e:	d58b      	bpl.n	8000a78 <HAL_RCC_OscConfig+0x438>
 8000b60:	f7ff fc0c 	bl	800037c <HAL_GetTick>
 8000b64:	1b00      	subs	r0, r0, r4
 8000b66:	2802      	cmp	r0, #2
 8000b68:	d9f7      	bls.n	8000b5a <HAL_RCC_OscConfig+0x51a>
 8000b6a:	e5d8      	b.n	800071e <HAL_RCC_OscConfig+0xde>
 8000b6c:	f7ff fc06 	bl	800037c <HAL_GetTick>
 8000b70:	1c06      	adds	r6, r0, #0
 8000b72:	6a2b      	ldr	r3, [r5, #32]
 8000b74:	079b      	lsls	r3, r3, #30
 8000b76:	d500      	bpl.n	8000b7a <HAL_RCC_OscConfig+0x53a>
 8000b78:	e6d2      	b.n	8000920 <HAL_RCC_OscConfig+0x2e0>
 8000b7a:	f7ff fbff 	bl	800037c <HAL_GetTick>
 8000b7e:	4b03      	ldr	r3, [pc, #12]	; (8000b8c <HAL_RCC_OscConfig+0x54c>)
 8000b80:	1b80      	subs	r0, r0, r6
 8000b82:	4298      	cmp	r0, r3
 8000b84:	d9f5      	bls.n	8000b72 <HAL_RCC_OscConfig+0x532>
 8000b86:	e5ca      	b.n	800071e <HAL_RCC_OscConfig+0xde>
 8000b88:	b005      	add	sp, #20
 8000b8a:	bdf0      	pop	{r4, r5, r6, r7, pc}
 8000b8c:	00001388 	andeq	r1, r0, r8, lsl #7
 8000b90:	efffffff 	svc	0x00ffffff
 8000b94:	080012e9 	stmdaeq	r0, {r0, r3, r5, r6, r7, r9, ip}
 8000b98:	00000201 	andeq	r0, r0, r1, lsl #4
 8000b9c:	40021000 	andmi	r1, r2, r0
 8000ba0:	0000023e 	andeq	r0, r0, lr, lsr r2
 8000ba4:	fffeffff 			; <UNDEFINED> instruction: 0xfffeffff
 8000ba8:	feffffff 	mrc2	15, 7, pc, cr15, cr15, {7}
 8000bac:	0000027d 	andeq	r0, r0, sp, ror r2
 8000bb0:	fffbffff 			; <UNDEFINED> instruction: 0xfffbffff
 8000bb4:	fff3ffff 			; <UNDEFINED> instruction: 0xfff3ffff
 8000bb8:	0000027e 	andeq	r0, r0, lr, ror r2
 8000bbc:	0000027f 	andeq	r0, r0, pc, ror r2
 8000bc0:	ffc27fff 			; <UNDEFINED> instruction: 0xffc27fff

08000bc4 <HAL_RCC_GetSysClockFreq>:
 8000bc4:	b530      	push	{r4, r5, lr}
 8000bc6:	4c19      	ldr	r4, [pc, #100]	; (8000c2c <HAL_RCC_GetSysClockFreq+0x68>)
 8000bc8:	b089      	sub	sp, #36	; 0x24
 8000bca:	1c21      	adds	r1, r4, #0
 8000bcc:	2210      	movs	r2, #16
 8000bce:	4668      	mov	r0, sp
 8000bd0:	f000 faaa 	bl	8001128 <memcpy>
 8000bd4:	1c21      	adds	r1, r4, #0
 8000bd6:	ad04      	add	r5, sp, #16
 8000bd8:	3110      	adds	r1, #16
 8000bda:	2210      	movs	r2, #16
 8000bdc:	1c28      	adds	r0, r5, #0
 8000bde:	f000 faa3 	bl	8001128 <memcpy>
 8000be2:	220c      	movs	r2, #12
 8000be4:	4912      	ldr	r1, [pc, #72]	; (8000c30 <HAL_RCC_GetSysClockFreq+0x6c>)
 8000be6:	684b      	ldr	r3, [r1, #4]
 8000be8:	401a      	ands	r2, r3
 8000bea:	2a08      	cmp	r2, #8
 8000bec:	d003      	beq.n	8000bf6 <HAL_RCC_GetSysClockFreq+0x32>
 8000bee:	2a0c      	cmp	r2, #12
 8000bf0:	d119      	bne.n	8000c26 <HAL_RCC_GetSysClockFreq+0x62>
 8000bf2:	4810      	ldr	r0, [pc, #64]	; (8000c34 <HAL_RCC_GetSysClockFreq+0x70>)
 8000bf4:	e018      	b.n	8000c28 <HAL_RCC_GetSysClockFreq+0x64>
 8000bf6:	4668      	mov	r0, sp
 8000bf8:	029a      	lsls	r2, r3, #10
 8000bfa:	0f12      	lsrs	r2, r2, #28
 8000bfc:	5c84      	ldrb	r4, [r0, r2]
 8000bfe:	220f      	movs	r2, #15
 8000c00:	6ac9      	ldr	r1, [r1, #44]	; 0x2c
 8000c02:	2080      	movs	r0, #128	; 0x80
 8000c04:	400a      	ands	r2, r1
 8000c06:	5ca9      	ldrb	r1, [r5, r2]
 8000c08:	22c0      	movs	r2, #192	; 0xc0
 8000c0a:	0252      	lsls	r2, r2, #9
 8000c0c:	4013      	ands	r3, r2
 8000c0e:	0240      	lsls	r0, r0, #9
 8000c10:	4283      	cmp	r3, r0
 8000c12:	d006      	beq.n	8000c22 <HAL_RCC_GetSysClockFreq+0x5e>
 8000c14:	4293      	cmp	r3, r2
 8000c16:	d104      	bne.n	8000c22 <HAL_RCC_GetSysClockFreq+0x5e>
 8000c18:	4806      	ldr	r0, [pc, #24]	; (8000c34 <HAL_RCC_GetSysClockFreq+0x70>)
 8000c1a:	f7ff faab 	bl	8000174 <__aeabi_uidiv>
 8000c1e:	4360      	muls	r0, r4
 8000c20:	e002      	b.n	8000c28 <HAL_RCC_GetSysClockFreq+0x64>
 8000c22:	4805      	ldr	r0, [pc, #20]	; (8000c38 <HAL_RCC_GetSysClockFreq+0x74>)
 8000c24:	e7f9      	b.n	8000c1a <HAL_RCC_GetSysClockFreq+0x56>
 8000c26:	4804      	ldr	r0, [pc, #16]	; (8000c38 <HAL_RCC_GetSysClockFreq+0x74>)
 8000c28:	b009      	add	sp, #36	; 0x24
 8000c2a:	bd30      	pop	{r4, r5, pc}
 8000c2c:	080012a8 	stmdaeq	r0, {r3, r5, r7, r9, ip}
 8000c30:	40021000 	andmi	r1, r2, r0
 8000c34:	02dc6c00 	sbcseq	r6, ip, #0, 24
 8000c38:	007a1200 	rsbseq	r1, sl, r0, lsl #4

08000c3c <HAL_RCC_ClockConfig>:
 8000c3c:	b5f7      	push	{r0, r1, r2, r4, r5, r6, r7, lr}
 8000c3e:	1c04      	adds	r4, r0, #0
 8000c40:	1c0f      	adds	r7, r1, #0
 8000c42:	2800      	cmp	r0, #0
 8000c44:	d103      	bne.n	8000c4e <HAL_RCC_ClockConfig+0x12>
 8000c46:	4872      	ldr	r0, [pc, #456]	; (8000e10 <HAL_RCC_ClockConfig+0x1d4>)
 8000c48:	4972      	ldr	r1, [pc, #456]	; (8000e14 <HAL_RCC_ClockConfig+0x1d8>)
 8000c4a:	f7ff fb73 	bl	8000334 <assert_failed>
 8000c4e:	6823      	ldr	r3, [r4, #0]
 8000c50:	075b      	lsls	r3, r3, #29
 8000c52:	d103      	bne.n	8000c5c <HAL_RCC_ClockConfig+0x20>
 8000c54:	486e      	ldr	r0, [pc, #440]	; (8000e10 <HAL_RCC_ClockConfig+0x1d4>)
 8000c56:	4970      	ldr	r1, [pc, #448]	; (8000e18 <HAL_RCC_ClockConfig+0x1dc>)
 8000c58:	f7ff fb6c 	bl	8000334 <assert_failed>
 8000c5c:	2f01      	cmp	r7, #1
 8000c5e:	d904      	bls.n	8000c6a <HAL_RCC_ClockConfig+0x2e>
 8000c60:	21b7      	movs	r1, #183	; 0xb7
 8000c62:	486b      	ldr	r0, [pc, #428]	; (8000e10 <HAL_RCC_ClockConfig+0x1d4>)
 8000c64:	0089      	lsls	r1, r1, #2
 8000c66:	f7ff fb65 	bl	8000334 <assert_failed>
 8000c6a:	2301      	movs	r3, #1
 8000c6c:	4e6b      	ldr	r6, [pc, #428]	; (8000e1c <HAL_RCC_ClockConfig+0x1e0>)
 8000c6e:	6832      	ldr	r2, [r6, #0]
 8000c70:	401a      	ands	r2, r3
 8000c72:	4297      	cmp	r7, r2
 8000c74:	d803      	bhi.n	8000c7e <HAL_RCC_ClockConfig+0x42>
 8000c76:	6823      	ldr	r3, [r4, #0]
 8000c78:	079b      	lsls	r3, r3, #30
 8000c7a:	d40a      	bmi.n	8000c92 <HAL_RCC_ClockConfig+0x56>
 8000c7c:	e02a      	b.n	8000cd4 <HAL_RCC_ClockConfig+0x98>
 8000c7e:	6832      	ldr	r2, [r6, #0]
 8000c80:	439a      	bics	r2, r3
 8000c82:	433a      	orrs	r2, r7
 8000c84:	6032      	str	r2, [r6, #0]
 8000c86:	6832      	ldr	r2, [r6, #0]
 8000c88:	4013      	ands	r3, r2
 8000c8a:	42bb      	cmp	r3, r7
 8000c8c:	d0f3      	beq.n	8000c76 <HAL_RCC_ClockConfig+0x3a>
 8000c8e:	2001      	movs	r0, #1
 8000c90:	e0bc      	b.n	8000e0c <HAL_RCC_ClockConfig+0x1d0>
 8000c92:	68a3      	ldr	r3, [r4, #8]
 8000c94:	2280      	movs	r2, #128	; 0x80
 8000c96:	1c19      	adds	r1, r3, #0
 8000c98:	4391      	bics	r1, r2
 8000c9a:	d014      	beq.n	8000cc6 <HAL_RCC_ClockConfig+0x8a>
 8000c9c:	2220      	movs	r2, #32
 8000c9e:	1c19      	adds	r1, r3, #0
 8000ca0:	4391      	bics	r1, r2
 8000ca2:	2990      	cmp	r1, #144	; 0x90
 8000ca4:	d00f      	beq.n	8000cc6 <HAL_RCC_ClockConfig+0x8a>
 8000ca6:	2240      	movs	r2, #64	; 0x40
 8000ca8:	1c19      	adds	r1, r3, #0
 8000caa:	4391      	bics	r1, r2
 8000cac:	29a0      	cmp	r1, #160	; 0xa0
 8000cae:	d00a      	beq.n	8000cc6 <HAL_RCC_ClockConfig+0x8a>
 8000cb0:	2210      	movs	r2, #16
 8000cb2:	1c19      	adds	r1, r3, #0
 8000cb4:	4391      	bics	r1, r2
 8000cb6:	29c0      	cmp	r1, #192	; 0xc0
 8000cb8:	d005      	beq.n	8000cc6 <HAL_RCC_ClockConfig+0x8a>
 8000cba:	2bf0      	cmp	r3, #240	; 0xf0
 8000cbc:	d003      	beq.n	8000cc6 <HAL_RCC_ClockConfig+0x8a>
 8000cbe:	4854      	ldr	r0, [pc, #336]	; (8000e10 <HAL_RCC_ClockConfig+0x1d4>)
 8000cc0:	4957      	ldr	r1, [pc, #348]	; (8000e20 <HAL_RCC_ClockConfig+0x1e4>)
 8000cc2:	f7ff fb37 	bl	8000334 <assert_failed>
 8000cc6:	21f0      	movs	r1, #240	; 0xf0
 8000cc8:	4a56      	ldr	r2, [pc, #344]	; (8000e24 <HAL_RCC_ClockConfig+0x1e8>)
 8000cca:	6853      	ldr	r3, [r2, #4]
 8000ccc:	438b      	bics	r3, r1
 8000cce:	68a1      	ldr	r1, [r4, #8]
 8000cd0:	430b      	orrs	r3, r1
 8000cd2:	6053      	str	r3, [r2, #4]
 8000cd4:	6823      	ldr	r3, [r4, #0]
 8000cd6:	07db      	lsls	r3, r3, #31
 8000cd8:	d406      	bmi.n	8000ce8 <HAL_RCC_ClockConfig+0xac>
 8000cda:	2301      	movs	r3, #1
 8000cdc:	6831      	ldr	r1, [r6, #0]
 8000cde:	4a4f      	ldr	r2, [pc, #316]	; (8000e1c <HAL_RCC_ClockConfig+0x1e0>)
 8000ce0:	4019      	ands	r1, r3
 8000ce2:	428f      	cmp	r7, r1
 8000ce4:	d361      	bcc.n	8000daa <HAL_RCC_ClockConfig+0x16e>
 8000ce6:	e067      	b.n	8000db8 <HAL_RCC_ClockConfig+0x17c>
 8000ce8:	6863      	ldr	r3, [r4, #4]
 8000cea:	2b03      	cmp	r3, #3
 8000cec:	d903      	bls.n	8000cf6 <HAL_RCC_ClockConfig+0xba>
 8000cee:	4848      	ldr	r0, [pc, #288]	; (8000e10 <HAL_RCC_ClockConfig+0x1d4>)
 8000cf0:	494d      	ldr	r1, [pc, #308]	; (8000e28 <HAL_RCC_ClockConfig+0x1ec>)
 8000cf2:	f7ff fb1f 	bl	8000334 <assert_failed>
 8000cf6:	6863      	ldr	r3, [r4, #4]
 8000cf8:	4d4a      	ldr	r5, [pc, #296]	; (8000e24 <HAL_RCC_ClockConfig+0x1e8>)
 8000cfa:	2b01      	cmp	r3, #1
 8000cfc:	d103      	bne.n	8000d06 <HAL_RCC_ClockConfig+0xca>
 8000cfe:	682a      	ldr	r2, [r5, #0]
 8000d00:	0392      	lsls	r2, r2, #14
 8000d02:	d40f      	bmi.n	8000d24 <HAL_RCC_ClockConfig+0xe8>
 8000d04:	e7c3      	b.n	8000c8e <HAL_RCC_ClockConfig+0x52>
 8000d06:	2b02      	cmp	r3, #2
 8000d08:	d103      	bne.n	8000d12 <HAL_RCC_ClockConfig+0xd6>
 8000d0a:	682a      	ldr	r2, [r5, #0]
 8000d0c:	0192      	lsls	r2, r2, #6
 8000d0e:	d409      	bmi.n	8000d24 <HAL_RCC_ClockConfig+0xe8>
 8000d10:	e7bd      	b.n	8000c8e <HAL_RCC_ClockConfig+0x52>
 8000d12:	2b03      	cmp	r3, #3
 8000d14:	d103      	bne.n	8000d1e <HAL_RCC_ClockConfig+0xe2>
 8000d16:	6b6a      	ldr	r2, [r5, #52]	; 0x34
 8000d18:	03d2      	lsls	r2, r2, #15
 8000d1a:	d403      	bmi.n	8000d24 <HAL_RCC_ClockConfig+0xe8>
 8000d1c:	e7b7      	b.n	8000c8e <HAL_RCC_ClockConfig+0x52>
 8000d1e:	682a      	ldr	r2, [r5, #0]
 8000d20:	0792      	lsls	r2, r2, #30
 8000d22:	d5b4      	bpl.n	8000c8e <HAL_RCC_ClockConfig+0x52>
 8000d24:	2103      	movs	r1, #3
 8000d26:	686a      	ldr	r2, [r5, #4]
 8000d28:	438a      	bics	r2, r1
 8000d2a:	4313      	orrs	r3, r2
 8000d2c:	606b      	str	r3, [r5, #4]
 8000d2e:	f7ff fb25 	bl	800037c <HAL_GetTick>
 8000d32:	6863      	ldr	r3, [r4, #4]
 8000d34:	9001      	str	r0, [sp, #4]
 8000d36:	2b01      	cmp	r3, #1
 8000d38:	d10d      	bne.n	8000d56 <HAL_RCC_ClockConfig+0x11a>
 8000d3a:	230c      	movs	r3, #12
 8000d3c:	686a      	ldr	r2, [r5, #4]
 8000d3e:	4013      	ands	r3, r2
 8000d40:	2b04      	cmp	r3, #4
 8000d42:	d0ca      	beq.n	8000cda <HAL_RCC_ClockConfig+0x9e>
 8000d44:	f7ff fb1a 	bl	800037c <HAL_GetTick>
 8000d48:	9b01      	ldr	r3, [sp, #4]
 8000d4a:	1ac0      	subs	r0, r0, r3
 8000d4c:	4b37      	ldr	r3, [pc, #220]	; (8000e2c <HAL_RCC_ClockConfig+0x1f0>)
 8000d4e:	4298      	cmp	r0, r3
 8000d50:	d9f3      	bls.n	8000d3a <HAL_RCC_ClockConfig+0xfe>
 8000d52:	2003      	movs	r0, #3
 8000d54:	e05a      	b.n	8000e0c <HAL_RCC_ClockConfig+0x1d0>
 8000d56:	2b02      	cmp	r3, #2
 8000d58:	d10c      	bne.n	8000d74 <HAL_RCC_ClockConfig+0x138>
 8000d5a:	230c      	movs	r3, #12
 8000d5c:	686a      	ldr	r2, [r5, #4]
 8000d5e:	4013      	ands	r3, r2
 8000d60:	2b08      	cmp	r3, #8
 8000d62:	d0ba      	beq.n	8000cda <HAL_RCC_ClockConfig+0x9e>
 8000d64:	f7ff fb0a 	bl	800037c <HAL_GetTick>
 8000d68:	9b01      	ldr	r3, [sp, #4]
 8000d6a:	1ac0      	subs	r0, r0, r3
 8000d6c:	4b2f      	ldr	r3, [pc, #188]	; (8000e2c <HAL_RCC_ClockConfig+0x1f0>)
 8000d6e:	4298      	cmp	r0, r3
 8000d70:	d9f3      	bls.n	8000d5a <HAL_RCC_ClockConfig+0x11e>
 8000d72:	e7ee      	b.n	8000d52 <HAL_RCC_ClockConfig+0x116>
 8000d74:	2b03      	cmp	r3, #3
 8000d76:	d113      	bne.n	8000da0 <HAL_RCC_ClockConfig+0x164>
 8000d78:	230c      	movs	r3, #12
 8000d7a:	686a      	ldr	r2, [r5, #4]
 8000d7c:	4013      	ands	r3, r2
 8000d7e:	2b0c      	cmp	r3, #12
 8000d80:	d0ab      	beq.n	8000cda <HAL_RCC_ClockConfig+0x9e>
 8000d82:	f7ff fafb 	bl	800037c <HAL_GetTick>
 8000d86:	9b01      	ldr	r3, [sp, #4]
 8000d88:	1ac0      	subs	r0, r0, r3
 8000d8a:	4b28      	ldr	r3, [pc, #160]	; (8000e2c <HAL_RCC_ClockConfig+0x1f0>)
 8000d8c:	4298      	cmp	r0, r3
 8000d8e:	d9f3      	bls.n	8000d78 <HAL_RCC_ClockConfig+0x13c>
 8000d90:	e7df      	b.n	8000d52 <HAL_RCC_ClockConfig+0x116>
 8000d92:	f7ff faf3 	bl	800037c <HAL_GetTick>
 8000d96:	9b01      	ldr	r3, [sp, #4]
 8000d98:	1ac0      	subs	r0, r0, r3
 8000d9a:	4b24      	ldr	r3, [pc, #144]	; (8000e2c <HAL_RCC_ClockConfig+0x1f0>)
 8000d9c:	4298      	cmp	r0, r3
 8000d9e:	d8d8      	bhi.n	8000d52 <HAL_RCC_ClockConfig+0x116>
 8000da0:	230c      	movs	r3, #12
 8000da2:	686a      	ldr	r2, [r5, #4]
 8000da4:	421a      	tst	r2, r3
 8000da6:	d1f4      	bne.n	8000d92 <HAL_RCC_ClockConfig+0x156>
 8000da8:	e797      	b.n	8000cda <HAL_RCC_ClockConfig+0x9e>
 8000daa:	6811      	ldr	r1, [r2, #0]
 8000dac:	4399      	bics	r1, r3
 8000dae:	6011      	str	r1, [r2, #0]
 8000db0:	6812      	ldr	r2, [r2, #0]
 8000db2:	421a      	tst	r2, r3
 8000db4:	d000      	beq.n	8000db8 <HAL_RCC_ClockConfig+0x17c>
 8000db6:	e76a      	b.n	8000c8e <HAL_RCC_ClockConfig+0x52>
 8000db8:	6823      	ldr	r3, [r4, #0]
 8000dba:	4d1a      	ldr	r5, [pc, #104]	; (8000e24 <HAL_RCC_ClockConfig+0x1e8>)
 8000dbc:	075b      	lsls	r3, r3, #29
 8000dbe:	d517      	bpl.n	8000df0 <HAL_RCC_ClockConfig+0x1b4>
 8000dc0:	68e3      	ldr	r3, [r4, #12]
 8000dc2:	4a1b      	ldr	r2, [pc, #108]	; (8000e30 <HAL_RCC_ClockConfig+0x1f4>)
 8000dc4:	4213      	tst	r3, r2
 8000dc6:	d00d      	beq.n	8000de4 <HAL_RCC_ClockConfig+0x1a8>
 8000dc8:	21a0      	movs	r1, #160	; 0xa0
 8000dca:	4a1a      	ldr	r2, [pc, #104]	; (8000e34 <HAL_RCC_ClockConfig+0x1f8>)
 8000dcc:	00c9      	lsls	r1, r1, #3
 8000dce:	401a      	ands	r2, r3
 8000dd0:	428a      	cmp	r2, r1
 8000dd2:	d007      	beq.n	8000de4 <HAL_RCC_ClockConfig+0x1a8>
 8000dd4:	22c0      	movs	r2, #192	; 0xc0
 8000dd6:	00d2      	lsls	r2, r2, #3
 8000dd8:	4293      	cmp	r3, r2
 8000dda:	d003      	beq.n	8000de4 <HAL_RCC_ClockConfig+0x1a8>
 8000ddc:	480c      	ldr	r0, [pc, #48]	; (8000e10 <HAL_RCC_ClockConfig+0x1d4>)
 8000dde:	4916      	ldr	r1, [pc, #88]	; (8000e38 <HAL_RCC_ClockConfig+0x1fc>)
 8000de0:	f7ff faa8 	bl	8000334 <assert_failed>
 8000de4:	686a      	ldr	r2, [r5, #4]
 8000de6:	4b15      	ldr	r3, [pc, #84]	; (8000e3c <HAL_RCC_ClockConfig+0x200>)
 8000de8:	4013      	ands	r3, r2
 8000dea:	68e2      	ldr	r2, [r4, #12]
 8000dec:	4313      	orrs	r3, r2
 8000dee:	606b      	str	r3, [r5, #4]
 8000df0:	f7ff fee8 	bl	8000bc4 <HAL_RCC_GetSysClockFreq>
 8000df4:	686b      	ldr	r3, [r5, #4]
 8000df6:	4a12      	ldr	r2, [pc, #72]	; (8000e40 <HAL_RCC_ClockConfig+0x204>)
 8000df8:	061b      	lsls	r3, r3, #24
 8000dfa:	0f1b      	lsrs	r3, r3, #28
 8000dfc:	5cd3      	ldrb	r3, [r2, r3]
 8000dfe:	40d8      	lsrs	r0, r3
 8000e00:	4b10      	ldr	r3, [pc, #64]	; (8000e44 <HAL_RCC_ClockConfig+0x208>)
 8000e02:	6018      	str	r0, [r3, #0]
 8000e04:	2003      	movs	r0, #3
 8000e06:	f7ff fa97 	bl	8000338 <HAL_InitTick>
 8000e0a:	2000      	movs	r0, #0
 8000e0c:	bdfe      	pop	{r1, r2, r3, r4, r5, r6, r7, pc}
 8000e0e:	46c0      	nop			; (mov r8, r8)
 8000e10:	080012e9 	stmdaeq	r0, {r0, r3, r5, r6, r7, r9, ip}
 8000e14:	000002da 	ldrdeq	r0, [r0], -sl
 8000e18:	000002db 	ldrdeq	r0, [r0], -fp
 8000e1c:	40022000 	andmi	r2, r2, r0
 8000e20:	000002f3 	strdeq	r0, [r0], -r3
 8000e24:	40021000 	andmi	r1, r2, r0
 8000e28:	000002fa 	strdeq	r0, [r0], -sl
 8000e2c:	00001388 	andeq	r1, r0, r8, lsl #7
 8000e30:	fffffbff 			; <UNDEFINED> instruction: 0xfffffbff
 8000e34:	fffffdff 			; <UNDEFINED> instruction: 0xfffffdff
 8000e38:	00000363 	andeq	r0, r0, r3, ror #6
 8000e3c:	fffff8ff 			; <UNDEFINED> instruction: 0xfffff8ff
 8000e40:	08001334 	stmdaeq	r0, {r2, r4, r5, r8, r9, ip}
 8000e44:	20000010 	andcs	r0, r0, r0, lsl r0

08000e48 <HAL_RCC_GetHCLKFreq>:
 8000e48:	4b01      	ldr	r3, [pc, #4]	; (8000e50 <HAL_RCC_GetHCLKFreq+0x8>)
 8000e4a:	6818      	ldr	r0, [r3, #0]
 8000e4c:	4770      	bx	lr
 8000e4e:	46c0      	nop			; (mov r8, r8)
 8000e50:	20000010 	andcs	r0, r0, r0, lsl r0

08000e54 <HAL_NVIC_SetPriority>:
 8000e54:	b570      	push	{r4, r5, r6, lr}
 8000e56:	1c04      	adds	r4, r0, #0
 8000e58:	1e0d      	subs	r5, r1, #0
 8000e5a:	2d03      	cmp	r5, #3
 8000e5c:	d903      	bls.n	8000e66 <HAL_NVIC_SetPriority+0x12>
 8000e5e:	4818      	ldr	r0, [pc, #96]	; (8000ec0 <HAL_NVIC_SetPriority+0x6c>)
 8000e60:	219b      	movs	r1, #155	; 0x9b
 8000e62:	f7ff fa67 	bl	8000334 <assert_failed>
 8000e66:	01a9      	lsls	r1, r5, #6
 8000e68:	2c00      	cmp	r4, #0
 8000e6a:	da15      	bge.n	8000e98 <HAL_NVIC_SetPriority+0x44>
 8000e6c:	230f      	movs	r3, #15
 8000e6e:	b2e4      	uxtb	r4, r4
 8000e70:	4023      	ands	r3, r4
 8000e72:	3b08      	subs	r3, #8
 8000e74:	4a13      	ldr	r2, [pc, #76]	; (8000ec4 <HAL_NVIC_SetPriority+0x70>)
 8000e76:	089b      	lsrs	r3, r3, #2
 8000e78:	2003      	movs	r0, #3
 8000e7a:	009b      	lsls	r3, r3, #2
 8000e7c:	189b      	adds	r3, r3, r2
 8000e7e:	22ff      	movs	r2, #255	; 0xff
 8000e80:	4004      	ands	r4, r0
 8000e82:	4084      	lsls	r4, r0
 8000e84:	1c10      	adds	r0, r2, #0
 8000e86:	40a0      	lsls	r0, r4
 8000e88:	69dd      	ldr	r5, [r3, #28]
 8000e8a:	4011      	ands	r1, r2
 8000e8c:	4385      	bics	r5, r0
 8000e8e:	40a1      	lsls	r1, r4
 8000e90:	1c2a      	adds	r2, r5, #0
 8000e92:	430a      	orrs	r2, r1
 8000e94:	61da      	str	r2, [r3, #28]
 8000e96:	e012      	b.n	8000ebe <HAL_NVIC_SetPriority+0x6a>
 8000e98:	08a0      	lsrs	r0, r4, #2
 8000e9a:	4b0b      	ldr	r3, [pc, #44]	; (8000ec8 <HAL_NVIC_SetPriority+0x74>)
 8000e9c:	2203      	movs	r2, #3
 8000e9e:	0080      	lsls	r0, r0, #2
 8000ea0:	18c0      	adds	r0, r0, r3
 8000ea2:	23ff      	movs	r3, #255	; 0xff
 8000ea4:	4014      	ands	r4, r2
 8000ea6:	4094      	lsls	r4, r2
 8000ea8:	1c1a      	adds	r2, r3, #0
 8000eaa:	25c0      	movs	r5, #192	; 0xc0
 8000eac:	40a2      	lsls	r2, r4
 8000eae:	00ad      	lsls	r5, r5, #2
 8000eb0:	5946      	ldr	r6, [r0, r5]
 8000eb2:	4019      	ands	r1, r3
 8000eb4:	4396      	bics	r6, r2
 8000eb6:	40a1      	lsls	r1, r4
 8000eb8:	1c33      	adds	r3, r6, #0
 8000eba:	430b      	orrs	r3, r1
 8000ebc:	5143      	str	r3, [r0, r5]
 8000ebe:	bd70      	pop	{r4, r5, r6, pc}
 8000ec0:	08001309 	stmdaeq	r0, {r0, r3, r8, r9, ip}
 8000ec4:	e000ed00 	and	lr, r0, r0, lsl #26
 8000ec8:	e000e100 	and	lr, r0, r0, lsl #2

08000ecc <HAL_NVIC_EnableIRQ>:
 8000ecc:	b510      	push	{r4, lr}
 8000ece:	1e04      	subs	r4, r0, #0
 8000ed0:	da03      	bge.n	8000eda <HAL_NVIC_EnableIRQ+0xe>
 8000ed2:	4806      	ldr	r0, [pc, #24]	; (8000eec <HAL_NVIC_EnableIRQ+0x20>)
 8000ed4:	21ab      	movs	r1, #171	; 0xab
 8000ed6:	f7ff fa2d 	bl	8000334 <assert_failed>
 8000eda:	201f      	movs	r0, #31
 8000edc:	2301      	movs	r3, #1
 8000ede:	4020      	ands	r0, r4
 8000ee0:	4083      	lsls	r3, r0
 8000ee2:	1c18      	adds	r0, r3, #0
 8000ee4:	4b02      	ldr	r3, [pc, #8]	; (8000ef0 <HAL_NVIC_EnableIRQ+0x24>)
 8000ee6:	6018      	str	r0, [r3, #0]
 8000ee8:	bd10      	pop	{r4, pc}
 8000eea:	46c0      	nop			; (mov r8, r8)
 8000eec:	08001309 	stmdaeq	r0, {r0, r3, r8, r9, ip}
 8000ef0:	e000e100 	and	lr, r0, r0, lsl #2

08000ef4 <HAL_SYSTICK_Config>:
 8000ef4:	4a09      	ldr	r2, [pc, #36]	; (8000f1c <HAL_SYSTICK_Config+0x28>)
 8000ef6:	1e43      	subs	r3, r0, #1
 8000ef8:	2001      	movs	r0, #1
 8000efa:	4293      	cmp	r3, r2
 8000efc:	d80d      	bhi.n	8000f1a <HAL_SYSTICK_Config+0x26>
 8000efe:	20c0      	movs	r0, #192	; 0xc0
 8000f00:	4a07      	ldr	r2, [pc, #28]	; (8000f20 <HAL_SYSTICK_Config+0x2c>)
 8000f02:	4908      	ldr	r1, [pc, #32]	; (8000f24 <HAL_SYSTICK_Config+0x30>)
 8000f04:	6053      	str	r3, [r2, #4]
 8000f06:	6a0b      	ldr	r3, [r1, #32]
 8000f08:	0600      	lsls	r0, r0, #24
 8000f0a:	021b      	lsls	r3, r3, #8
 8000f0c:	0a1b      	lsrs	r3, r3, #8
 8000f0e:	4303      	orrs	r3, r0
 8000f10:	620b      	str	r3, [r1, #32]
 8000f12:	2000      	movs	r0, #0
 8000f14:	2307      	movs	r3, #7
 8000f16:	6090      	str	r0, [r2, #8]
 8000f18:	6013      	str	r3, [r2, #0]
 8000f1a:	4770      	bx	lr
 8000f1c:	00ffffff 	ldrshteq	pc, [pc], #255	; <UNPREDICTABLE>
 8000f20:	e000e010 	and	lr, r0, r0, lsl r0
 8000f24:	e000ed00 	and	lr, r0, r0, lsl #26

08000f28 <BSP_LED_Init>:
 8000f28:	b570      	push	{r4, r5, r6, lr}
 8000f2a:	b08a      	sub	sp, #40	; 0x28
 8000f2c:	2800      	cmp	r0, #0
 8000f2e:	d10a      	bne.n	8000f46 <BSP_LED_Init+0x1e>
 8000f30:	2380      	movs	r3, #128	; 0x80
 8000f32:	4a23      	ldr	r2, [pc, #140]	; (8000fc0 <BSP_LED_Init+0x98>)
 8000f34:	031b      	lsls	r3, r3, #12
 8000f36:	6951      	ldr	r1, [r2, #20]
 8000f38:	4319      	orrs	r1, r3
 8000f3a:	6151      	str	r1, [r2, #20]
 8000f3c:	6952      	ldr	r2, [r2, #20]
 8000f3e:	4013      	ands	r3, r2
 8000f40:	9301      	str	r3, [sp, #4]
 8000f42:	9b01      	ldr	r3, [sp, #4]
 8000f44:	e025      	b.n	8000f92 <BSP_LED_Init+0x6a>
 8000f46:	2801      	cmp	r0, #1
 8000f48:	d10a      	bne.n	8000f60 <BSP_LED_Init+0x38>
 8000f4a:	2380      	movs	r3, #128	; 0x80
 8000f4c:	4a1c      	ldr	r2, [pc, #112]	; (8000fc0 <BSP_LED_Init+0x98>)
 8000f4e:	031b      	lsls	r3, r3, #12
 8000f50:	6951      	ldr	r1, [r2, #20]
 8000f52:	4319      	orrs	r1, r3
 8000f54:	6151      	str	r1, [r2, #20]
 8000f56:	6952      	ldr	r2, [r2, #20]
 8000f58:	4013      	ands	r3, r2
 8000f5a:	9302      	str	r3, [sp, #8]
 8000f5c:	9b02      	ldr	r3, [sp, #8]
 8000f5e:	e018      	b.n	8000f92 <BSP_LED_Init+0x6a>
 8000f60:	2802      	cmp	r0, #2
 8000f62:	d10a      	bne.n	8000f7a <BSP_LED_Init+0x52>
 8000f64:	2380      	movs	r3, #128	; 0x80
 8000f66:	4a16      	ldr	r2, [pc, #88]	; (8000fc0 <BSP_LED_Init+0x98>)
 8000f68:	031b      	lsls	r3, r3, #12
 8000f6a:	6951      	ldr	r1, [r2, #20]
 8000f6c:	4319      	orrs	r1, r3
 8000f6e:	6151      	str	r1, [r2, #20]
 8000f70:	6952      	ldr	r2, [r2, #20]
 8000f72:	4013      	ands	r3, r2
 8000f74:	9303      	str	r3, [sp, #12]
 8000f76:	9b03      	ldr	r3, [sp, #12]
 8000f78:	e00b      	b.n	8000f92 <BSP_LED_Init+0x6a>
 8000f7a:	2803      	cmp	r0, #3
 8000f7c:	d109      	bne.n	8000f92 <BSP_LED_Init+0x6a>
 8000f7e:	2380      	movs	r3, #128	; 0x80
 8000f80:	4a0f      	ldr	r2, [pc, #60]	; (8000fc0 <BSP_LED_Init+0x98>)
 8000f82:	031b      	lsls	r3, r3, #12
 8000f84:	6951      	ldr	r1, [r2, #20]
 8000f86:	4319      	orrs	r1, r3
 8000f88:	6151      	str	r1, [r2, #20]
 8000f8a:	6952      	ldr	r2, [r2, #20]
 8000f8c:	4013      	ands	r3, r2
 8000f8e:	9304      	str	r3, [sp, #16]
 8000f90:	9b04      	ldr	r3, [sp, #16]
 8000f92:	4b0c      	ldr	r3, [pc, #48]	; (8000fc4 <BSP_LED_Init+0x9c>)
 8000f94:	0042      	lsls	r2, r0, #1
 8000f96:	5ad5      	ldrh	r5, [r2, r3]
 8000f98:	2301      	movs	r3, #1
 8000f9a:	4e0b      	ldr	r6, [pc, #44]	; (8000fc8 <BSP_LED_Init+0xa0>)
 8000f9c:	0084      	lsls	r4, r0, #2
 8000f9e:	9306      	str	r3, [sp, #24]
 8000fa0:	9307      	str	r3, [sp, #28]
 8000fa2:	59a0      	ldr	r0, [r4, r6]
 8000fa4:	3302      	adds	r3, #2
 8000fa6:	a905      	add	r1, sp, #20
 8000fa8:	9308      	str	r3, [sp, #32]
 8000faa:	9505      	str	r5, [sp, #20]
 8000fac:	f7ff f9ec 	bl	8000388 <HAL_GPIO_Init>
 8000fb0:	59a0      	ldr	r0, [r4, r6]
 8000fb2:	1c29      	adds	r1, r5, #0
 8000fb4:	2200      	movs	r2, #0
 8000fb6:	f7ff fb17 	bl	80005e8 <HAL_GPIO_WritePin>
 8000fba:	b00a      	add	sp, #40	; 0x28
 8000fbc:	bd70      	pop	{r4, r5, r6, pc}
 8000fbe:	46c0      	nop			; (mov r8, r8)
 8000fc0:	40021000 	andmi	r1, r2, r0
 8000fc4:	0800132c 	stmdaeq	r0, {r2, r3, r5, r8, r9, ip}
 8000fc8:	20000000 	andcs	r0, r0, r0

08000fcc <BSP_LED_Toggle>:
 8000fcc:	b508      	push	{r3, lr}
 8000fce:	4b04      	ldr	r3, [pc, #16]	; (8000fe0 <BSP_LED_Toggle+0x14>)
 8000fd0:	0082      	lsls	r2, r0, #2
 8000fd2:	0040      	lsls	r0, r0, #1
 8000fd4:	5ac1      	ldrh	r1, [r0, r3]
 8000fd6:	4b03      	ldr	r3, [pc, #12]	; (8000fe4 <BSP_LED_Toggle+0x18>)
 8000fd8:	58d0      	ldr	r0, [r2, r3]
 8000fda:	f7ff fb21 	bl	8000620 <HAL_GPIO_TogglePin>
 8000fde:	bd08      	pop	{r3, pc}
 8000fe0:	0800132c 	stmdaeq	r0, {r2, r3, r5, r8, r9, ip}
 8000fe4:	20000000 	andcs	r0, r0, r0

08000fe8 <SystemInit>:
 8000fe8:	2101      	movs	r1, #1
 8000fea:	4b11      	ldr	r3, [pc, #68]	; (8001030 <SystemInit+0x48>)
 8000fec:	681a      	ldr	r2, [r3, #0]
 8000fee:	430a      	orrs	r2, r1
 8000ff0:	601a      	str	r2, [r3, #0]
 8000ff2:	6858      	ldr	r0, [r3, #4]
 8000ff4:	4a0f      	ldr	r2, [pc, #60]	; (8001034 <SystemInit+0x4c>)
 8000ff6:	4002      	ands	r2, r0
 8000ff8:	605a      	str	r2, [r3, #4]
 8000ffa:	6818      	ldr	r0, [r3, #0]
 8000ffc:	4a0e      	ldr	r2, [pc, #56]	; (8001038 <SystemInit+0x50>)
 8000ffe:	4002      	ands	r2, r0
 8001000:	601a      	str	r2, [r3, #0]
 8001002:	6818      	ldr	r0, [r3, #0]
 8001004:	4a0d      	ldr	r2, [pc, #52]	; (800103c <SystemInit+0x54>)
 8001006:	4002      	ands	r2, r0
 8001008:	601a      	str	r2, [r3, #0]
 800100a:	6858      	ldr	r0, [r3, #4]
 800100c:	4a0c      	ldr	r2, [pc, #48]	; (8001040 <SystemInit+0x58>)
 800100e:	4002      	ands	r2, r0
 8001010:	200f      	movs	r0, #15
 8001012:	605a      	str	r2, [r3, #4]
 8001014:	6ada      	ldr	r2, [r3, #44]	; 0x2c
 8001016:	4382      	bics	r2, r0
 8001018:	62da      	str	r2, [r3, #44]	; 0x2c
 800101a:	6b18      	ldr	r0, [r3, #48]	; 0x30
 800101c:	4a09      	ldr	r2, [pc, #36]	; (8001044 <SystemInit+0x5c>)
 800101e:	4002      	ands	r2, r0
 8001020:	631a      	str	r2, [r3, #48]	; 0x30
 8001022:	6b5a      	ldr	r2, [r3, #52]	; 0x34
 8001024:	438a      	bics	r2, r1
 8001026:	635a      	str	r2, [r3, #52]	; 0x34
 8001028:	2200      	movs	r2, #0
 800102a:	609a      	str	r2, [r3, #8]
 800102c:	4770      	bx	lr
 800102e:	46c0      	nop			; (mov r8, r8)
 8001030:	40021000 	andmi	r1, r2, r0
 8001034:	08ffb80c 	ldmeq	pc!, {r2, r3, fp, ip, sp, pc}^	; <UNPREDICTABLE>
 8001038:	fef6ffff 	mrc2	15, 7, pc, cr6, cr15, {7}
 800103c:	fffbffff 			; <UNDEFINED> instruction: 0xfffbffff
 8001040:	ffc0ffff 			; <UNDEFINED> instruction: 0xffc0ffff
 8001044:	fffcfe2c 			; <UNDEFINED> instruction: 0xfffcfe2c

08001048 <Reset_Handler>:
 8001048:	480d      	ldr	r0, [pc, #52]	; (8001080 <LoopForever+0x2>)
 800104a:	4685      	mov	sp, r0
 800104c:	480d      	ldr	r0, [pc, #52]	; (8001084 <LoopForever+0x6>)
 800104e:	490e      	ldr	r1, [pc, #56]	; (8001088 <LoopForever+0xa>)
 8001050:	4a0e      	ldr	r2, [pc, #56]	; (800108c <LoopForever+0xe>)
 8001052:	2300      	movs	r3, #0
 8001054:	e002      	b.n	800105c <LoopCopyDataInit>

08001056 <CopyDataInit>:
 8001056:	58d4      	ldr	r4, [r2, r3]
 8001058:	50c4      	str	r4, [r0, r3]
 800105a:	3304      	adds	r3, #4

0800105c <LoopCopyDataInit>:
 800105c:	18c4      	adds	r4, r0, r3
 800105e:	428c      	cmp	r4, r1
 8001060:	d3f9      	bcc.n	8001056 <CopyDataInit>
 8001062:	4a0b      	ldr	r2, [pc, #44]	; (8001090 <LoopForever+0x12>)
 8001064:	4c0b      	ldr	r4, [pc, #44]	; (8001094 <LoopForever+0x16>)
 8001066:	2300      	movs	r3, #0
 8001068:	e001      	b.n	800106e <LoopFillZerobss>

0800106a <FillZerobss>:
 800106a:	6013      	str	r3, [r2, #0]
 800106c:	3204      	adds	r2, #4

0800106e <LoopFillZerobss>:
 800106e:	42a2      	cmp	r2, r4
 8001070:	d3fb      	bcc.n	800106a <FillZerobss>
 8001072:	f7ff ffb9 	bl	8000fe8 <SystemInit>
 8001076:	f000 f833 	bl	80010e0 <__libc_init_array>
 800107a:	f7ff f90d 	bl	8000298 <main>

0800107e <LoopForever>:
 800107e:	e7fe      	b.n	800107e <LoopForever>
 8001080:	20004000 	andcs	r4, r0, r0
 8001084:	20000000 	andcs	r0, r0, r0
 8001088:	20000440 	andcs	r0, r0, r0, asr #8
 800108c:	08001358 	stmdaeq	r0, {r3, r4, r6, r8, r9, ip}
 8001090:	20000440 	andcs	r0, r0, r0, asr #8
 8001094:	20000460 	andcs	r0, r0, r0, ror #8

08001098 <ADC1_COMP_IRQHandler>:
 8001098:	e7fe      	b.n	8001098 <ADC1_COMP_IRQHandler>
	...

0800109c <atexit>:
 800109c:	b508      	push	{r3, lr}
 800109e:	1c01      	adds	r1, r0, #0
 80010a0:	2200      	movs	r2, #0
 80010a2:	2000      	movs	r0, #0
 80010a4:	2300      	movs	r3, #0
 80010a6:	f000 f87d 	bl	80011a4 <__register_exitproc>
 80010aa:	bd08      	pop	{r3, pc}

080010ac <__libc_fini_array>:
 80010ac:	b538      	push	{r3, r4, r5, lr}
 80010ae:	4b09      	ldr	r3, [pc, #36]	; (80010d4 <__libc_fini_array+0x28>)
 80010b0:	4c09      	ldr	r4, [pc, #36]	; (80010d8 <__libc_fini_array+0x2c>)
 80010b2:	1ae4      	subs	r4, r4, r3
 80010b4:	10a4      	asrs	r4, r4, #2
 80010b6:	d009      	beq.n	80010cc <__libc_fini_array+0x20>
 80010b8:	4a08      	ldr	r2, [pc, #32]	; (80010dc <__libc_fini_array+0x30>)
 80010ba:	18a5      	adds	r5, r4, r2
 80010bc:	00ad      	lsls	r5, r5, #2
 80010be:	18ed      	adds	r5, r5, r3
 80010c0:	682b      	ldr	r3, [r5, #0]
 80010c2:	3c01      	subs	r4, #1
 80010c4:	4798      	blx	r3
 80010c6:	3d04      	subs	r5, #4
 80010c8:	2c00      	cmp	r4, #0
 80010ca:	d1f9      	bne.n	80010c0 <__libc_fini_array+0x14>
 80010cc:	f000 f8e6 	bl	800129c <_fini>
 80010d0:	bd38      	pop	{r3, r4, r5, pc}
 80010d2:	46c0      	nop			; (mov r8, r8)
 80010d4:	08001354 	stmdaeq	r0, {r2, r4, r6, r8, r9, ip}
 80010d8:	08001358 	stmdaeq	r0, {r3, r4, r6, r8, r9, ip}
 80010dc:	3fffffff 	svccc	0x00ffffff

080010e0 <__libc_init_array>:
 80010e0:	b570      	push	{r4, r5, r6, lr}
 80010e2:	4e0d      	ldr	r6, [pc, #52]	; (8001118 <__libc_init_array+0x38>)
 80010e4:	4d0d      	ldr	r5, [pc, #52]	; (800111c <__libc_init_array+0x3c>)
 80010e6:	2400      	movs	r4, #0
 80010e8:	1bad      	subs	r5, r5, r6
 80010ea:	10ad      	asrs	r5, r5, #2
 80010ec:	d005      	beq.n	80010fa <__libc_init_array+0x1a>
 80010ee:	00a3      	lsls	r3, r4, #2
 80010f0:	58f3      	ldr	r3, [r6, r3]
 80010f2:	3401      	adds	r4, #1
 80010f4:	4798      	blx	r3
 80010f6:	42a5      	cmp	r5, r4
 80010f8:	d1f9      	bne.n	80010ee <__libc_init_array+0xe>
 80010fa:	f000 f8c9 	bl	8001290 <_init>
 80010fe:	4e08      	ldr	r6, [pc, #32]	; (8001120 <__libc_init_array+0x40>)
 8001100:	4d08      	ldr	r5, [pc, #32]	; (8001124 <__libc_init_array+0x44>)
 8001102:	2400      	movs	r4, #0
 8001104:	1bad      	subs	r5, r5, r6
 8001106:	10ad      	asrs	r5, r5, #2
 8001108:	d005      	beq.n	8001116 <__libc_init_array+0x36>
 800110a:	00a3      	lsls	r3, r4, #2
 800110c:	58f3      	ldr	r3, [r6, r3]
 800110e:	3401      	adds	r4, #1
 8001110:	4798      	blx	r3
 8001112:	42a5      	cmp	r5, r4
 8001114:	d1f9      	bne.n	800110a <__libc_init_array+0x2a>
 8001116:	bd70      	pop	{r4, r5, r6, pc}
 8001118:	0800134c 	stmdaeq	r0, {r2, r3, r6, r8, r9, ip}
 800111c:	0800134c 	stmdaeq	r0, {r2, r3, r6, r8, r9, ip}
 8001120:	0800134c 	stmdaeq	r0, {r2, r3, r6, r8, r9, ip}
 8001124:	08001354 	stmdaeq	r0, {r2, r4, r6, r8, r9, ip}

08001128 <memcpy>:
 8001128:	b570      	push	{r4, r5, r6, lr}
 800112a:	2a0f      	cmp	r2, #15
 800112c:	d932      	bls.n	8001194 <memcpy+0x6c>
 800112e:	1c04      	adds	r4, r0, #0
 8001130:	430c      	orrs	r4, r1
 8001132:	1c0b      	adds	r3, r1, #0
 8001134:	07a4      	lsls	r4, r4, #30
 8001136:	d131      	bne.n	800119c <memcpy+0x74>
 8001138:	1c15      	adds	r5, r2, #0
 800113a:	1c04      	adds	r4, r0, #0
 800113c:	3d10      	subs	r5, #16
 800113e:	092d      	lsrs	r5, r5, #4
 8001140:	3501      	adds	r5, #1
 8001142:	012d      	lsls	r5, r5, #4
 8001144:	1949      	adds	r1, r1, r5
 8001146:	681e      	ldr	r6, [r3, #0]
 8001148:	6026      	str	r6, [r4, #0]
 800114a:	685e      	ldr	r6, [r3, #4]
 800114c:	6066      	str	r6, [r4, #4]
 800114e:	689e      	ldr	r6, [r3, #8]
 8001150:	60a6      	str	r6, [r4, #8]
 8001152:	68de      	ldr	r6, [r3, #12]
 8001154:	3310      	adds	r3, #16
 8001156:	60e6      	str	r6, [r4, #12]
 8001158:	3410      	adds	r4, #16
 800115a:	4299      	cmp	r1, r3
 800115c:	d1f3      	bne.n	8001146 <memcpy+0x1e>
 800115e:	230f      	movs	r3, #15
 8001160:	1945      	adds	r5, r0, r5
 8001162:	4013      	ands	r3, r2
 8001164:	2b03      	cmp	r3, #3
 8001166:	d91b      	bls.n	80011a0 <memcpy+0x78>
 8001168:	1f1c      	subs	r4, r3, #4
 800116a:	2300      	movs	r3, #0
 800116c:	08a4      	lsrs	r4, r4, #2
 800116e:	3401      	adds	r4, #1
 8001170:	00a4      	lsls	r4, r4, #2
 8001172:	58ce      	ldr	r6, [r1, r3]
 8001174:	50ee      	str	r6, [r5, r3]
 8001176:	3304      	adds	r3, #4
 8001178:	42a3      	cmp	r3, r4
 800117a:	d1fa      	bne.n	8001172 <memcpy+0x4a>
 800117c:	18ed      	adds	r5, r5, r3
 800117e:	18c9      	adds	r1, r1, r3
 8001180:	2303      	movs	r3, #3
 8001182:	401a      	ands	r2, r3
 8001184:	d005      	beq.n	8001192 <memcpy+0x6a>
 8001186:	2300      	movs	r3, #0
 8001188:	5ccc      	ldrb	r4, [r1, r3]
 800118a:	54ec      	strb	r4, [r5, r3]
 800118c:	3301      	adds	r3, #1
 800118e:	4293      	cmp	r3, r2
 8001190:	d1fa      	bne.n	8001188 <memcpy+0x60>
 8001192:	bd70      	pop	{r4, r5, r6, pc}
 8001194:	1c05      	adds	r5, r0, #0
 8001196:	2a00      	cmp	r2, #0
 8001198:	d1f5      	bne.n	8001186 <memcpy+0x5e>
 800119a:	e7fa      	b.n	8001192 <memcpy+0x6a>
 800119c:	1c05      	adds	r5, r0, #0
 800119e:	e7f2      	b.n	8001186 <memcpy+0x5e>
 80011a0:	1c1a      	adds	r2, r3, #0
 80011a2:	e7f8      	b.n	8001196 <memcpy+0x6e>

080011a4 <__register_exitproc>:
 80011a4:	b5f8      	push	{r3, r4, r5, r6, r7, lr}
 80011a6:	4644      	mov	r4, r8
 80011a8:	465f      	mov	r7, fp
 80011aa:	4656      	mov	r6, sl
 80011ac:	464d      	mov	r5, r9
 80011ae:	469b      	mov	fp, r3
 80011b0:	4b2f      	ldr	r3, [pc, #188]	; (8001270 <__register_exitproc+0xcc>)
 80011b2:	b4f0      	push	{r4, r5, r6, r7}
 80011b4:	681c      	ldr	r4, [r3, #0]
 80011b6:	23a4      	movs	r3, #164	; 0xa4
 80011b8:	005b      	lsls	r3, r3, #1
 80011ba:	1c05      	adds	r5, r0, #0
 80011bc:	58e0      	ldr	r0, [r4, r3]
 80011be:	1c0e      	adds	r6, r1, #0
 80011c0:	4690      	mov	r8, r2
 80011c2:	2800      	cmp	r0, #0
 80011c4:	d04b      	beq.n	800125e <__register_exitproc+0xba>
 80011c6:	6843      	ldr	r3, [r0, #4]
 80011c8:	2b1f      	cmp	r3, #31
 80011ca:	dc0d      	bgt.n	80011e8 <__register_exitproc+0x44>
 80011cc:	1c5c      	adds	r4, r3, #1
 80011ce:	2d00      	cmp	r5, #0
 80011d0:	d121      	bne.n	8001216 <__register_exitproc+0x72>
 80011d2:	3302      	adds	r3, #2
 80011d4:	009b      	lsls	r3, r3, #2
 80011d6:	6044      	str	r4, [r0, #4]
 80011d8:	501e      	str	r6, [r3, r0]
 80011da:	2000      	movs	r0, #0
 80011dc:	bc3c      	pop	{r2, r3, r4, r5}
 80011de:	4690      	mov	r8, r2
 80011e0:	4699      	mov	r9, r3
 80011e2:	46a2      	mov	sl, r4
 80011e4:	46ab      	mov	fp, r5
 80011e6:	bdf8      	pop	{r3, r4, r5, r6, r7, pc}
 80011e8:	4b22      	ldr	r3, [pc, #136]	; (8001274 <__register_exitproc+0xd0>)
 80011ea:	2b00      	cmp	r3, #0
 80011ec:	d03c      	beq.n	8001268 <__register_exitproc+0xc4>
 80011ee:	20c8      	movs	r0, #200	; 0xc8
 80011f0:	0040      	lsls	r0, r0, #1
 80011f2:	e000      	b.n	80011f6 <__register_exitproc+0x52>
 80011f4:	bf00      	nop
 80011f6:	2800      	cmp	r0, #0
 80011f8:	d036      	beq.n	8001268 <__register_exitproc+0xc4>
 80011fa:	22a4      	movs	r2, #164	; 0xa4
 80011fc:	2300      	movs	r3, #0
 80011fe:	0052      	lsls	r2, r2, #1
 8001200:	58a1      	ldr	r1, [r4, r2]
 8001202:	6043      	str	r3, [r0, #4]
 8001204:	6001      	str	r1, [r0, #0]
 8001206:	50a0      	str	r0, [r4, r2]
 8001208:	3240      	adds	r2, #64	; 0x40
 800120a:	5083      	str	r3, [r0, r2]
 800120c:	3204      	adds	r2, #4
 800120e:	5083      	str	r3, [r0, r2]
 8001210:	2401      	movs	r4, #1
 8001212:	2d00      	cmp	r5, #0
 8001214:	d0dd      	beq.n	80011d2 <__register_exitproc+0x2e>
 8001216:	009a      	lsls	r2, r3, #2
 8001218:	4691      	mov	r9, r2
 800121a:	4481      	add	r9, r0
 800121c:	4642      	mov	r2, r8
 800121e:	2188      	movs	r1, #136	; 0x88
 8001220:	464f      	mov	r7, r9
 8001222:	507a      	str	r2, [r7, r1]
 8001224:	22c4      	movs	r2, #196	; 0xc4
 8001226:	0052      	lsls	r2, r2, #1
 8001228:	4690      	mov	r8, r2
 800122a:	4480      	add	r8, r0
 800122c:	4642      	mov	r2, r8
 800122e:	3987      	subs	r1, #135	; 0x87
 8001230:	4099      	lsls	r1, r3
 8001232:	6812      	ldr	r2, [r2, #0]
 8001234:	468a      	mov	sl, r1
 8001236:	430a      	orrs	r2, r1
 8001238:	4694      	mov	ip, r2
 800123a:	4642      	mov	r2, r8
 800123c:	4661      	mov	r1, ip
 800123e:	6011      	str	r1, [r2, #0]
 8001240:	2284      	movs	r2, #132	; 0x84
 8001242:	4649      	mov	r1, r9
 8001244:	465f      	mov	r7, fp
 8001246:	0052      	lsls	r2, r2, #1
 8001248:	508f      	str	r7, [r1, r2]
 800124a:	2d02      	cmp	r5, #2
 800124c:	d1c1      	bne.n	80011d2 <__register_exitproc+0x2e>
 800124e:	1c02      	adds	r2, r0, #0
 8001250:	4655      	mov	r5, sl
 8001252:	328d      	adds	r2, #141	; 0x8d
 8001254:	32ff      	adds	r2, #255	; 0xff
 8001256:	6811      	ldr	r1, [r2, #0]
 8001258:	430d      	orrs	r5, r1
 800125a:	6015      	str	r5, [r2, #0]
 800125c:	e7b9      	b.n	80011d2 <__register_exitproc+0x2e>
 800125e:	1c20      	adds	r0, r4, #0
 8001260:	304d      	adds	r0, #77	; 0x4d
 8001262:	30ff      	adds	r0, #255	; 0xff
 8001264:	50e0      	str	r0, [r4, r3]
 8001266:	e7ae      	b.n	80011c6 <__register_exitproc+0x22>
 8001268:	2001      	movs	r0, #1
 800126a:	4240      	negs	r0, r0
 800126c:	e7b6      	b.n	80011dc <__register_exitproc+0x38>
 800126e:	46c0      	nop			; (mov r8, r8)
 8001270:	08001348 	stmdaeq	r0, {r3, r6, r8, r9, ip}
 8001274:	00000000 	andeq	r0, r0, r0

08001278 <register_fini>:
 8001278:	b508      	push	{r3, lr}
 800127a:	4b03      	ldr	r3, [pc, #12]	; (8001288 <register_fini+0x10>)
 800127c:	2b00      	cmp	r3, #0
 800127e:	d002      	beq.n	8001286 <register_fini+0xe>
 8001280:	4802      	ldr	r0, [pc, #8]	; (800128c <register_fini+0x14>)
 8001282:	f7ff ff0b 	bl	800109c <atexit>
 8001286:	bd08      	pop	{r3, pc}
 8001288:	00000000 	andeq	r0, r0, r0
 800128c:	080010ad 	stmdaeq	r0, {r0, r2, r3, r5, r7, ip}

08001290 <_init>:
 8001290:	b5f8      	push	{r3, r4, r5, r6, r7, lr}
 8001292:	46c0      	nop			; (mov r8, r8)
 8001294:	bcf8      	pop	{r3, r4, r5, r6, r7}
 8001296:	bc08      	pop	{r3}
 8001298:	469e      	mov	lr, r3
 800129a:	4770      	bx	lr

0800129c <_fini>:
 800129c:	b5f8      	push	{r3, r4, r5, r6, r7, lr}
 800129e:	46c0      	nop			; (mov r8, r8)
 80012a0:	bcf8      	pop	{r3, r4, r5, r6, r7}
 80012a2:	bc08      	pop	{r3}
 80012a4:	469e      	mov	lr, r3
 80012a6:	4770      	bx	lr

Disassembly of section .rodata:

080012a8 <LED_PIN-0x84>:
 80012a8:	05040302 	streq	r0, [r4, #-770]	; 0xfffffcfe
 80012ac:	09080706 	stmdbeq	r8, {r1, r2, r8, r9, sl}
 80012b0:	0d0c0b0a 	vstreq	d0, [ip, #-40]	; 0xffffffd8
 80012b4:	10100f0e 	andsne	r0, r0, lr, lsl #30
 80012b8:	04030201 	streq	r0, [r3], #-513	; 0xfffffdff
 80012bc:	08070605 	stmdaeq	r7, {r0, r2, r9, sl}
 80012c0:	0c0b0a09 	stceq	10, cr0, [fp], {9}
 80012c4:	100f0e0d 	andne	r0, pc, sp, lsl #28
 80012c8:	2f62696c 	svccs	0x0062696c
 80012cc:	2f6c6168 	svccs	0x006c6168
 80012d0:	2f637253 	svccs	0x00637253
 80012d4:	336d7473 	cmncc	sp, #1929379840	; 0x73000000
 80012d8:	78306632 	ldmdavc	r0!, {r1, r4, r5, r9, sl, sp, lr}
 80012dc:	61685f78 	smcvs	34296	; 0x85f8
 80012e0:	70675f6c 	rsbvc	r5, r7, ip, ror #30
 80012e4:	632e6f69 			; <UNDEFINED> instruction: 0x632e6f69
 80012e8:	62696c00 	rsbvs	r6, r9, #0, 24
 80012ec:	6c61682f 	stclvs	8, cr6, [r1], #-188	; 0xffffff44
 80012f0:	6372532f 	cmnvs	r2, #-1140850688	; 0xbc000000
 80012f4:	6d74732f 	ldclvs	3, cr7, [r4, #-188]!	; 0xffffff44
 80012f8:	30663233 	rsbcc	r3, r6, r3, lsr r2
 80012fc:	685f7878 	ldmdavs	pc, {r3, r4, r5, r6, fp, ip, sp, lr}^	; <UNPREDICTABLE>
 8001300:	725f6c61 	subsvc	r6, pc, #24832	; 0x6100
 8001304:	632e6363 			; <UNDEFINED> instruction: 0x632e6363
 8001308:	62696c00 	rsbvs	r6, r9, #0, 24
 800130c:	6c61682f 	stclvs	8, cr6, [r1], #-188	; 0xffffff44
 8001310:	6372532f 	cmnvs	r2, #-1140850688	; 0xbc000000
 8001314:	6d74732f 	ldclvs	3, cr7, [r4, #-188]!	; 0xffffff44
 8001318:	30663233 	rsbcc	r3, r6, r3, lsr r2
 800131c:	685f7878 	ldmdavs	pc, {r3, r4, r5, r6, fp, ip, sp, lr}^	; <UNPREDICTABLE>
 8001320:	635f6c61 	cmpvs	pc, #24832	; 0x6100
 8001324:	6574726f 	ldrbvs	r7, [r4, #-623]!	; 0xfffffd91
 8001328:	00632e78 	rsbeq	r2, r3, r8, ror lr

0800132c <LED_PIN>:
 800132c:	01000040 	tsteq	r0, r0, asr #32
 8001330:	00800200 	addeq	r0, r0, r0, lsl #4

08001334 <AHBPrescTable>:
	...
 800133c:	04030201 	streq	r0, [r3], #-513	; 0xfffffdff
 8001340:	09080706 	stmdbeq	r8, {r1, r2, r8, r9, sl}
 8001344:	00000043 	andeq	r0, r0, r3, asr #32

08001348 <_global_impure_ptr>:
 8001348:	20000018 	andcs	r0, r0, r8, lsl r0

Disassembly of section .init_array:

0800134c <__exidx_end>:
 800134c:	08001279 	stmdaeq	r0, {r0, r3, r4, r5, r6, r9, ip}

08001350 <__frame_dummy_init_array_entry>:
 8001350:	08000139 	stmdaeq	r0, {r0, r3, r4, r5, r8}

Disassembly of section .fini_array:

08001354 <__do_global_dtors_aux_fini_array_entry>:
 8001354:	0800010d 	stmdaeq	r0, {r0, r2, r3, r8}

Disassembly of section .data:

20000000 <LED_PORT>:
20000000:	48000800 	stmdami	r0, {fp}
20000004:	48000800 	stmdami	r0, {fp}
20000008:	48000800 	stmdami	r0, {fp}
2000000c:	48000800 	stmdami	r0, {fp}

20000010 <SystemCoreClock>:
20000010:	007a1200 	rsbseq	r1, sl, r0, lsl #4
20000014:	00000000 	andeq	r0, r0, r0

20000018 <impure_data>:
20000018:	00000000 	andeq	r0, r0, r0
2000001c:	20000304 	andcs	r0, r0, r4, lsl #6
20000020:	2000036c 	andcs	r0, r0, ip, ror #6
20000024:	200003d4 	ldrdcs	r0, [r0], -r4
	...
2000004c:	08001344 	stmdaeq	r0, {r2, r6, r8, r9, ip}
	...
200000c0:	00000001 	andeq	r0, r0, r1
200000c4:	00000000 	andeq	r0, r0, r0
200000c8:	abcd330e 	blge	1f34cd08 <_sidata+0x1734b9b0>
200000cc:	e66d1234 			; <UNDEFINED> instruction: 0xe66d1234
200000d0:	0005deec 	andeq	sp, r5, ip, ror #29
200000d4:	0000000b 	andeq	r0, r0, fp
	...

Disassembly of section .bss:

20000440 <_sbss>:
20000440:	00000000 	andeq	r0, r0, r0

20000444 <object.6271>:
	...

2000045c <uwTick>:
2000045c:	00000000 	andeq	r0, r0, r0

Disassembly of section ._user_heap_stack:

20000460 <._user_heap_stack>:
	...

Disassembly of section .ARM.attributes:

00000000 <.ARM.attributes>:
   0:	00002741 	andeq	r2, r0, r1, asr #14
   4:	61656100 	cmnvs	r5, r0, lsl #2
   8:	01006962 	tsteq	r0, r2, ror #18
   c:	0000001d 	andeq	r0, r0, sp, lsl r0
  10:	2d533605 	ldclcs	6, cr3, [r3, #-20]	; 0xffffffec
  14:	0c06004d 	stceq	0, cr0, [r6], {77}	; 0x4d
  18:	01094d07 	tsteq	r9, r7, lsl #26
  1c:	01140412 	tsteq	r4, r2, lsl r4
  20:	03170115 	tsteq	r7, #1073741829	; 0x40000005
  24:	011a0118 	tsteq	sl, r8, lsl r1

Disassembly of section .comment:

00000000 <.comment>:
   0:	3a434347 	bcc	10d0d24 <_Min_Stack_Size+0x10d0924>
   4:	35312820 	ldrcc	r2, [r1, #-2080]!	; 0xfffff7e0
   8:	392e343a 	stmdbcc	lr!, {r1, r3, r4, r5, sl, ip, sp}
   c:	732b332e 			; <UNDEFINED> instruction: 0x732b332e
  10:	33326e76 	teqcc	r2, #1888	; 0x760
  14:	37373131 			; <UNDEFINED> instruction: 0x37373131
  18:	2029312d 	eorcs	r3, r9, sp, lsr #2
  1c:	2e392e34 	mrccs	14, 1, r2, cr9, cr4, {1}
  20:	30322033 	eorscc	r2, r2, r3, lsr r0
  24:	35303531 	ldrcc	r3, [r0, #-1329]!	; 0xfffffacf
  28:	28203932 	stmdacs	r0!, {r1, r4, r5, r8, fp, ip, sp}
  2c:	72657270 	rsbvc	r7, r5, #112, 4
  30:	61656c65 	cmnvs	r5, r5, ror #24
  34:	00296573 	eoreq	r6, r9, r3, ror r5
  38:	3a434347 	bcc	10d0d5c <_Min_Stack_Size+0x10d095c>
  3c:	35312820 	ldrcc	r2, [r1, #-2080]!	; 0xfffff7e0
  40:	392e343a 	stmdbcc	lr!, {r1, r3, r4, r5, sl, ip, sp}
  44:	732b332e 			; <UNDEFINED> instruction: 0x732b332e
  48:	32326e76 	eorscc	r6, r2, #1888	; 0x760
  4c:	37393237 			; <UNDEFINED> instruction: 0x37393237
  50:	2029312d 	eorcs	r3, r9, sp, lsr #2
  54:	2e392e34 	mrccs	14, 1, r2, cr9, cr4, {1}
  58:	30322033 	eorscc	r2, r2, r3, lsr r0
  5c:	35303531 	ldrcc	r3, [r0, #-1329]!	; 0xfffffacf
  60:	28203932 	stmdacs	r0!, {r1, r4, r5, r8, fp, ip, sp}
  64:	72657270 	rsbvc	r7, r5, #112, 4
  68:	61656c65 	cmnvs	r5, r5, ror #24
  6c:	00296573 	eoreq	r6, r9, r3, ror r5

Disassembly of section .debug_info:

00000000 <.debug_info>:
       0:	000007ea 	andeq	r0, r0, sl, ror #15
       4:	00000004 	andeq	r0, r0, r4
       8:	01040000 	mrseq	r0, (UNDEF: 4)
       c:	0000025c 	andeq	r0, r0, ip, asr r2
      10:	00060001 	andeq	r0, r6, r1
      14:	00017a00 	andeq	r7, r1, r0, lsl #20
      18:	00001800 	andeq	r1, r0, r0, lsl #16
	...
      24:	02010200 	andeq	r0, r1, #0, 4
      28:	00010c55 	andeq	r0, r1, r5, asr ip
      2c:	04730300 	ldrbteq	r0, [r3], #-768	; 0xfffffd00
      30:	03720000 	cmneq	r2, #0
      34:	00000623 	andeq	r0, r0, r3, lsr #12
      38:	00640373 	rsbeq	r0, r4, r3, ror r3
      3c:	037b0000 	cmneq	fp, #0
      40:	000000f7 	strdeq	r0, [r0], -r7
      44:	050e037e 	streq	r0, [lr, #-894]	; 0xfffffc82
      48:	037f0000 	cmneq	pc, #0
      4c:	0000033a 	andeq	r0, r0, sl, lsr r3
      50:	014d0300 	mrseq	r0, (UNDEF: 125)
      54:	03010000 	movweq	r0, #4096	; 0x1000
      58:	00000417 	andeq	r0, r0, r7, lsl r4
      5c:	00a20302 	adceq	r0, r2, r2, lsl #6
      60:	03030000 	movweq	r0, #12288	; 0x3000
      64:	00000533 	andeq	r0, r0, r3, lsr r5
      68:	00c00304 	sbceq	r0, r0, r4, lsl #6
      6c:	03050000 	movweq	r0, #20480	; 0x5000
      70:	00000045 	andeq	r0, r0, r5, asr #32
      74:	00320306 	eorseq	r0, r2, r6, lsl #6
      78:	03070000 	movweq	r0, #28672	; 0x7000
      7c:	000004c7 	andeq	r0, r0, r7, asr #9
      80:	03000308 	movweq	r0, #776	; 0x308
      84:	03090000 	movweq	r0, #36864	; 0x9000
      88:	00000561 	andeq	r0, r0, r1, ror #10
      8c:	036e030a 	cmneq	lr, #671088640	; 0x28000000
      90:	030b0000 	movweq	r0, #45056	; 0xb000
      94:	000003da 	ldrdeq	r0, [r0], -sl
      98:	0399030c 	orrseq	r0, r9, #12, 6	; 0x30000000
      9c:	030d0000 	movweq	r0, #53248	; 0xd000
      a0:	00000490 	muleq	r0, r0, r4
      a4:	0540030e 	strbeq	r0, [r0, #-782]	; 0xfffffcf2
      a8:	030f0000 	movweq	r0, #61440	; 0xf000
      ac:	000002f0 	strdeq	r0, [r0], -r0	; <UNPREDICTABLE>
      b0:	05810310 	streq	r0, [r1, #784]	; 0x310
      b4:	03110000 	tsteq	r1, #0
      b8:	000005e4 	andeq	r0, r0, r4, ror #11
      bc:	05560312 	ldrbeq	r0, [r6, #-786]	; 0xfffffcee
      c0:	03130000 	tsteq	r3, #0
      c4:	0000031a 	andeq	r0, r0, sl, lsl r3
      c8:	00890314 	addeq	r0, r9, r4, lsl r3
      cc:	03150000 	tsteq	r5, #0
      d0:	000004bc 			; <UNDEFINED> instruction: 0x000004bc
      d4:	00ed0316 	rsceq	r0, sp, r6, lsl r3
      d8:	03170000 	tsteq	r7, #0
      dc:	00000529 	andeq	r0, r0, r9, lsr #10
      e0:	015d0318 	cmpeq	sp, r8, lsl r3
      e4:	03190000 	tsteq	r9, #0
      e8:	000005da 	ldrdeq	r0, [r0], -sl
      ec:	045e031a 	ldrbeq	r0, [lr], #-794	; 0xfffffce6
      f0:	031b0000 	tsteq	fp, #0
      f4:	00000234 	andeq	r0, r0, r4, lsr r2
      f8:	051b031c 	ldreq	r0, [fp, #-796]	; 0xfffffce4
      fc:	031d0000 	tsteq	sp, #0
     100:	0000043d 	andeq	r0, r0, sp, lsr r4
     104:	03c5031e 	biceq	r0, r5, #2013265920	; 0x78000000
     108:	001f0000 	andseq	r0, pc, r0
     10c:	00021204 	andeq	r1, r2, r4, lsl #4
     110:	257e0200 	ldrbcs	r0, [lr, #-512]!	; 0xfffffe00
     114:	05000000 	streq	r0, [r0, #-0]
     118:	05ab0601 	streq	r0, [fp, #1537]!	; 0x601
     11c:	d0040000 	andle	r0, r4, r0
     120:	03000004 	movweq	r0, #4
     124:	0001291d 	andeq	r2, r1, sp, lsl r9
     128:	08010500 	stmdaeq	r1, {r8, sl}
     12c:	000005a9 	andeq	r0, r0, r9, lsr #11
     130:	33050205 	movwcc	r0, #20997	; 0x5205
     134:	04000004 	streq	r0, [r0], #-4
     138:	000001c8 	andeq	r0, r0, r8, asr #3
     13c:	01422b03 	cmpeq	r2, r3, lsl #22
     140:	02050000 	andeq	r0, r5, #0
     144:	00060b07 	andeq	r0, r6, r7, lsl #22
     148:	05040500 	streq	r0, [r4, #-1280]	; 0xfffffb00
     14c:	00000331 	andeq	r0, r0, r1, lsr r3
     150:	0005b704 	andeq	fp, r5, r4, lsl #14
     154:	5b410300 	blpl	1040d5c <_Min_Stack_Size+0x104095c>
     158:	05000001 	streq	r0, [r0, #-1]
     15c:	01b60704 			; <UNDEFINED> instruction: 0x01b60704
     160:	08050000 	stmdaeq	r5, {}	; <UNPREDICTABLE>
     164:	00032c05 	andeq	r2, r3, r5, lsl #24
     168:	07080500 	streq	r0, [r8, -r0, lsl #10]
     16c:	000001b1 			; <UNDEFINED> instruction: 0x000001b1
     170:	69050406 	stmdbvs	r5, {r1, r2, sl}
     174:	0500746e 	streq	r7, [r0, #-1134]	; 0xfffffb92
     178:	01bb0704 			; <UNDEFINED> instruction: 0x01bb0704
     17c:	d2040000 	andle	r0, r4, #0
     180:	04000004 	streq	r0, [r0], #-4
     184:	00011e14 	andeq	r1, r1, r4, lsl lr
     188:	01ca0400 	biceq	r0, sl, r0, lsl #8
     18c:	1a040000 	bne	100194 <_Min_Stack_Size+0xffd94>
     190:	00000137 	andeq	r0, r0, r7, lsr r1
     194:	0005b904 	andeq	fp, r5, r4, lsl #18
     198:	50200400 	eorpl	r0, r0, r0, lsl #8
     19c:	05000001 	streq	r0, [r0, #-1]
     1a0:	04200704 	strteq	r0, [r0], #-1796	; 0xfffff8fc
     1a4:	94070000 	strls	r0, [r7], #-0
     1a8:	08000001 	stmdaeq	r0, {r0}
     1ac:	00000194 	muleq	r0, r4, r1
     1b0:	000001bb 			; <UNDEFINED> instruction: 0x000001bb
     1b4:	00019f09 	andeq	r9, r1, r9, lsl #30
     1b8:	0a000100 	beq	5c0 <_Min_Stack_Size+0x1c0>
     1bc:	0184022c 	orreq	r0, r4, ip, lsr #4
     1c0:	00000247 	andeq	r0, r0, r7, asr #4
     1c4:	0001ed0b 	andeq	lr, r1, fp, lsl #26
     1c8:	01860200 	orreq	r0, r6, r0, lsl #4
     1cc:	000001a6 	andeq	r0, r0, r6, lsr #3
     1d0:	04b00b00 	ldrteq	r0, [r0], #2816	; 0xb00
     1d4:	87020000 	strhi	r0, [r2, -r0]
     1d8:	0001a601 	andeq	sl, r1, r1, lsl #12
     1dc:	030b0400 	movweq	r0, #46080	; 0xb400
     1e0:	02000004 	andeq	r0, r0, #4
     1e4:	01a60188 			; <UNDEFINED> instruction: 0x01a60188
     1e8:	0b080000 	bleq	2001f0 <_Min_Stack_Size+0x1ffdf0>
     1ec:	000002da 	ldrdeq	r0, [r0], -sl
     1f0:	a6018902 	strge	r8, [r1], -r2, lsl #18
     1f4:	0c000001 	stceq	0, cr0, [r0], {1}
     1f8:	5244490c 	subpl	r4, r4, #12, 18	; 0x30000
     1fc:	018a0200 	orreq	r0, sl, r0, lsl #4
     200:	000001a6 	andeq	r0, r0, r6, lsr #3
     204:	444f0c10 	strbmi	r0, [pc], #-3088	; 20c <_Min_Heap_Size+0xc>
     208:	8b020052 	blhi	80358 <_Min_Stack_Size+0x7ff58>
     20c:	0001a601 	andeq	sl, r1, r1, lsl #12
     210:	400b1400 	andmi	r1, fp, r0, lsl #8
     214:	02000000 	andeq	r0, r0, #0
     218:	01a6018c 			; <UNDEFINED> instruction: 0x01a6018c
     21c:	0b180000 	bleq	600224 <_Min_Stack_Size+0x5ffe24>
     220:	0000067f 	andeq	r0, r0, pc, ror r6
     224:	a6018d02 	strge	r8, [r1], -r2, lsl #26
     228:	1c000001 	stcne	0, cr0, [r0], {1}
     22c:	5246410c 	subpl	r4, r6, #12, 2
     230:	018e0200 	orreq	r0, lr, r0, lsl #4
     234:	00000247 	andeq	r0, r0, r7, asr #4
     238:	52420c20 	subpl	r0, r2, #32, 24	; 0x2000
     23c:	8f020052 	svchi	0x00020052
     240:	0001a601 	andeq	sl, r1, r1, lsl #12
     244:	07002800 	streq	r2, [r0, -r0, lsl #16]
     248:	000001ab 	andeq	r0, r0, fp, lsr #3
     24c:	0004e80d 	andeq	lr, r4, sp, lsl #16
     250:	01900200 	orrseq	r0, r0, r0, lsl #4
     254:	000001bb 			; <UNDEFINED> instruction: 0x000001bb
     258:	cc02380a 	stcgt	8, cr3, [r2], {10}
     25c:	00031701 	andeq	r1, r3, r1, lsl #14
     260:	52430c00 	subpl	r0, r3, #0, 24
     264:	01ce0200 	biceq	r0, lr, r0, lsl #4
     268:	000001a6 	andeq	r0, r0, r6, lsr #3
     26c:	04b70b00 	ldrteq	r0, [r7], #2816	; 0xb00
     270:	cf020000 	svcgt	0x00020000
     274:	0001a601 	andeq	sl, r1, r1, lsl #12
     278:	430c0400 	movwmi	r0, #50176	; 0xc400
     27c:	02005249 	andeq	r5, r0, #-1879048188	; 0x90000004
     280:	01a601d0 	ldrdeq	r0, [r6, r0]!	; <UNPREDICTABLE>
     284:	0b080000 	bleq	20028c <_Min_Stack_Size+0x1ffe8c>
     288:	00000052 	andeq	r0, r0, r2, asr r0
     28c:	a601d102 	strge	sp, [r1], -r2, lsl #2
     290:	0c000001 	stceq	0, cr0, [r0], {1}
     294:	0002e00b 	andeq	lr, r2, fp
     298:	01d20200 	bicseq	r0, r2, r0, lsl #4
     29c:	000001a6 	andeq	r0, r0, r6, lsr #3
     2a0:	03130b10 	tsteq	r3, #16, 22	; 0x4000
     2a4:	d3020000 	movwle	r0, #8192	; 0x2000
     2a8:	0001a601 	andeq	sl, r1, r1, lsl #12
     2ac:	e90b1400 	stmdb	fp, {sl, ip}
     2b0:	02000003 	andeq	r0, r0, #3
     2b4:	01a601d4 	ldrdeq	r0, [r6, r4]!
     2b8:	0b180000 	bleq	6002c0 <_Min_Stack_Size+0x5ffec0>
     2bc:	0000002a 	andeq	r0, r0, sl, lsr #32
     2c0:	a601d502 	strge	sp, [r1], -r2, lsl #10
     2c4:	1c000001 	stcne	0, cr0, [r0], {1}
     2c8:	00009d0b 	andeq	r9, r0, fp, lsl #26
     2cc:	01d60200 	bicseq	r0, r6, r0, lsl #4
     2d0:	000001a6 	andeq	r0, r0, r6, lsr #3
     2d4:	53430c20 	movtpl	r0, #15392	; 0x3c20
     2d8:	d7020052 	smlsdle	r2, r2, r0, r0
     2dc:	0001a601 	andeq	sl, r1, r1, lsl #12
     2e0:	360b2400 	strcc	r2, [fp], -r0, lsl #8
     2e4:	02000001 	andeq	r0, r0, #1
     2e8:	01a601d8 	ldrdeq	r0, [r6, r8]!
     2ec:	0b280000 	bleq	a002f4 <_Min_Stack_Size+0x9ffef4>
     2f0:	000003ce 	andeq	r0, r0, lr, asr #7
     2f4:	a601d902 	strge	sp, [r1], -r2, lsl #18
     2f8:	2c000001 	stccs	0, cr0, [r0], {1}
     2fc:	0003d40b 	andeq	sp, r3, fp, lsl #8
     300:	01da0200 	bicseq	r0, sl, r0, lsl #4
     304:	000001a6 	andeq	r0, r0, r6, lsr #3
     308:	52430c30 	subpl	r0, r3, #48, 24	; 0x3000
     30c:	db020032 	blle	803dc <_Min_Stack_Size+0x7ffdc>
     310:	0001a601 	andeq	sl, r1, r1, lsl #12
     314:	0d003400 	cfstrseq	mvf3, [r0, #-0]
     318:	00000247 	andeq	r0, r0, r7, asr #4
     31c:	5801dc02 	stmdapl	r1, {r1, sl, fp, ip, lr, pc}
     320:	05000002 	streq	r0, [r0, #-2]
     324:	040b0408 	streq	r0, [fp], #-1032	; 0xfffffbf8
     328:	040e0000 	streq	r0, [lr], #-0
     32c:	00000330 	andeq	r0, r0, r0, lsr r3
     330:	b2080105 	andlt	r0, r8, #1073741825	; 0x40000001
     334:	02000005 	andeq	r0, r0, #5
     338:	583a0501 	ldmdapl	sl!, {r0, r8, sl}
     33c:	03000003 	movweq	r0, #3
     340:	000001f3 	strdeq	r0, [r0], -r3
     344:	01a70300 			; <UNDEFINED> instruction: 0x01a70300
     348:	03010000 	movweq	r0, #4096	; 0x1000
     34c:	00000094 	muleq	r0, r4, r0
     350:	01100302 	tsteq	r0, r2, lsl #6
     354:	00030000 	andeq	r0, r3, r0
     358:	0003f104 	andeq	pc, r3, r4, lsl #2
     35c:	373f0500 	ldrcc	r0, [pc, -r0, lsl #10]!
     360:	0f000003 	svceq	0x00000003
     364:	9cd30610 	ldclls	6, cr0, [r3], {16}
     368:	10000003 	andne	r0, r0, r3
     36c:	0000005b 	andeq	r0, r0, fp, asr r0
     370:	0194d506 	orrseq	sp, r4, r6, lsl #10
     374:	10000000 	andne	r0, r0, r0
     378:	000005ee 	andeq	r0, r0, lr, ror #11
     37c:	0194d806 	orrseq	sp, r4, r6, lsl #16
     380:	10040000 	andne	r0, r4, r0
     384:	00000325 	andeq	r0, r0, r5, lsr #6
     388:	0194db06 	orrseq	sp, r4, r6, lsl #22
     38c:	10080000 	andne	r0, r8, r0
     390:	000002e9 	andeq	r0, r0, r9, ror #5
     394:	0194de06 	orrseq	sp, r4, r6, lsl #28
     398:	000c0000 	andeq	r0, ip, r0
     39c:	00021c04 	andeq	r1, r2, r4, lsl #24
     3a0:	63e10600 	mvnvs	r0, #0, 12
     3a4:	0f000003 	svceq	0x00000003
     3a8:	2ae60634 	bcs	ff981c80 <_estack+0xdf97dc80>
     3ac:	10000004 	andne	r0, r0, r4
     3b0:	0000006d 	andeq	r0, r0, sp, rrx
     3b4:	0194e806 	orrseq	lr, r4, r6, lsl #16
     3b8:	10000000 	andne	r0, r0, r0
     3bc:	000005c7 	andeq	r0, r0, r7, asr #11
     3c0:	0194eb06 	orrseq	lr, r4, r6, lsl #22
     3c4:	10040000 	andne	r0, r4, r0
     3c8:	00000253 	andeq	r0, r0, r3, asr r2
     3cc:	0194ee06 	orrseq	lr, r4, r6, lsl #28
     3d0:	10080000 	andne	r0, r8, r0
     3d4:	00000209 	andeq	r0, r0, r9, lsl #4
     3d8:	0194f106 	orrseq	pc, r4, r6, lsl #2
     3dc:	100c0000 	andne	r0, ip, r0
     3e0:	00000000 	andeq	r0, r0, r0
     3e4:	0194f406 	orrseq	pc, r4, r6, lsl #8
     3e8:	10100000 	andsne	r0, r0, r0
     3ec:	00000503 	andeq	r0, r0, r3, lsl #10
     3f0:	0194f706 	orrseq	pc, r4, r6, lsl #14
     3f4:	10140000 	andsne	r0, r4, r0
     3f8:	00000014 	andeq	r0, r0, r4, lsl r0
     3fc:	0194fa06 	orrseq	pc, r4, r6, lsl #20
     400:	10180000 	andsne	r0, r8, r0
     404:	0000046a 	andeq	r0, r0, sl, ror #8
     408:	0194fd06 	orrseq	pc, r4, r6, lsl #26
     40c:	0b1c0000 	bleq	700414 <_Min_Stack_Size+0x700014>
     410:	00000576 	andeq	r0, r0, r6, ror r5
     414:	94010106 	strls	r0, [r1], #-262	; 0xfffffefa
     418:	20000001 	andcs	r0, r0, r1
     41c:	4c4c500c 	mcrrmi	0, 0, r5, ip, cr12
     420:	01050600 	tsteq	r5, r0, lsl #12
     424:	0000039c 	muleq	r0, ip, r3
     428:	4d0d0024 	stcmi	0, cr0, [sp, #-144]	; 0xffffff70
     42c:	06000003 	streq	r0, [r0], -r3
     430:	03a70107 			; <UNDEFINED> instruction: 0x03a70107
     434:	100a0000 	andne	r0, sl, r0
     438:	74010c06 	strvc	r0, [r1], #-3078	; 0xfffff3fa
     43c:	0b000004 	bleq	454 <_Min_Stack_Size+0x54>
     440:	0000066a 	andeq	r0, r0, sl, ror #12
     444:	94010e06 	strls	r0, [r1], #-3590	; 0xfffff1fa
     448:	00000001 	andeq	r0, r0, r1
     44c:	00007c0b 	andeq	r7, r0, fp, lsl #24
     450:	01110600 	tsteq	r1, r0, lsl #12
     454:	00000194 	muleq	r0, r4, r1
     458:	04da0b04 	ldrbeq	r0, [sl], #2820	; 0xb04
     45c:	14060000 	strne	r0, [r6], #-0
     460:	00019401 	andeq	r9, r1, r1, lsl #8
     464:	3e0b0800 	cdpcc	8, 0, cr0, cr11, cr0, {0}
     468:	06000001 	streq	r0, [r0], -r1
     46c:	01940117 	orrseq	r0, r4, r7, lsl r1
     470:	000c0000 	andeq	r0, ip, r0
     474:	0000ad0d 	andeq	sl, r0, sp, lsl #26
     478:	011a0600 	tsteq	sl, r0, lsl #12
     47c:	00000436 	andeq	r0, r0, r6, lsr r4
     480:	3f07140f 	svccc	0x0007140f
     484:	000004c5 	andeq	r0, r0, r5, asr #9
     488:	6e695011 	mcrvs	0, 3, r5, cr9, cr1, {0}
     48c:	94410700 	strbls	r0, [r1], #-1792	; 0xfffff900
     490:	00000001 	andeq	r0, r0, r1
     494:	0007b910 	andeq	fp, r7, r0, lsl r9
     498:	94440700 	strbls	r0, [r4], #-1792	; 0xfffff900
     49c:	04000001 	streq	r0, [r0], #-1
     4a0:	00022f10 	andeq	r2, r2, r0, lsl pc
     4a4:	94470700 	strbls	r0, [r7], #-1792	; 0xfffff900
     4a8:	08000001 	stmdaeq	r0, {r0}
     4ac:	0002fa10 	andeq	pc, r2, r0, lsl sl	; <UNPREDICTABLE>
     4b0:	944a0700 	strbls	r0, [sl], #-1792	; 0xfffff900
     4b4:	0c000001 	stceq	0, cr0, [r0], {1}
     4b8:	00042910 	andeq	r2, r4, r0, lsl r9
     4bc:	944d0700 	strbls	r0, [sp], #-1792	; 0xfffff900
     4c0:	10000001 	andne	r0, r0, r1
     4c4:	058f0400 	streq	r0, [pc, #1024]	; 8cc <_Min_Stack_Size+0x4cc>
     4c8:	4f070000 	svcmi	0x00070000
     4cc:	00000480 	andeq	r0, r0, r0, lsl #9
     4d0:	44080102 	strmi	r0, [r8], #-258	; 0xfffffefe
     4d4:	00000509 	andeq	r0, r0, r9, lsl #10
     4d8:	0001fa03 	andeq	pc, r1, r3, lsl #20
     4dc:	ff030000 			; <UNDEFINED> instruction: 0xff030000
     4e0:	01000001 	tsteq	r0, r1
     4e4:	00020403 	andeq	r0, r2, r3, lsl #8
     4e8:	31030200 	mrscc	r0, R11_usr
     4ec:	03000001 	movweq	r0, #1
     4f0:	0005f803 	andeq	pc, r5, r3, lsl #16
     4f4:	74030000 	strvc	r0, [r3], #-0
     4f8:	01000006 	tsteq	r0, r6
     4fc:	0005d003 	andeq	sp, r5, r3
     500:	a0030200 	andge	r0, r3, r0, lsl #4
     504:	03000005 	movweq	r0, #5
     508:	054a0400 	strbeq	r0, [sl, #-1024]	; 0xfffffc00
     50c:	4e080000 	cdpmi	0, 0, cr0, cr8, cr0, {0}
     510:	000004d0 	ldrdeq	r0, [r0], -r0	; <UNPREDICTABLE>
     514:	00049d12 	andeq	r9, r4, r2, lsl sp
     518:	016b0100 	cmneq	fp, r0, lsl #2
     51c:	00000537 	andeq	r0, r0, r7, lsr r5
     520:	0000db13 	andeq	sp, r0, r3, lsl fp
     524:	746d0100 	strbtvc	r0, [sp], #-256	; 0xffffff00
     528:	13000004 	movwne	r0, #4
     52c:	00000632 	andeq	r0, r0, r2, lsr r6
     530:	042a6e01 	strteq	r6, [sl], #-3585	; 0xfffff1ff
     534:	14000000 	strne	r0, [r0], #-0
     538:	000000cd 	andeq	r0, r0, sp, asr #1
     53c:	12018c01 	andne	r8, r1, #256	; 0x100
     540:	000001d3 	ldrdeq	r0, [r0], -r3
     544:	64019a01 	strvs	r9, [r1], #-2561	; 0xfffff5ff
     548:	13000005 	movwne	r0, #5
     54c:	000003b2 			; <UNDEFINED> instruction: 0x000003b2
     550:	04c59c01 	strbeq	r9, [r5], #3073	; 0xc01
     554:	13150000 	tstne	r5, #0
     558:	00000240 	andeq	r0, r0, r0, asr #4
     55c:	01a69f01 			; <UNDEFINED> instruction: 0x01a69f01
     560:	00000000 	andeq	r0, r0, r0
     564:	00061e16 	andeq	r1, r6, r6, lsl lr
     568:	703f0100 	eorsvc	r0, pc, r0, lsl #2
     56c:	98000001 	stmdals	r0, {r0}
     570:	9c080002 	stcls	0, cr0, [r8], {2}
     574:	01000000 	mrseq	r0, (UNDEF: 0)
     578:	0006d19c 	muleq	r6, ip, r1
     57c:	05141700 	ldreq	r1, [r4, #-1792]	; 0xfffff900
     580:	02ac0000 	adceq	r0, ip, #0
     584:	00480800 	subeq	r0, r8, r0, lsl #16
     588:	51010000 	mrspl	r0, (UNDEF: 1)
     58c:	00000621 	andeq	r0, r0, r1, lsr #12
     590:	0002ac18 	andeq	sl, r2, r8, lsl ip
     594:	00004808 	andeq	r4, r0, r8, lsl #16
     598:	05201900 	streq	r1, [r0, #-2304]!	; 0xfffff700
     59c:	91030000 	mrsls	r0, (UNDEF: 3)
     5a0:	2b197fac 	blcs	660458 <_Min_Stack_Size+0x660058>
     5a4:	03000005 	movweq	r0, #5
     5a8:	177fbc91 			; <UNDEFINED> instruction: 0x177fbc91
     5ac:	00000537 	andeq	r0, r0, r7, lsr r5
     5b0:	080002ce 	stmdaeq	r0, {r1, r2, r3, r6, r7, r9}
     5b4:	00000008 	andeq	r0, r0, r8
     5b8:	05cf7901 	strbeq	r7, [pc, #2305]	; ec1 <_Min_Stack_Size+0xac1>
     5bc:	d41a0000 	ldrle	r0, [sl], #-0
     5c0:	35080002 	strcc	r0, [r8, #-2]
     5c4:	1b000007 	blne	5e8 <_Min_Stack_Size+0x1e8>
     5c8:	74025001 	strvc	r5, [r2], #-1
     5cc:	17000000 	strne	r0, [r0, -r0]
     5d0:	00000537 	andeq	r0, r0, r7, lsr r5
     5d4:	080002ec 	stmdaeq	r0, {r2, r3, r5, r6, r7, r9}
     5d8:	00000008 	andeq	r0, r0, r8
     5dc:	05f38301 	ldrbeq	r8, [r3, #769]!	; 0x301
     5e0:	f21a0000 	vhadd.s16	d0, d10, d0
     5e4:	35080002 	strcc	r0, [r8, #-2]
     5e8:	1b000007 	blne	60c <_Min_Stack_Size+0x20c>
     5ec:	74025001 	strvc	r5, [r2], #-1
     5f0:	1c000000 	stcne	0, cr0, [r0], {-0}
     5f4:	080002ca 	stmdaeq	r0, {r1, r3, r6, r7, r9}
     5f8:	00000747 	andeq	r0, r0, r7, asr #14
     5fc:	00000608 	andeq	r0, r0, r8, lsl #12
     600:	0350011b 	cmpeq	r0, #-1073741818	; 0xc0000006
     604:	007fbc91 			; <UNDEFINED> instruction: 0x007fbc91
     608:	0002e81a 	andeq	lr, r2, sl, lsl r8
     60c:	00076308 	andeq	r6, r7, r8, lsl #6
     610:	51011b00 	tstpl	r1, r0, lsl #22
     614:	1b007402 	blne	1d624 <_Min_Stack_Size+0x1d224>
     618:	91035001 	tstls	r3, r1
     61c:	00007fac 	andeq	r7, r0, ip, lsr #31
     620:	053f1700 	ldreq	r1, [pc, #-1792]!	; ffffff28 <_estack+0xdfffbf28>
     624:	02f40000 	rscseq	r0, r4, #0
     628:	00360800 	eorseq	r0, r6, r0, lsl #16
     62c:	54010000 	strpl	r0, [r1], #-0
     630:	000006a5 	andeq	r0, r0, r5, lsr #13
     634:	0002f418 	andeq	pc, r2, r8, lsl r4	; <UNPREDICTABLE>
     638:	00003608 	andeq	r3, r0, r8, lsl #12
     63c:	054b1900 	strbeq	r1, [fp, #-2304]	; 0xfffff700
     640:	91030000 	mrsls	r0, (UNDEF: 3)
     644:	001d7fbc 			; <UNDEFINED> instruction: 0x001d7fbc
     648:	59000000 	stmdbpl	r0, {}	; <UNPREDICTABLE>
     64c:	19000006 	stmdbne	r0, {r1, r2}
     650:	00000557 	andeq	r0, r0, r7, asr r5
     654:	7fac9103 	svcvc	0x00ac9103
     658:	031a1c00 	tsteq	sl, #0, 24
     65c:	07840800 	streq	r0, [r4, r0, lsl #16]
     660:	06750000 	ldrbteq	r0, [r5], -r0
     664:	011b0000 	tsteq	fp, r0
     668:	bc910351 	ldclt	3, cr0, [r1], {81}	; 0x51
     66c:	50011b7f 	andpl	r1, r1, pc, ror fp
     670:	244a4203 	strbcs	r4, [sl], #-515	; 0xfffffdfd
     674:	03241c00 			; <UNDEFINED> instruction: 0x03241c00
     678:	07a70800 	streq	r0, [r7, r0, lsl #16]!
     67c:	06940000 	ldreq	r0, [r4], r0
     680:	011b0000 	tsteq	fp, r0
     684:	00750252 	rsbseq	r0, r5, r2, asr r2
     688:	0251011b 	subseq	r0, r1, #-1073741818	; 0xc0000006
     68c:	011b0076 	tsteq	fp, r6, ror r0
     690:	00350150 	eorseq	r0, r5, r0, asr r1
     694:	00032a1a 	andeq	r2, r3, sl, lsl sl
     698:	0007c208 	andeq	ip, r7, r8, lsl #4
     69c:	50011b00 	andpl	r1, r1, r0, lsl #22
     6a0:	00003501 	andeq	r3, r0, r1, lsl #10
     6a4:	02a01e00 	adceq	r1, r0, #0, 28
     6a8:	07d30800 	ldrbeq	r0, [r3, r0, lsl #16]
     6ac:	a61c0000 	ldrge	r0, [ip], -r0
     6b0:	df080002 	svcle	0x00080002
     6b4:	c1000007 	tstgt	r0, r7
     6b8:	1b000006 	blne	6d8 <_Min_Stack_Size+0x2d8>
     6bc:	30015001 	andcc	r5, r1, r1
     6c0:	02ac1a00 	adceq	r1, ip, #0, 20
     6c4:	07df0800 	ldrbeq	r0, [pc, r0, lsl #16]
     6c8:	011b0000 	tsteq	fp, r0
     6cc:	00310150 	eorseq	r0, r1, r0, asr r1
     6d0:	06441f00 	strbeq	r1, [r4], -r0, lsl #30
     6d4:	b1010000 	mrslt	r0, (UNDEF: 1)
     6d8:	00000000 	andeq	r0, r0, r0
     6dc:	0000000e 	andeq	r0, r0, lr
     6e0:	07059c01 	streq	r9, [r5, -r1, lsl #24]
     6e4:	87200000 	strhi	r0, [r0, -r0]!
     6e8:	01000004 	tsteq	r0, r4
     6ec:	000189b1 			; <UNDEFINED> instruction: 0x000189b1
     6f0:	00000000 	andeq	r0, r0, r0
     6f4:	00001a00 	andeq	r1, r0, r0, lsl #20
     6f8:	07350000 	ldreq	r0, [r5, -r0]!
     6fc:	011b0000 	tsteq	fp, r0
     700:	00300150 	eorseq	r0, r0, r0, asr r1
     704:	03601f00 	cmneq	r0, #0, 30
     708:	c3010000 	movwgt	r0, #4096	; 0x1000
     70c:	08000334 	stmdaeq	r0, {r2, r4, r5, r8, r9}
     710:	00000002 	andeq	r0, r0, r2
     714:	07359c01 	ldreq	r9, [r5, -r1, lsl #24]!
     718:	a4210000 	strtge	r0, [r1], #-0
     71c:	01000013 	tsteq	r0, r3, lsl r0
     720:	00032ac3 	andeq	r2, r3, r3, asr #21
     724:	21500100 	cmpcs	r0, r0, lsl #2
     728:	000005c2 	andeq	r0, r0, r2, asr #11
     72c:	0194c301 	orrseq	ip, r4, r1, lsl #6
     730:	51010000 	mrspl	r0, (UNDEF: 1)
     734:	065b2200 	ldrbeq	r2, [fp], -r0, lsl #4
     738:	1e080000 	cdpne	0, 0, cr0, cr8, cr0, {0}
     73c:	00074701 	andeq	r4, r7, r1, lsl #14
     740:	05092300 	streq	r2, [r9, #-768]	; 0xfffffd00
     744:	24000000 	strcs	r0, [r0], #-0
     748:	00000387 	andeq	r0, r0, r7, lsl #7
     74c:	58067606 	stmdapl	r6, {r1, r2, r9, sl, ip, sp, lr}
     750:	5d000003 	stcpl	0, cr0, [r0, #-12]
     754:	23000007 	movwcs	r0, #7
     758:	0000075d 	andeq	r0, r0, sp, asr r7
     75c:	2a040e00 	bcs	103f64 <_Min_Stack_Size+0x103b64>
     760:	24000004 	strcs	r0, [r0], #-4
     764:	0000044a 	andeq	r0, r0, sl, asr #8
     768:	58067706 	stmdapl	r6, {r1, r2, r8, r9, sl, ip, sp, lr}
     76c:	7e000003 	cdpvc	0, 0, cr0, cr0, cr3, {0}
     770:	23000007 	movwcs	r0, #7
     774:	0000077e 	andeq	r0, r0, lr, ror r7
     778:	00019423 	andeq	r9, r1, r3, lsr #8
     77c:	040e0000 	streq	r0, [lr], #-0
     780:	00000474 	andeq	r0, r0, r4, ror r4
     784:	0004f522 	andeq	pc, r4, r2, lsr #10
     788:	010f0700 	tsteq	pc, r0, lsl #14
     78c:	0000079b 	muleq	r0, fp, r7
     790:	00079b23 	andeq	r9, r7, r3, lsr #22
     794:	07a12300 	streq	r2, [r1, r0, lsl #6]!
     798:	0e000000 	cdpeq	0, 0, cr0, cr0, cr0, {0}
     79c:	00024c04 	andeq	r4, r2, r4, lsl #24
     7a0:	c5040e00 	strgt	r0, [r4, #-3584]	; 0xfffff200
     7a4:	25000004 	strcs	r0, [r0, #-4]
     7a8:	0000011c 	andeq	r0, r0, ip, lsl r1
     7ac:	07c25609 	strbeq	r5, [r2, r9, lsl #12]
     7b0:	0c230000 	stceq	0, cr0, [r3], #-0
     7b4:	23000001 	movwcs	r0, #1
     7b8:	00000194 	muleq	r0, r4, r1
     7bc:	00019423 	andeq	r9, r1, r3, lsr #8
     7c0:	67250000 	strvs	r0, [r5, -r0]!
     7c4:	09000001 	stmdbeq	r0, {r0}
     7c8:	0007d357 	andeq	sp, r7, r7, asr r3
     7cc:	010c2300 	mrseq	r2, LR_mon
     7d0:	26000000 	strcs	r0, [r0], -r0
     7d4:	00000344 	andeq	r0, r0, r4, asr #6
     7d8:	5801ff0a 	stmdapl	r1, {r1, r3, r8, r9, sl, fp, ip, sp, lr, pc}
     7dc:	27000003 	strcs	r0, [r0, -r3]
     7e0:	00000103 	andeq	r0, r0, r3, lsl #2
     7e4:	23011b08 	movwcs	r1, #6920	; 0x1b08
     7e8:	00000509 	andeq	r0, r0, r9, lsl #10
     7ec:	062c0000 	strteq	r0, [ip], -r0
     7f0:	00040000 	andeq	r0, r4, r0
     7f4:	00000219 	andeq	r0, r0, r9, lsl r2
     7f8:	025c0104 	subseq	r0, ip, #4, 2
     7fc:	85010000 	strhi	r0, [r1, #-0]
     800:	7a000007 	bvc	824 <_Min_Stack_Size+0x424>
     804:	38000001 	stmdacc	r0, {r0}
     808:	00000000 	andeq	r0, r0, r0
     80c:	c8000000 	stmdagt	r0, {}	; <UNPREDICTABLE>
     810:	02000001 	andeq	r0, r0, #1
     814:	0c550201 	lfmeq	f0, 2, [r5], {1}
     818:	03000001 	movweq	r0, #1
     81c:	00000473 	andeq	r0, r0, r3, ror r4
     820:	06230372 			; <UNDEFINED> instruction: 0x06230372
     824:	03730000 	cmneq	r3, #0
     828:	00000064 	andeq	r0, r0, r4, rrx
     82c:	00f7037b 	rscseq	r0, r7, fp, ror r3
     830:	037e0000 	cmneq	lr, #0
     834:	0000050e 	andeq	r0, r0, lr, lsl #10
     838:	033a037f 	teqeq	sl, #-67108863	; 0xfc000001
     83c:	03000000 	movweq	r0, #0
     840:	0000014d 	andeq	r0, r0, sp, asr #2
     844:	04170301 	ldreq	r0, [r7], #-769	; 0xfffffcff
     848:	03020000 	movweq	r0, #8192	; 0x2000
     84c:	000000a2 	andeq	r0, r0, r2, lsr #1
     850:	05330303 	ldreq	r0, [r3, #-771]!	; 0xfffffcfd
     854:	03040000 	movweq	r0, #16384	; 0x4000
     858:	000000c0 	andeq	r0, r0, r0, asr #1
     85c:	00450305 	subeq	r0, r5, r5, lsl #6
     860:	03060000 	movweq	r0, #24576	; 0x6000
     864:	00000032 	andeq	r0, r0, r2, lsr r0
     868:	04c70307 	strbeq	r0, [r7], #775	; 0x307
     86c:	03080000 	movweq	r0, #32768	; 0x8000
     870:	00000300 	andeq	r0, r0, r0, lsl #6
     874:	05610309 	strbeq	r0, [r1, #-777]!	; 0xfffffcf7
     878:	030a0000 	movweq	r0, #40960	; 0xa000
     87c:	0000036e 	andeq	r0, r0, lr, ror #6
     880:	03da030b 	bicseq	r0, sl, #738197504	; 0x2c000000
     884:	030c0000 	movweq	r0, #49152	; 0xc000
     888:	00000399 	muleq	r0, r9, r3
     88c:	0490030d 	ldreq	r0, [r0], #781	; 0x30d
     890:	030e0000 	movweq	r0, #57344	; 0xe000
     894:	00000540 	andeq	r0, r0, r0, asr #10
     898:	02f0030f 	rscseq	r0, r0, #1006632960	; 0x3c000000
     89c:	03100000 	tsteq	r0, #0
     8a0:	00000581 	andeq	r0, r0, r1, lsl #11
     8a4:	05e40311 	strbeq	r0, [r4, #785]!	; 0x311
     8a8:	03120000 	tsteq	r2, #0
     8ac:	00000556 	andeq	r0, r0, r6, asr r5
     8b0:	031a0313 	tsteq	sl, #1275068416	; 0x4c000000
     8b4:	03140000 	tsteq	r4, #0
     8b8:	00000089 	andeq	r0, r0, r9, lsl #1
     8bc:	04bc0315 	ldrteq	r0, [ip], #789	; 0x315
     8c0:	03160000 	tsteq	r6, #0
     8c4:	000000ed 	andeq	r0, r0, sp, ror #1
     8c8:	05290317 	streq	r0, [r9, #-791]!	; 0xfffffce9
     8cc:	03180000 	tsteq	r8, #0
     8d0:	0000015d 	andeq	r0, r0, sp, asr r1
     8d4:	05da0319 	ldrbeq	r0, [sl, #793]	; 0x319
     8d8:	031a0000 	tsteq	sl, #0
     8dc:	0000045e 	andeq	r0, r0, lr, asr r4
     8e0:	0234031b 	eorseq	r0, r4, #1811939328	; 0x6c000000
     8e4:	031c0000 	tsteq	ip, #0
     8e8:	0000051b 	andeq	r0, r0, fp, lsl r5
     8ec:	043d031d 	ldrteq	r0, [sp], #-797	; 0xfffffce3
     8f0:	031e0000 	tsteq	lr, #0
     8f4:	000003c5 	andeq	r0, r0, r5, asr #7
     8f8:	1204001f 	andne	r0, r4, #31
     8fc:	02000002 	andeq	r0, r0, #2
     900:	0000257e 	andeq	r2, r0, lr, ror r5
     904:	06010500 	streq	r0, [r1], -r0, lsl #10
     908:	000005ab 	andeq	r0, r0, fp, lsr #11
     90c:	a9080105 	stmdbge	r8, {r0, r2, r8}
     910:	05000005 	streq	r0, [r0, #-5]
     914:	04330502 	ldrteq	r0, [r3], #-1282	; 0xfffffafe
     918:	02050000 	andeq	r0, r5, #0
     91c:	00060b07 	andeq	r0, r6, r7, lsl #22
     920:	05040500 	streq	r0, [r4, #-1280]	; 0xfffffb00
     924:	00000331 	andeq	r0, r0, r1, lsr r3
     928:	0005b704 	andeq	fp, r5, r4, lsl #14
     92c:	45410300 	strbmi	r0, [r1, #-768]	; 0xfffffd00
     930:	05000001 	streq	r0, [r0, #-1]
     934:	01b60704 			; <UNDEFINED> instruction: 0x01b60704
     938:	08050000 	stmdaeq	r5, {}	; <UNPREDICTABLE>
     93c:	00032c05 	andeq	r2, r3, r5, lsl #24
     940:	07080500 	streq	r0, [r8, -r0, lsl #10]
     944:	000001b1 			; <UNDEFINED> instruction: 0x000001b1
     948:	69050406 	stmdbvs	r5, {r1, r2, sl}
     94c:	0500746e 	streq	r7, [r0, #-1134]	; 0xfffffb92
     950:	01bb0704 			; <UNDEFINED> instruction: 0x01bb0704
     954:	b9040000 	stmdblt	r4, {}	; <UNPREDICTABLE>
     958:	04000005 	streq	r0, [r0], #-5
     95c:	00013a20 	andeq	r3, r1, r0, lsr #20
     960:	07040500 	streq	r0, [r4, -r0, lsl #10]
     964:	00000420 	andeq	r0, r0, r0, lsr #8
     968:	00017f07 	andeq	r7, r1, r7, lsl #30
     96c:	01680800 	cmneq	r8, r0, lsl #16
     970:	10090000 	andne	r0, r9, r0
     974:	c201f005 	andgt	pc, r1, #5
     978:	0a000001 	beq	984 <_Min_Stack_Size+0x584>
     97c:	000007de 	ldrdeq	r0, [r0], -lr
     980:	7f01f205 	svcvc	0x0001f205
     984:	00000001 	andeq	r0, r0, r1
     988:	0008550a 	andeq	r5, r8, sl, lsl #10
     98c:	01f30500 	mvnseq	r0, r0, lsl #10
     990:	0000017f 	andeq	r0, r0, pc, ror r1
     994:	41560b04 	cmpmi	r6, r4, lsl #22
     998:	f405004c 	vst4.16	{d0-d3}, [r5], ip
     99c:	00017f01 	andeq	r7, r1, r1, lsl #30
     9a0:	570a0800 	strpl	r0, [sl, -r0, lsl #16]
     9a4:	05000007 	streq	r0, [r0, #-7]
     9a8:	017a01f5 	ldrsheq	r0, [sl, #-21]!	; 0xffffffeb
     9ac:	000c0000 	andeq	r0, ip, r0
     9b0:	0007e30c 	andeq	lr, r7, ip, lsl #6
     9b4:	01f60500 	mvnseq	r0, r0, lsl #10
     9b8:	00000184 	andeq	r0, r0, r4, lsl #3
     9bc:	39021009 	stmdbcc	r2, {r0, r3, ip}
     9c0:	00020b01 	andeq	r0, r2, r1, lsl #22
     9c4:	084e0a00 	stmdaeq	lr, {r9, fp}^
     9c8:	3b020000 	blcc	809d0 <_Min_Stack_Size+0x805d0>
     9cc:	00017f01 	andeq	r7, r1, r1, lsl #30
     9d0:	430b0000 	movwmi	r0, #45056	; 0xb000
     9d4:	3c020052 	stccc	0, cr0, [r2], {82}	; 0x52
     9d8:	00017f01 	andeq	r7, r1, r1, lsl #30
     9dc:	5d0a0400 	cfstrspl	mvf0, [sl, #-0]
     9e0:	02000007 	andeq	r0, r0, #7
     9e4:	017f013d 	cmneq	pc, sp, lsr r1	; <UNPREDICTABLE>
     9e8:	0a080000 	beq	2009f0 <_Min_Stack_Size+0x2005f0>
     9ec:	00000704 	andeq	r0, r0, r4, lsl #14
     9f0:	7f013e02 	svcvc	0x00013e02
     9f4:	0c000001 	stceq	0, cr0, [r0], {1}
     9f8:	070b0c00 	streq	r0, [fp, -r0, lsl #24]
     9fc:	3f020000 	svccc	0x00020000
     a00:	0001ce01 	andeq	ip, r1, r1, lsl #28
     a04:	02240900 	eoreq	r0, r4, #0, 18
     a08:	02930164 	addseq	r0, r3, #100, 2
     a0c:	410b0000 	mrsmi	r0, (UNDEF: 11)
     a10:	02005243 	andeq	r5, r0, #805306372	; 0x30000004
     a14:	017f0166 	cmneq	pc, r6, ror #2
     a18:	0a000000 	beq	a20 <_Min_Stack_Size+0x620>
     a1c:	00000752 	andeq	r0, r0, r2, asr r7
     a20:	7f016702 	svcvc	0x00016702
     a24:	04000001 	streq	r0, [r0], #-1
     a28:	00074f0a 	andeq	r4, r7, sl, lsl #30
     a2c:	01680200 	cmneq	r8, r0, lsl #4
     a30:	0000017f 	andeq	r0, r0, pc, ror r1
     a34:	52530b08 	subspl	r0, r3, #8, 22	; 0x2000
     a38:	01690200 	cmneq	r9, r0, lsl #4
     a3c:	0000017f 	andeq	r0, r0, pc, ror r1
     a40:	52430b0c 	subpl	r0, r3, #12, 22	; 0x3000
     a44:	016a0200 	cmneq	sl, r0, lsl #4
     a48:	0000017f 	andeq	r0, r0, pc, ror r1
     a4c:	52410b10 	subpl	r0, r1, #16, 22	; 0x4000
     a50:	016b0200 	cmneq	fp, r0, lsl #4
     a54:	0000017f 	andeq	r0, r0, pc, ror r1
     a58:	08830a14 	stmeq	r3, {r2, r4, r9, fp}
     a5c:	6c020000 	stcvs	0, cr0, [r2], {-0}
     a60:	00017f01 	andeq	r7, r1, r1, lsl #30
     a64:	4f0b1800 	svcmi	0x000b1800
     a68:	02005242 	andeq	r5, r0, #536870916	; 0x20000004
     a6c:	017f016d 	cmneq	pc, sp, ror #2
     a70:	0a1c0000 	beq	700a78 <_Min_Stack_Size+0x700678>
     a74:	0000088c 	andeq	r0, r0, ip, lsl #17
     a78:	7f016e02 	svcvc	0x00016e02
     a7c:	20000001 	andcs	r0, r0, r1
     a80:	06900c00 	ldreq	r0, [r0], r0, lsl #24
     a84:	6f020000 	svcvs	0x00020000
     a88:	00021701 	andeq	r1, r2, r1, lsl #14
     a8c:	02380900 	eorseq	r0, r8, #0, 18
     a90:	035e01cc 	cmpeq	lr, #204, 2	; 0x33
     a94:	430b0000 	movwmi	r0, #45056	; 0xb000
     a98:	ce020052 	mcrgt	0, 0, r0, cr2, cr2, {2}
     a9c:	00017f01 	andeq	r7, r1, r1, lsl #30
     aa0:	b70a0000 	strlt	r0, [sl, -r0]
     aa4:	02000004 	andeq	r0, r0, #4
     aa8:	017f01cf 	cmneq	pc, pc, asr #3
     aac:	0b040000 	bleq	100ab4 <_Min_Stack_Size+0x1006b4>
     ab0:	00524943 	subseq	r4, r2, r3, asr #18
     ab4:	7f01d002 	svcvc	0x0001d002
     ab8:	08000001 	stmdaeq	r0, {r0}
     abc:	0000520a 	andeq	r5, r0, sl, lsl #4
     ac0:	01d10200 	bicseq	r0, r1, r0, lsl #4
     ac4:	0000017f 	andeq	r0, r0, pc, ror r1
     ac8:	02e00a0c 	rsceq	r0, r0, #12, 20	; 0xc000
     acc:	d2020000 	andle	r0, r2, #0
     ad0:	00017f01 	andeq	r7, r1, r1, lsl #30
     ad4:	130a1000 	movwne	r1, #40960	; 0xa000
     ad8:	02000003 	andeq	r0, r0, #3
     adc:	017f01d3 	ldrsbeq	r0, [pc, #-19]	; ad1 <_Min_Stack_Size+0x6d1>
     ae0:	0a140000 	beq	500ae8 <_Min_Stack_Size+0x5006e8>
     ae4:	000003e9 	andeq	r0, r0, r9, ror #7
     ae8:	7f01d402 	svcvc	0x0001d402
     aec:	18000001 	stmdane	r0, {r0}
     af0:	00002a0a 	andeq	r2, r0, sl, lsl #20
     af4:	01d50200 	bicseq	r0, r5, r0, lsl #4
     af8:	0000017f 	andeq	r0, r0, pc, ror r1
     afc:	009d0a1c 	addseq	r0, sp, ip, lsl sl
     b00:	d6020000 	strle	r0, [r2], -r0
     b04:	00017f01 	andeq	r7, r1, r1, lsl #30
     b08:	430b2000 	movwmi	r2, #45056	; 0xb000
     b0c:	02005253 	andeq	r5, r0, #805306373	; 0x30000005
     b10:	017f01d7 	ldrsbeq	r0, [pc, #-23]	; b01 <_Min_Stack_Size+0x701>
     b14:	0a240000 	beq	900b1c <_Min_Stack_Size+0x90071c>
     b18:	00000136 	andeq	r0, r0, r6, lsr r1
     b1c:	7f01d802 	svcvc	0x0001d802
     b20:	28000001 	stmdacs	r0, {r0}
     b24:	0003ce0a 	andeq	ip, r3, sl, lsl #28
     b28:	01d90200 	bicseq	r0, r9, r0, lsl #4
     b2c:	0000017f 	andeq	r0, r0, pc, ror r1
     b30:	03d40a2c 	bicseq	r0, r4, #44, 20	; 0x2c000
     b34:	da020000 	ble	80b3c <_Min_Stack_Size+0x8073c>
     b38:	00017f01 	andeq	r7, r1, r1, lsl #30
     b3c:	430b3000 	movwmi	r3, #45056	; 0xb000
     b40:	02003252 	andeq	r3, r0, #536870917	; 0x20000005
     b44:	017f01db 	ldrsbeq	r0, [pc, #-27]	; b31 <_Min_Stack_Size+0x731>
     b48:	00340000 	eorseq	r0, r4, r0
     b4c:	0002470c 	andeq	r4, r2, ip, lsl #14
     b50:	01dc0200 	bicseq	r0, ip, r0, lsl #4
     b54:	0000029f 	muleq	r0, pc, r2	; <UNPREDICTABLE>
     b58:	0b040805 	bleq	102b74 <_Min_Stack_Size+0x102774>
     b5c:	05000004 	streq	r0, [r0, #-4]
     b60:	05b20801 	ldreq	r0, [r2, #2049]!	; 0x801
     b64:	01020000 	mrseq	r0, (UNDEF: 2)
     b68:	03993a06 	orrseq	r3, r9, #24576	; 0x6000
     b6c:	f3030000 	vhadd.u8	d0, d3, d0
     b70:	00000001 	andeq	r0, r0, r1
     b74:	0001a703 	andeq	sl, r1, r3, lsl #14
     b78:	94030100 	strls	r0, [r3], #-256	; 0xffffff00
     b7c:	02000000 	andeq	r0, r0, #0
     b80:	00011003 	andeq	r1, r1, r3
     b84:	04000300 	streq	r0, [r0], #-768	; 0xfffffd00
     b88:	000003f1 	strdeq	r0, [r0], -r1
     b8c:	03783f06 	cmneq	r8, #6, 30
     b90:	840d0000 	strhi	r0, [sp], #-0
     b94:	01000006 	tsteq	r0, r6
     b98:	000336ca 	andeq	r3, r3, sl, asr #13
     b9c:	00000208 	andeq	r0, r0, r8, lsl #4
     ba0:	0d9c0100 	ldfeqs	f0, [ip]
     ba4:	000007f0 	strdeq	r0, [r0], -r0	; <UNPREDICTABLE>
     ba8:	0000d501 	andeq	sp, r0, r1, lsl #10
     bac:	00020000 	andeq	r0, r2, r0
     bb0:	9c010000 	stcls	0, cr0, [r1], {-0}
     bb4:	0007440e 	andeq	r4, r7, lr, lsl #8
     bb8:	99b30100 	ldmibls	r3!, {r8}
     bbc:	00000003 	andeq	r0, r0, r3
     bc0:	24000000 	strcs	r0, [r0], #-0
     bc4:	01000000 	mrseq	r0, (UNDEF: 0)
     bc8:	0003e99c 	muleq	r3, ip, r9
     bcc:	00000f00 	andeq	r0, r0, r0, lsl #30
     bd0:	03b50000 			; <UNDEFINED> instruction: 0x03b50000
     bd4:	10000000 	andne	r0, r0, r0
     bd8:	0000080d 	andeq	r0, r0, sp, lsl #16
     bdc:	0399ec01 	orrseq	lr, r9, #256	; 0x100
     be0:	03380000 	teqeq	r8, #0
     be4:	00240800 	eoreq	r0, r4, r0, lsl #16
     be8:	9c010000 	stcls	0, cr0, [r1], {-0}
     bec:	0000043f 	andeq	r0, r0, pc, lsr r4
     bf0:	00076e11 	andeq	r6, r7, r1, lsl lr
     bf4:	68ec0100 	stmiavs	ip!, {r8}^
     bf8:	21000001 	tstcs	r0, r1
     bfc:	0f000000 	svceq	0x00000000
     c00:	08000340 	stmdaeq	r0, {r6, r8, r9}
     c04:	000005f7 	strdeq	r0, [r0], -r7
     c08:	00034c0f 	andeq	r4, r3, pc, lsl #24
     c0c:	00060308 	andeq	r0, r6, r8, lsl #6
     c10:	03581200 	cmpeq	r8, #0, 4
     c14:	06180800 	ldreq	r0, [r8], -r0, lsl #16
     c18:	01130000 	tsteq	r3, r0
     c1c:	13300152 	teqne	r0, #-2147483628	; 0x80000014
     c20:	74025101 	strvc	r5, [r2], #-257	; 0xfffffeff
     c24:	50011300 	andpl	r1, r1, r0, lsl #6
     c28:	00ff0902 	rscseq	r0, pc, r2, lsl #18
     c2c:	03440e00 	movteq	r0, #19968	; 0x4e00
     c30:	9b010000 	blls	40c38 <_Min_Stack_Size+0x40838>
     c34:	00000399 	muleq	r0, r9, r3
     c38:	0800035c 	stmdaeq	r0, {r2, r3, r4, r6, r8, r9}
     c3c:	00000020 	andeq	r0, r0, r0, lsr #32
     c40:	04759c01 	ldrbteq	r9, [r5], #-3073	; 0xfffff3ff
     c44:	6e140000 	cdpvs	0, 1, cr0, cr4, cr0, {0}
     c48:	e9080003 	stmdb	r8, {r0, r1}
     c4c:	6b000003 	blvs	c60 <_Min_Stack_Size+0x860>
     c50:	13000004 	movwne	r0, #4
     c54:	33015001 	movwcc	r5, #4097	; 0x1001
     c58:	03720f00 	cmneq	r2, #0, 30
     c5c:	03a40800 			; <UNDEFINED> instruction: 0x03a40800
     c60:	15000000 	strne	r0, [r0, #-0]
     c64:	00000877 	andeq	r0, r0, r7, ror r8
     c68:	00011c01 	andeq	r1, r1, r1, lsl #24
     c6c:	10000000 	andne	r0, r0, r0
     c70:	01000000 	mrseq	r0, (UNDEF: 0)
     c74:	06f8169c 	usateq	r1, #24, ip, lsl #13
     c78:	27010000 	strcs	r0, [r1, -r0]
     c7c:	00016801 	andeq	r6, r1, r1, lsl #16
     c80:	00037c00 	andeq	r7, r3, r0, lsl #24
     c84:	00000c08 	andeq	r0, r0, r8, lsl #24
     c88:	179c0100 	ldrne	r0, [ip, r0, lsl #2]
     c8c:	0000077b 	andeq	r0, r0, fp, ror r7
     c90:	00013701 	andeq	r3, r1, r1, lsl #14
     c94:	20000000 	andcs	r0, r0, r0
     c98:	01000000 	mrseq	r0, (UNDEF: 0)
     c9c:	0004f69c 	muleq	r4, ip, r6
     ca0:	077f1800 	ldrbeq	r1, [pc, -r0, lsl #16]!
     ca4:	37010000 	strcc	r0, [r1, -r0]
     ca8:	00017f01 	andeq	r7, r1, r1, lsl #30
     cac:	00004d00 	andeq	r4, r0, r0, lsl #26
     cb0:	07641900 	strbeq	r1, [r4, -r0, lsl #18]!
     cb4:	39010000 	stmdbcc	r1, {}	; <UNPREDICTABLE>
     cb8:	00016801 	andeq	r6, r1, r1, lsl #16
     cbc:	00006c00 	andeq	r6, r0, r0, lsl #24
     cc0:	073f1900 	ldreq	r1, [pc, -r0, lsl #18]!
     cc4:	3a010000 	bcc	40ccc <_Min_Stack_Size+0x408cc>
     cc8:	00016801 	andeq	r6, r1, r1, lsl #16
     ccc:	00008a00 	andeq	r8, r0, r0, lsl #20
     cd0:	00000f00 	andeq	r0, r0, r0, lsl #30
     cd4:	04870000 	streq	r0, [r7], #0
     cd8:	000f0000 	andeq	r0, pc, r0
     cdc:	87000000 	strhi	r0, [r0, -r0]
     ce0:	00000004 	andeq	r0, r0, r4
     ce4:	00086715 	andeq	r6, r8, r5, lsl r7
     ce8:	01510100 	cmpeq	r1, r0, lsl #2
     cec:	00000000 	andeq	r0, r0, r0
     cf0:	00000010 	andeq	r0, r0, r0, lsl r0
     cf4:	fe159c01 	cdp2	12, 1, cr9, cr5, cr1, {0}
     cf8:	01000007 	tsteq	r0, r7
     cfc:	00000162 	andeq	r0, r0, r2, ror #2
     d00:	00100000 	andseq	r0, r0, r0
     d04:	9c010000 	stcls	0, cr0, [r1], {-0}
     d08:	0006bf16 	andeq	fp, r6, r6, lsl pc
     d0c:	016c0100 	cmneq	ip, r0, lsl #2
     d10:	00000168 	andeq	r0, r0, r8, ror #2
     d14:	00000000 	andeq	r0, r0, r0
     d18:	00000008 	andeq	r0, r0, r8
     d1c:	2d169c01 	ldccs	12, cr9, [r6, #-4]
     d20:	01000008 	tsteq	r0, r8
     d24:	01680175 	smceq	32789	; 0x8015
     d28:	00000000 	andeq	r0, r0, r0
     d2c:	000c0000 	andeq	r0, ip, r0
     d30:	9c010000 	stcls	0, cr0, [r1], {-0}
     d34:	00085a16 	andeq	r5, r8, r6, lsl sl
     d38:	017e0100 	cmneq	lr, r0, lsl #2
     d3c:	00000168 	andeq	r0, r0, r8, ror #2
     d40:	00000000 	andeq	r0, r0, r0
     d44:	00000010 	andeq	r0, r0, r0, lsl r0
     d48:	d1169c01 	tstle	r6, r1, lsl #24
     d4c:	01000006 	tsteq	r0, r6
     d50:	01680187 	smulbbeq	r8, r7, r1
     d54:	00000000 	andeq	r0, r0, r0
     d58:	000c0000 	andeq	r0, ip, r0
     d5c:	9c010000 	stcls	0, cr0, [r1], {-0}
     d60:	0006de16 	andeq	sp, r6, r6, lsl lr
     d64:	01900100 	orrseq	r0, r0, r0, lsl #2
     d68:	00000168 	andeq	r0, r0, r8, ror #2
     d6c:	00000000 	andeq	r0, r0, r0
     d70:	0000000c 	andeq	r0, r0, ip
     d74:	eb169c01 	bl	5a7d80 <_Min_Stack_Size+0x5a7980>
     d78:	01000006 	tsteq	r0, r6
     d7c:	01680199 			; <UNDEFINED> instruction: 0x01680199
     d80:	00000000 	andeq	r0, r0, r0
     d84:	000c0000 	andeq	r0, ip, r0
     d88:	9c010000 	stcls	0, cr0, [r1], {-0}
     d8c:	0007a115 	andeq	sl, r7, r5, lsl r1
     d90:	01a20100 			; <UNDEFINED> instruction: 0x01a20100
     d94:	00000000 	andeq	r0, r0, r0
     d98:	00000010 	andeq	r0, r0, r0, lsl r0
     d9c:	21159c01 	tstcs	r5, r1, lsl #24
     da0:	01000007 	tsteq	r0, r7
     da4:	000001ab 	andeq	r0, r0, fp, lsr #3
     da8:	00100000 	andseq	r0, r0, r0
     dac:	9c010000 	stcls	0, cr0, [r1], {-0}
     db0:	0007be15 	andeq	fp, r7, r5, lsl lr
     db4:	01b40100 			; <UNDEFINED> instruction: 0x01b40100
     db8:	00000000 	andeq	r0, r0, r0
     dbc:	00000010 	andeq	r0, r0, r0, lsl r0
     dc0:	9e159c01 	cdpls	12, 1, cr9, cr5, cr1, {0}
     dc4:	01000006 	tsteq	r0, r6
     dc8:	000001bd 			; <UNDEFINED> instruction: 0x000001bd
     dcc:	00100000 	andseq	r0, r0, r0
     dd0:	9c010000 	stcls	0, cr0, [r1], {-0}
     dd4:	00071a1a 	andeq	r1, r7, sl, lsl sl
     dd8:	7f630100 	svcvc	0x00630100
     ddc:	05000001 	streq	r0, [r0, #-1]
     de0:	00045c03 	andeq	r5, r4, r3, lsl #24
     de4:	083a1b20 	ldmdaeq	sl!, {r5, r8, r9, fp, ip}
     de8:	8a070000 	bhi	1c0df0 <_Min_Stack_Size+0x1c09f0>
     dec:	00016806 	andeq	r6, r1, r6, lsl #16
     df0:	081a1c00 	ldmdaeq	sl, {sl, fp, ip}
     df4:	5a080000 	bpl	200dfc <_Min_Stack_Size+0x2009fc>
     df8:	00000168 	andeq	r0, r0, r8, ror #2
     dfc:	00000618 	andeq	r0, r0, r8, lsl r6
     e00:	0001681d 	andeq	r6, r1, sp, lsl r8
     e04:	1c1e0000 	ldcne	0, cr0, [lr], {-0}
     e08:	08000001 	stmdaeq	r0, {r0}
     e0c:	010c1d56 	tsteq	ip, r6, asr sp
     e10:	681d0000 	ldmdavs	sp, {}	; <UNPREDICTABLE>
     e14:	1d000001 	stcne	0, cr0, [r0, #-4]
     e18:	00000168 	andeq	r0, r0, r8, ror #2
     e1c:	07c40000 	strbeq	r0, [r4, r0]
     e20:	00040000 	andeq	r0, r4, r0
     e24:	000003f5 	strdeq	r0, [r0], -r5
     e28:	025c0104 	subseq	r0, ip, #4, 2
     e2c:	59010000 	stmdbpl	r1, {}	; <UNPREDICTABLE>
     e30:	7a000009 	bvc	e5c <_Min_Stack_Size+0xa5c>
     e34:	e0000001 	and	r0, r0, r1
     e38:	00000000 	andeq	r0, r0, r0
     e3c:	9e000000 	cdpls	0, 0, cr0, cr0, cr0, {0}
     e40:	02000004 	andeq	r0, r0, #4
     e44:	05ab0601 	streq	r0, [fp, #1537]!	; 0x601
     e48:	d0030000 	andle	r0, r3, r0
     e4c:	02000004 	andeq	r0, r0, #4
     e50:	0000371d 	andeq	r3, r0, sp, lsl r7
     e54:	08010200 	stmdaeq	r1, {r9}
     e58:	000005a9 	andeq	r0, r0, r9, lsr #11
     e5c:	33050202 	movwcc	r0, #20994	; 0x5202
     e60:	03000004 	movweq	r0, #4
     e64:	000001c8 	andeq	r0, r0, r8, asr #3
     e68:	00502b02 	subseq	r2, r0, r2, lsl #22
     e6c:	02020000 	andeq	r0, r2, #0
     e70:	00060b07 	andeq	r0, r6, r7, lsl #22
     e74:	05040200 	streq	r0, [r4, #-512]	; 0xfffffe00
     e78:	00000331 	andeq	r0, r0, r1, lsr r3
     e7c:	0005b703 	andeq	fp, r5, r3, lsl #14
     e80:	69410200 	stmdbvs	r1, {r9}^
     e84:	02000000 	andeq	r0, r0, #0
     e88:	01b60704 			; <UNDEFINED> instruction: 0x01b60704
     e8c:	08020000 	stmdaeq	r2, {}	; <UNPREDICTABLE>
     e90:	00032c05 	andeq	r2, r3, r5, lsl #24
     e94:	07080200 	streq	r0, [r8, -r0, lsl #4]
     e98:	000001b1 			; <UNDEFINED> instruction: 0x000001b1
     e9c:	69050404 	stmdbvs	r5, {r2, sl}
     ea0:	0200746e 	andeq	r7, r0, #1845493760	; 0x6e000000
     ea4:	01bb0704 			; <UNDEFINED> instruction: 0x01bb0704
     ea8:	d2030000 	andle	r0, r3, #0
     eac:	03000004 	movweq	r0, #4
     eb0:	00002c14 	andeq	r2, r0, r4, lsl ip
     eb4:	01ca0300 	biceq	r0, sl, r0, lsl #6
     eb8:	1a030000 	bne	c0ec0 <_Min_Stack_Size+0xc0ac0>
     ebc:	00000045 	andeq	r0, r0, r5, asr #32
     ec0:	0005b903 	andeq	fp, r5, r3, lsl #18
     ec4:	5e200300 	cdppl	3, 2, cr0, cr0, cr0, {0}
     ec8:	02000000 	andeq	r0, r0, #0
     ecc:	04200704 	strteq	r0, [r0], #-1796	; 0xfffff8fc
     ed0:	a2050000 	andge	r0, r5, #0
     ed4:	06000000 	streq	r0, [r0], -r0
     ed8:	000000a2 	andeq	r0, r0, r2, lsr #1
     edc:	000000c9 	andeq	r0, r0, r9, asr #1
     ee0:	0000ad07 	andeq	sl, r0, r7, lsl #26
     ee4:	08000100 	stmdaeq	r0, {r8}
     ee8:	01570418 	cmpeq	r7, r8, lsl r4
     eec:	00000120 	andeq	r0, r0, r0, lsr #2
     ef0:	524d4909 	subpl	r4, sp, #147456	; 0x24000
     ef4:	01590400 	cmpeq	r9, r0, lsl #8
     ef8:	000000b4 	strheq	r0, [r0], -r4
     efc:	4d450900 	stclmi	9, cr0, [r5, #-0]
     f00:	5a040052 	bpl	101050 <_Min_Stack_Size+0x100c50>
     f04:	0000b401 	andeq	fp, r0, r1, lsl #8
     f08:	540a0400 	strpl	r0, [sl], #-1024	; 0xfffffc00
     f0c:	04000009 	streq	r0, [r0], #-9
     f10:	00b4015b 	adcseq	r0, r4, fp, asr r1
     f14:	0a080000 	beq	200f1c <_Min_Stack_Size+0x200b1c>
     f18:	0000092c 	andeq	r0, r0, ip, lsr #18
     f1c:	b4015c04 	strlt	r5, [r1], #-3076	; 0xfffff3fc
     f20:	0c000000 	stceq	0, cr0, [r0], {-0}
     f24:	0009a70a 	andeq	sl, r9, sl, lsl #14
     f28:	015d0400 	cmpeq	sp, r0, lsl #8
     f2c:	000000b4 	strheq	r0, [r0], -r4
     f30:	52500910 	subspl	r0, r0, #16, 18	; 0x40000
     f34:	015e0400 	cmpeq	lr, r0, lsl #8
     f38:	000000b4 	strheq	r0, [r0], -r4
     f3c:	d80b0014 	stmdale	fp, {r2, r4}
     f40:	04000008 	streq	r0, [r0], #-8
     f44:	00c9015f 	sbceq	r0, r9, pc, asr r1
     f48:	2c080000 	stccs	0, cr0, [r8], {-0}
     f4c:	b8018404 	stmdalt	r1, {r2, sl, pc}
     f50:	0a000001 	beq	f5c <_Min_Stack_Size+0xb5c>
     f54:	000001ed 	andeq	r0, r0, sp, ror #3
     f58:	b4018604 	strlt	r8, [r1], #-1540	; 0xfffff9fc
     f5c:	00000000 	andeq	r0, r0, r0
     f60:	0004b00a 	andeq	fp, r4, sl
     f64:	01870400 	orreq	r0, r7, r0, lsl #8
     f68:	000000b4 	strheq	r0, [r0], -r4
     f6c:	04030a04 	streq	r0, [r3], #-2564	; 0xfffff5fc
     f70:	88040000 	stmdahi	r4, {}	; <UNPREDICTABLE>
     f74:	0000b401 	andeq	fp, r0, r1, lsl #8
     f78:	da0a0800 	ble	282f80 <_Min_Stack_Size+0x282b80>
     f7c:	04000002 	streq	r0, [r0], #-2
     f80:	00b40189 	adcseq	r0, r4, r9, lsl #3
     f84:	090c0000 	stmdbeq	ip, {}	; <UNPREDICTABLE>
     f88:	00524449 	subseq	r4, r2, r9, asr #8
     f8c:	b4018a04 	strlt	r8, [r1], #-2564	; 0xfffff5fc
     f90:	10000000 	andne	r0, r0, r0
     f94:	52444f09 	subpl	r4, r4, #9, 30	; 0x24
     f98:	018b0400 	orreq	r0, fp, r0, lsl #8
     f9c:	000000b4 	strheq	r0, [r0], -r4
     fa0:	00400a14 	subeq	r0, r0, r4, lsl sl
     fa4:	8c040000 	stchi	0, cr0, [r4], {-0}
     fa8:	0000b401 	andeq	fp, r0, r1, lsl #8
     fac:	7f0a1800 	svcvc	0x000a1800
     fb0:	04000006 	streq	r0, [r0], #-6
     fb4:	00b4018d 	adcseq	r0, r4, sp, lsl #3
     fb8:	091c0000 	ldmdbeq	ip, {}	; <UNPREDICTABLE>
     fbc:	00524641 	subseq	r4, r2, r1, asr #12
     fc0:	b8018e04 	stmdalt	r1, {r2, r9, sl, fp, pc}
     fc4:	20000001 	andcs	r0, r0, r1
     fc8:	52524209 	subspl	r4, r2, #-1879048192	; 0x90000000
     fcc:	018f0400 	orreq	r0, pc, r0, lsl #8
     fd0:	000000b4 	strheq	r0, [r0], -r4
     fd4:	b9050028 	stmdblt	r5, {r3, r5}
     fd8:	0b000000 	bleq	fe0 <_Min_Stack_Size+0xbe0>
     fdc:	000004e8 	andeq	r0, r0, r8, ror #9
     fe0:	2c019004 	stccs	0, cr9, [r1], {4}
     fe4:	08000001 	stmdaeq	r0, {r0}
     fe8:	0196041c 	orrseq	r0, r6, ip, lsl r4
     fec:	00000207 	andeq	r0, r0, r7, lsl #4
     ff0:	0008e50a 	andeq	lr, r8, sl, lsl #10
     ff4:	01980400 	orrseq	r0, r8, r0, lsl #8
     ff8:	000000b4 	strheq	r0, [r0], -r4
     ffc:	08830a00 	stmeq	r3, {r9, fp}
    1000:	99040000 	stmdbls	r4, {}	; <UNPREDICTABLE>
    1004:	0000a201 	andeq	sl, r0, r1, lsl #4
    1008:	d10a0400 	tstle	sl, r0, lsl #8
    100c:	04000008 	streq	r0, [r0], #-8
    1010:	0217019a 	andseq	r0, r7, #-2147483610	; 0x80000026
    1014:	0a080000 	beq	20101c <_Min_Stack_Size+0x200c1c>
    1018:	000003ce 	andeq	r0, r0, lr, asr #7
    101c:	b4019b04 	strlt	r9, [r1], #-2820	; 0xfffff4fc
    1020:	18000000 	stmdane	r0, {}	; <UNPREDICTABLE>
    1024:	00a20600 	adceq	r0, r2, r0, lsl #12
    1028:	02170000 	andseq	r0, r7, #0
    102c:	ad070000 	stcge	0, cr0, [r7, #-0]
    1030:	03000000 	movweq	r0, #0
    1034:	02070500 	andeq	r0, r7, #0, 10
    1038:	910b0000 	mrsls	r0, (UNDEF: 11)
    103c:	04000008 	streq	r0, [r0], #-8
    1040:	01c9019c 			; <UNDEFINED> instruction: 0x01c9019c
    1044:	38080000 	stmdacc	r8, {}	; <UNPREDICTABLE>
    1048:	e701cc04 	str	ip, [r1, -r4, lsl #24]
    104c:	09000002 	stmdbeq	r0, {r1}
    1050:	04005243 	streq	r5, [r0], #-579	; 0xfffffdbd
    1054:	00b401ce 	adcseq	r0, r4, lr, asr #3
    1058:	0a000000 	beq	1060 <_Min_Stack_Size+0xc60>
    105c:	000004b7 			; <UNDEFINED> instruction: 0x000004b7
    1060:	b401cf04 	strlt	ip, [r1], #-3844	; 0xfffff0fc
    1064:	04000000 	streq	r0, [r0], #-0
    1068:	52494309 	subpl	r4, r9, #603979776	; 0x24000000
    106c:	01d00400 	bicseq	r0, r0, r0, lsl #8
    1070:	000000b4 	strheq	r0, [r0], -r4
    1074:	00520a08 	subseq	r0, r2, r8, lsl #20
    1078:	d1040000 	mrsle	r0, (UNDEF: 4)
    107c:	0000b401 	andeq	fp, r0, r1, lsl #8
    1080:	e00a0c00 	and	r0, sl, r0, lsl #24
    1084:	04000002 	streq	r0, [r0], #-2
    1088:	00b401d2 	ldrsbteq	r0, [r4], r2
    108c:	0a100000 	beq	401094 <_Min_Stack_Size+0x400c94>
    1090:	00000313 	andeq	r0, r0, r3, lsl r3
    1094:	b401d304 	strlt	sp, [r1], #-772	; 0xfffffcfc
    1098:	14000000 	strne	r0, [r0], #-0
    109c:	0003e90a 	andeq	lr, r3, sl, lsl #18
    10a0:	01d40400 	bicseq	r0, r4, r0, lsl #8
    10a4:	000000b4 	strheq	r0, [r0], -r4
    10a8:	002a0a18 	eoreq	r0, sl, r8, lsl sl
    10ac:	d5040000 	strle	r0, [r4, #-0]
    10b0:	0000b401 	andeq	fp, r0, r1, lsl #8
    10b4:	9d0a1c00 	stcls	12, cr1, [sl, #-0]
    10b8:	04000000 	streq	r0, [r0], #-0
    10bc:	00b401d6 	ldrsbteq	r0, [r4], r6
    10c0:	09200000 	stmdbeq	r0!, {}	; <UNPREDICTABLE>
    10c4:	00525343 	subseq	r5, r2, r3, asr #6
    10c8:	b401d704 	strlt	sp, [r1], #-1796	; 0xfffff8fc
    10cc:	24000000 	strcs	r0, [r0], #-0
    10d0:	0001360a 	andeq	r3, r1, sl, lsl #12
    10d4:	01d80400 	bicseq	r0, r8, r0, lsl #8
    10d8:	000000b4 	strheq	r0, [r0], -r4
    10dc:	03ce0a28 	biceq	r0, lr, #40, 20	; 0x28000
    10e0:	d9040000 	stmdble	r4, {}	; <UNPREDICTABLE>
    10e4:	0000b401 	andeq	fp, r0, r1, lsl #8
    10e8:	d40a2c00 	strle	r2, [sl], #-3072	; 0xfffff400
    10ec:	04000003 	streq	r0, [r0], #-3
    10f0:	00b401da 	ldrsbteq	r0, [r4], sl
    10f4:	09300000 	ldmdbeq	r0!, {}	; <UNPREDICTABLE>
    10f8:	00325243 	eorseq	r5, r2, r3, asr #4
    10fc:	b401db04 	strlt	sp, [r1], #-2820	; 0xfffff4fc
    1100:	34000000 	strcc	r0, [r0], #-0
    1104:	02470b00 	subeq	r0, r7, #0, 22
    1108:	dc040000 	stcle	0, cr0, [r4], {-0}
    110c:	00022801 	andeq	r2, r2, r1, lsl #16
    1110:	05010c00 	streq	r0, [r1, #-3072]	; 0xfffff400
    1114:	000308b0 			; <UNDEFINED> instruction: 0x000308b0
    1118:	08a90d00 	stmiaeq	r9!, {r8, sl, fp}
    111c:	0e000000 	cdpeq	0, 0, cr0, cr0, cr0, {0}
    1120:	00544553 	subseq	r4, r4, r3, asr r5
    1124:	08020001 	stmdaeq	r2, {r0}
    1128:	00040b04 	andeq	r0, r4, r4, lsl #22
    112c:	15040f00 	strne	r0, [r4, #-3840]	; 0xfffff100
    1130:	02000003 	andeq	r0, r0, #3
    1134:	05b20801 	ldreq	r0, [r2, #2049]!	; 0x801
    1138:	010c0000 	mrseq	r0, (UNDEF: 12)
    113c:	033d3a06 	teqeq	sp, #24576	; 0x6000
    1140:	f30d0000 	vhadd.u8	d0, d13, d0
    1144:	00000001 	andeq	r0, r0, r1
    1148:	0001a70d 	andeq	sl, r1, sp, lsl #14
    114c:	940d0100 	strls	r0, [sp], #-256	; 0xffffff00
    1150:	02000000 	andeq	r0, r0, #0
    1154:	0001100d 	andeq	r1, r1, sp
    1158:	03000300 	movweq	r0, #768	; 0x300
    115c:	000003f1 	strdeq	r0, [r0], -r1
    1160:	031c3f06 	tsteq	ip, #6, 30
    1164:	14100000 	ldrne	r0, [r0], #-0
    1168:	038d3f07 	orreq	r3, sp, #7, 30
    116c:	50110000 	andspl	r0, r1, r0
    1170:	07006e69 	streq	r6, [r0, -r9, ror #28]
    1174:	0000a241 	andeq	sl, r0, r1, asr #4
    1178:	b9120000 	ldmdblt	r2, {}	; <UNPREDICTABLE>
    117c:	07000007 	streq	r0, [r0, -r7]
    1180:	0000a244 	andeq	sl, r0, r4, asr #4
    1184:	2f120400 	svccs	0x00120400
    1188:	07000002 	streq	r0, [r0, -r2]
    118c:	0000a247 	andeq	sl, r0, r7, asr #4
    1190:	fa120800 	blx	483198 <_Min_Stack_Size+0x482d98>
    1194:	07000002 	streq	r0, [r0, -r2]
    1198:	0000a24a 	andeq	sl, r0, sl, asr #4
    119c:	29120c00 	ldmdbcs	r2, {sl, fp}
    11a0:	07000004 	streq	r0, [r0, -r4]
    11a4:	0000a24d 	andeq	sl, r0, sp, asr #4
    11a8:	03001000 	movweq	r1, #0
    11ac:	0000058f 	andeq	r0, r0, pc, lsl #11
    11b0:	03484f07 	movteq	r4, #36615	; 0x8f07
    11b4:	010c0000 	mrseq	r0, (UNDEF: 12)
    11b8:	03ad5507 			; <UNDEFINED> instruction: 0x03ad5507
    11bc:	a00d0000 	andge	r0, sp, r0
    11c0:	00000008 	andeq	r0, r0, r8
    11c4:	0009070d 	andeq	r0, r9, sp, lsl #14
    11c8:	03000100 	movweq	r0, #256	; 0x100
    11cc:	00000999 	muleq	r0, r9, r9
    11d0:	03985807 	orrseq	r5, r8, #458752	; 0x70000
    11d4:	f5130000 			; <UNDEFINED> instruction: 0xf5130000
    11d8:	01000004 	tsteq	r0, r4
    11dc:	000388ba 			; <UNDEFINED> instruction: 0x000388ba
    11e0:	00026008 	andeq	r6, r2, r8
    11e4:	fd9c0100 	ldc2	1, cr0, [ip]
    11e8:	14000004 	strne	r0, [r0], #-4
    11ec:	0000097a 	andeq	r0, r0, sl, ror r9
    11f0:	04fdba01 	ldrbteq	fp, [sp], #2561	; 0xa01
    11f4:	009d0000 	addseq	r0, sp, r0
    11f8:	f9140000 			; <UNDEFINED> instruction: 0xf9140000
    11fc:	01000004 	tsteq	r0, r4
    1200:	000503ba 			; <UNDEFINED> instruction: 0x000503ba
    1204:	0000c900 	andeq	ip, r0, r0, lsl #18
    1208:	09801500 	stmibeq	r0, {r8, sl, ip}
    120c:	bc010000 	stclt	0, cr0, [r1], {-0}
    1210:	000000a2 	andeq	r0, r0, r2, lsr #1
    1214:	000000f5 	strdeq	r0, [r0], -r5
    1218:	00094a15 	andeq	r4, r9, r5, lsl sl
    121c:	a2bd0100 	adcsge	r0, sp, #0, 2
    1220:	2b000000 	blcs	1228 <_Min_Stack_Size+0xe28>
    1224:	15000001 	strne	r0, [r0, #-1]
    1228:	00000927 	andeq	r0, r0, r7, lsr #18
    122c:	00a2be01 	adceq	fp, r2, r1, lsl #28
    1230:	01560000 	cmpeq	r6, r0
    1234:	fa160000 	blx	58123c <_Min_Stack_Size+0x580e3c>
    1238:	12080004 	andne	r0, r8, #4
    123c:	35000000 	strcc	r0, [r0, #-0]
    1240:	17000004 	strne	r0, [r0, -r4]
    1244:	00000240 	andeq	r0, r0, r0, asr #4
    1248:	b4010101 	strlt	r0, [r1], #-257	; 0xfffffeff
    124c:	02000000 	andeq	r0, r0, #0
    1250:	18006491 	stmdane	r0, {r0, r4, r7, sl, sp, lr}
    1254:	080003be 	stmdaeq	r0, {r1, r2, r3, r4, r5, r7, r8, r9}
    1258:	000007b4 			; <UNDEFINED> instruction: 0x000007b4
    125c:	00000452 	andeq	r0, r0, r2, asr r4
    1260:	02510119 	subseq	r0, r1, #1073741830	; 0x40000006
    1264:	0119c108 	tsteq	r9, r8, lsl #2
    1268:	c8030550 	stmdagt	r3, {r4, r6, r8, sl}
    126c:	00080012 	andeq	r0, r8, r2, lsl r0
    1270:	0003d218 	andeq	sp, r3, r8, lsl r2
    1274:	0007b408 	andeq	fp, r7, r8, lsl #8
    1278:	00046f00 	andeq	r6, r4, r0, lsl #30
    127c:	51011900 	tstpl	r1, r0, lsl #18
    1280:	19c20802 	stmibne	r2, {r1, fp}^
    1284:	03055001 	movweq	r5, #20481	; 0x5001
    1288:	080012c8 	stmdaeq	r0, {r3, r6, r7, r9, ip}
    128c:	03fe1800 	mvnseq	r1, #0, 16
    1290:	07b40800 	ldreq	r0, [r4, r0, lsl #16]!
    1294:	048c0000 	streq	r0, [ip], #0
    1298:	01190000 	tsteq	r9, r0
    129c:	c3080251 	movwgt	r0, #33361	; 0x8251
    12a0:	05500119 	ldrbeq	r0, [r0, #-281]	; 0xfffffee7
    12a4:	0012c803 	andseq	ip, r2, r3, lsl #16
    12a8:	0c180008 	ldceq	0, cr0, [r8], {8}
    12ac:	b4080004 	strlt	r0, [r8], #-4
    12b0:	a9000007 	stmdbge	r0, {r0, r1, r2}
    12b4:	19000004 	stmdbne	r0, {r2}
    12b8:	08025101 	stmdaeq	r2, {r0, r8, ip, lr}
    12bc:	500119c4 	andpl	r1, r1, r4, asr #19
    12c0:	12c80305 	sbcne	r0, r8, #335544320	; 0x14000000
    12c4:	18000800 	stmdane	r0, {fp}
    12c8:	0800045e 	stmdaeq	r0, {r1, r2, r3, r4, r6, sl}
    12cc:	000007b4 			; <UNDEFINED> instruction: 0x000007b4
    12d0:	000004c6 	andeq	r0, r0, r6, asr #9
    12d4:	02510119 	subseq	r0, r1, #1073741830	; 0x40000006
    12d8:	0119d308 	tsteq	r9, r8, lsl #6
    12dc:	c8030550 	stmdagt	r3, {r4, r6, r8, sl}
    12e0:	00080012 	andeq	r0, r8, r2, lsl r0
    12e4:	00046c18 	andeq	r6, r4, r8, lsl ip
    12e8:	0007b408 	andeq	fp, r7, r8, lsl #8
    12ec:	0004e300 	andeq	lr, r4, r0, lsl #6
    12f0:	51011900 	tstpl	r1, r0, lsl #18
    12f4:	19d40802 	ldmibne	r4, {r1, fp}^
    12f8:	03055001 	movweq	r5, #20481	; 0x5001
    12fc:	080012c8 	stmdaeq	r0, {r3, r6, r7, r9, ip}
    1300:	04c81a00 	strbeq	r1, [r8], #2560	; 0xa00
    1304:	07b40800 	ldreq	r0, [r4, r0, lsl #16]!
    1308:	01190000 	tsteq	r9, r0
    130c:	e8080251 	stmda	r8, {r0, r4, r6, r9}
    1310:	05500119 	ldrbeq	r0, [r0, #-281]	; 0xfffffee7
    1314:	0012c803 	andseq	ip, r2, r3, lsl #16
    1318:	0f000008 	svceq	0x00000008
    131c:	0001bd04 	andeq	fp, r1, r4, lsl #26
    1320:	8d040f00 	stchi	15, cr0, [r4, #-0]
    1324:	1b000003 	blne	1338 <_Min_Stack_Size+0xf38>
    1328:	00000989 	andeq	r0, r0, r9, lsl #19
    132c:	00013701 	andeq	r3, r1, r1, lsl #14
    1330:	38000000 	stmdacc	r0, {}	; <UNPREDICTABLE>
    1334:	01000001 	tsteq	r0, r1
    1338:	0005a89c 	muleq	r5, ip, r8
    133c:	097a1c00 	ldmdbeq	sl!, {sl, fp, ip}^
    1340:	37010000 	strcc	r0, [r1, -r0]
    1344:	0004fd01 	andeq	pc, r4, r1, lsl #26
    1348:	00026700 	andeq	r6, r2, r0, lsl #14
    134c:	04871c00 	streq	r1, [r7], #3072	; 0xc00
    1350:	37010000 	strcc	r0, [r1, -r0]
    1354:	0000a201 	andeq	sl, r0, r1, lsl #4
    1358:	00029300 	andeq	r9, r2, r0, lsl #6
    135c:	09801d00 	stmibeq	r0, {r8, sl, fp, ip}
    1360:	39010000 	stmdbcc	r1, {}	; <UNPREDICTABLE>
    1364:	0000a201 	andeq	sl, r0, r1, lsl #4
    1368:	0002bf00 	andeq	fp, r2, r0, lsl #30
    136c:	094a1d00 	stmdbeq	sl, {r8, sl, fp, ip}^
    1370:	3a010000 	bcc	41378 <_Min_Stack_Size+0x40f78>
    1374:	0000a201 	andeq	sl, r0, r1, lsl #4
    1378:	0002de00 	andeq	sp, r2, r0, lsl #28
    137c:	6d741e00 	ldclvs	14, cr1, [r4, #-0]
    1380:	3b010070 	blcc	41548 <_Min_Stack_Size+0x41148>
    1384:	0000a201 	andeq	sl, r0, r1, lsl #4
    1388:	00030900 	andeq	r0, r3, r0, lsl #18
    138c:	00001800 	andeq	r1, r0, r0, lsl #16
    1390:	07b40000 	ldreq	r0, [r4, r0]!
    1394:	058d0000 	streq	r0, [sp]
    1398:	01190000 	tsteq	r9, r0
    139c:	3e0a0351 	mcrcc	3, 0, r0, cr10, cr1, {2}
    13a0:	50011901 	andpl	r1, r1, r1, lsl #18
    13a4:	12c80305 	sbcne	r0, r8, #335544320	; 0x14000000
    13a8:	1a000800 	bne	33b0 <_Min_Stack_Size+0x2fb0>
    13ac:	00000000 	andeq	r0, r0, r0
    13b0:	000007b4 			; <UNDEFINED> instruction: 0x000007b4
    13b4:	03510119 	cmpeq	r1, #1073741830	; 0x40000006
    13b8:	19013f0a 	stmdbne	r1, {r1, r3, r8, r9, sl, fp, ip, sp}
    13bc:	03055001 	movweq	r5, #20481	; 0x5001
    13c0:	080012c8 	stmdaeq	r0, {r3, r6, r7, r9, ip}
    13c4:	c01f0000 	andsgt	r0, pc, r0
    13c8:	01000008 	tsteq	r0, r8
    13cc:	03ad0188 			; <UNDEFINED> instruction: 0x03ad0188
    13d0:	00000000 	andeq	r0, r0, r0
    13d4:	00240000 	eoreq	r0, r4, r0
    13d8:	9c010000 	stcls	0, cr0, [r1], {-0}
    13dc:	0000060d 	andeq	r0, r0, sp, lsl #12
    13e0:	00097a1c 	andeq	r7, r9, ip, lsl sl
    13e4:	01880100 	orreq	r0, r8, r0, lsl #2
    13e8:	000004fd 	strdeq	r0, [r0], -sp
    13ec:	00000349 	andeq	r0, r0, r9, asr #6
    13f0:	0004871c 	andeq	r8, r4, ip, lsl r7
    13f4:	01880100 	orreq	r0, r8, r0, lsl #2
    13f8:	00000097 	muleq	r0, r7, r0
    13fc:	00000375 	andeq	r0, r0, r5, ror r3
    1400:	0008eb1d 	andeq	lr, r8, sp, lsl fp
    1404:	018a0100 	orreq	r0, sl, r0, lsl #2
    1408:	000003ad 	andeq	r0, r0, sp, lsr #7
    140c:	00000396 	muleq	r0, r6, r3
    1410:	0000001a 	andeq	r0, r0, sl, lsl r0
    1414:	0007b400 	andeq	fp, r7, r0, lsl #8
    1418:	51011900 	tstpl	r1, r0, lsl #18
    141c:	018d0a03 	orreq	r0, sp, r3, lsl #20
    1420:	05500119 	ldrbeq	r0, [r0, #-281]	; 0xfffffee7
    1424:	0012c803 	andseq	ip, r2, r3, lsl #16
    1428:	1b000008 	blne	1450 <_Min_Stack_Size+0x1050>
    142c:	000008f5 	strdeq	r0, [r0], -r5
    1430:	e801a901 	stmda	r1, {r0, r8, fp, sp, pc}
    1434:	38080005 	stmdacc	r8, {r0, r2}
    1438:	01000000 	mrseq	r0, (UNDEF: 0)
    143c:	00068c9c 	muleq	r6, ip, ip
    1440:	097a1c00 	ldmdbeq	sl!, {sl, fp, ip}^
    1444:	a9010000 	stmdbge	r1, {}	; <UNPREDICTABLE>
    1448:	0004fd01 	andeq	pc, r4, r1, lsl #26
    144c:	0003b400 	andeq	fp, r3, r0, lsl #8
    1450:	04871c00 	streq	r1, [r7], #3072	; 0xc00
    1454:	a9010000 	stmdbge	r1, {}	; <UNPREDICTABLE>
    1458:	00009701 	andeq	r9, r0, r1, lsl #14
    145c:	0003e000 	andeq	lr, r3, r0
    1460:	099e1c00 	ldmibeq	lr, {sl, fp, ip}
    1464:	a9010000 	stmdbge	r1, {}	; <UNPREDICTABLE>
    1468:	0003ad01 	andeq	sl, r3, r1, lsl #26
    146c:	00040100 	andeq	r0, r4, r0, lsl #2
    1470:	05fe1800 	ldrbeq	r1, [lr, #2048]!	; 0x800
    1474:	07b40800 	ldreq	r0, [r4, r0, lsl #16]!
    1478:	06710000 	ldrbteq	r0, [r1], -r0
    147c:	01190000 	tsteq	r9, r0
    1480:	ac0a0351 	stcge	3, cr0, [sl], {81}	; 0x51
    1484:	50011901 	andpl	r1, r1, r1, lsl #18
    1488:	12c80305 	sbcne	r0, r8, #335544320	; 0x14000000
    148c:	1a000800 	bne	3494 <_Min_Stack_Size+0x3094>
    1490:	0800060c 	stmdaeq	r0, {r2, r3, r9, sl}
    1494:	000007b4 			; <UNDEFINED> instruction: 0x000007b4
    1498:	03510119 	cmpeq	r1, #1073741830	; 0x40000006
    149c:	1901ad0a 	stmdbne	r1, {r1, r3, r8, sl, fp, sp, pc}
    14a0:	03055001 	movweq	r5, #20481	; 0x5001
    14a4:	080012c8 	stmdaeq	r0, {r3, r6, r7, r9, ip}
    14a8:	141b0000 	ldrne	r0, [fp], #-0
    14ac:	01000009 	tsteq	r0, r9
    14b0:	062001bf 			; <UNDEFINED> instruction: 0x062001bf
    14b4:	00200800 	eoreq	r0, r0, r0, lsl #16
    14b8:	9c010000 	stcls	0, cr0, [r1], {-0}
    14bc:	000006dd 	ldrdeq	r0, [r0], -sp
    14c0:	00097a1c 	andeq	r7, r9, ip, lsl sl
    14c4:	01bf0100 			; <UNDEFINED> instruction: 0x01bf0100
    14c8:	000004fd 	strdeq	r0, [r0], -sp
    14cc:	00000422 	andeq	r0, r0, r2, lsr #8
    14d0:	0004871c 	andeq	r8, r4, ip, lsl r7
    14d4:	01bf0100 			; <UNDEFINED> instruction: 0x01bf0100
    14d8:	00000097 	muleq	r0, r7, r0
    14dc:	0000044e 	andeq	r0, r0, lr, asr #8
    14e0:	0006321a 	andeq	r3, r6, sl, lsl r2
    14e4:	0007b408 	andeq	fp, r7, r8, lsl #8
    14e8:	51011900 	tstpl	r1, r0, lsl #18
    14ec:	01c20a03 	biceq	r0, r2, r3, lsl #20
    14f0:	05500119 	ldrbeq	r0, [r0, #-281]	; 0xfffffee7
    14f4:	0012c803 	andseq	ip, r2, r3, lsl #16
    14f8:	1f000008 	svcne	0x00000008
    14fc:	000008af 	andeq	r0, r0, pc, lsr #17
    1500:	3d01d201 	sfmcc	f5, 1, [r1, #-4]
    1504:	00000003 	andeq	r0, r0, r3
    1508:	58000000 	stmdapl	r0, {}	; <UNPREDICTABLE>
    150c:	01000000 	mrseq	r0, (UNDEF: 0)
    1510:	00075f9c 	muleq	r7, ip, pc	; <UNPREDICTABLE>
    1514:	097a1c00 	ldmdbeq	sl!, {sl, fp, ip}^
    1518:	d2010000 	andle	r0, r1, #0
    151c:	0004fd01 	andeq	pc, r4, r1, lsl #26
    1520:	00046f00 	andeq	r6, r4, r0, lsl #30
    1524:	04871c00 	streq	r1, [r7], #3072	; 0xc00
    1528:	d2010000 	andle	r0, r1, #0
    152c:	00009701 	andeq	r9, r0, r1, lsl #14
    1530:	00049b00 	andeq	r9, r4, r0, lsl #22
    1534:	6d742000 	ldclvs	0, cr2, [r4, #-0]
    1538:	d4010070 	strle	r0, [r1], #-112	; 0xffffff90
    153c:	0000b401 	andeq	fp, r0, r1, lsl #8
    1540:	6c910200 	lfmvs	f0, 4, [r1], {0}
    1544:	00000018 	andeq	r0, r0, r8, lsl r0
    1548:	0007b400 	andeq	fp, r7, r0, lsl #8
    154c:	00074400 	andeq	r4, r7, r0, lsl #8
    1550:	51011900 	tstpl	r1, r0, lsl #18
    1554:	01d70a03 	bicseq	r0, r7, r3, lsl #20
    1558:	05500119 	ldrbeq	r0, [r0, #-281]	; 0xfffffee7
    155c:	0012c803 	andseq	ip, r2, r3, lsl #16
    1560:	001a0008 	andseq	r0, sl, r8
    1564:	b4000000 	strlt	r0, [r0], #-0
    1568:	19000007 	stmdbne	r0, {r0, r1, r2}
    156c:	0a035101 	beq	d5978 <_Min_Stack_Size+0xd5578>
    1570:	011901d8 			; <UNDEFINED> instruction: 0x011901d8
    1574:	c8030550 	stmdagt	r3, {r4, r6, r8, sl}
    1578:	00080012 	andeq	r0, r8, r2, lsl r0
    157c:	06441b00 	strbeq	r1, [r4], -r0, lsl #22
    1580:	03010000 	movweq	r0, #4096	; 0x1000
    1584:	00000002 	andeq	r0, r0, r2
    1588:	00000200 	andeq	r0, r0, r0, lsl #4
    158c:	849c0100 	ldrhi	r0, [ip], #256	; 0x100
    1590:	21000007 	tstcs	r0, r7
    1594:	00000487 	andeq	r0, r0, r7, lsl #9
    1598:	97020301 	strls	r0, [r2, -r1, lsl #6]
    159c:	01000000 	mrseq	r0, (UNDEF: 0)
    15a0:	311b0050 	tstcc	fp, r0, asr r0
    15a4:	01000009 	tsteq	r0, r9
    15a8:	000001f4 	strdeq	r0, [r0], -r4
    15ac:	00180000 	andseq	r0, r8, r0
    15b0:	9c010000 	stcls	0, cr0, [r1], {-0}
    15b4:	000007b4 			; <UNDEFINED> instruction: 0x000007b4
    15b8:	0004871c 	andeq	r8, r4, ip, lsl r7
    15bc:	01f40100 	mvnseq	r0, r0, lsl #2
    15c0:	00000097 	muleq	r0, r7, r0
    15c4:	000004bc 			; <UNDEFINED> instruction: 0x000004bc
    15c8:	00000022 	andeq	r0, r0, r2, lsr #32
    15cc:	00075f00 	andeq	r5, r7, r0, lsl #30
    15d0:	60230000 	eorvs	r0, r3, r0
    15d4:	08000003 	stmdaeq	r0, {r0, r1}
    15d8:	0f24012c 	svceq	0x0024012c
    15dc:	24000003 	strcs	r0, [r0], #-3
    15e0:	000000a2 	andeq	r0, r0, r2, lsr #1
    15e4:	0cf90000 	ldcleq	0, cr0, [r9]
    15e8:	00040000 	andeq	r0, r4, r0
    15ec:	000005ea 	andeq	r0, r0, sl, ror #11
    15f0:	025c0104 	subseq	r0, ip, #4, 2
    15f4:	3a010000 	bcc	415fc <_Min_Stack_Size+0x411fc>
    15f8:	7a00000b 	bvc	162c <_Min_Stack_Size+0x122c>
    15fc:	88000001 	stmdahi	r0, {r0}
    1600:	00000001 	andeq	r0, r0, r1
    1604:	39000000 	stmdbcc	r0, {}	; <UNPREDICTABLE>
    1608:	02000008 	andeq	r0, r0, #8
    160c:	05ab0601 	streq	r0, [fp, #1537]!	; 0x601
    1610:	d0030000 	andle	r0, r3, r0
    1614:	02000004 	andeq	r0, r0, #4
    1618:	0000371d 	andeq	r3, r0, sp, lsl r7
    161c:	08010200 	stmdaeq	r1, {r9}
    1620:	000005a9 	andeq	r0, r0, r9, lsr #11
    1624:	33050202 	movwcc	r0, #20994	; 0x5202
    1628:	03000004 	movweq	r0, #4
    162c:	000001c8 	andeq	r0, r0, r8, asr #3
    1630:	00502b02 	subseq	r2, r0, r2, lsl #22
    1634:	02020000 	andeq	r0, r2, #0
    1638:	00060b07 	andeq	r0, r6, r7, lsl #22
    163c:	05040200 	streq	r0, [r4, #-512]	; 0xfffffe00
    1640:	00000331 	andeq	r0, r0, r1, lsr r3
    1644:	0005b703 	andeq	fp, r5, r3, lsl #14
    1648:	69410200 	stmdbvs	r1, {r9}^
    164c:	02000000 	andeq	r0, r0, #0
    1650:	01b60704 			; <UNDEFINED> instruction: 0x01b60704
    1654:	08020000 	stmdaeq	r2, {}	; <UNPREDICTABLE>
    1658:	00032c05 	andeq	r2, r3, r5, lsl #24
    165c:	07080200 	streq	r0, [r8, -r0, lsl #4]
    1660:	000001b1 			; <UNDEFINED> instruction: 0x000001b1
    1664:	69050404 	stmdbvs	r5, {r2, sl}
    1668:	0200746e 	andeq	r7, r0, #1845493760	; 0x6e000000
    166c:	01bb0704 			; <UNDEFINED> instruction: 0x01bb0704
    1670:	d2030000 	andle	r0, r3, #0
    1674:	03000004 	movweq	r0, #4
    1678:	00002c14 	andeq	r2, r0, r4, lsl ip
    167c:	01ca0300 	biceq	r0, sl, r0, lsl #6
    1680:	1a030000 	bne	c1688 <_Min_Stack_Size+0xc1288>
    1684:	00000045 	andeq	r0, r0, r5, asr #32
    1688:	0005b903 	andeq	fp, r5, r3, lsl #18
    168c:	5e200300 	cdppl	3, 2, cr0, cr0, cr0, {0}
    1690:	02000000 	andeq	r0, r0, #0
    1694:	04200704 	strteq	r0, [r0], #-1796	; 0xfffff8fc
    1698:	a2050000 	andge	r0, r5, #0
    169c:	06000000 	streq	r0, [r0], -r0
    16a0:	000000a2 	andeq	r0, r0, r2, lsr #1
    16a4:	000000c9 	andeq	r0, r0, r9, asr #1
    16a8:	0000ad07 	andeq	sl, r0, r7, lsl #26
    16ac:	08000100 	stmdaeq	r0, {r8}
    16b0:	01640424 	cmneq	r4, r4, lsr #8
    16b4:	00000145 	andeq	r0, r0, r5, asr #2
    16b8:	52434109 	subpl	r4, r3, #1073741826	; 0x40000002
    16bc:	01660400 	cmneq	r6, r0, lsl #8
    16c0:	000000b4 	strheq	r0, [r0], -r4
    16c4:	07520a00 	ldrbeq	r0, [r2, -r0, lsl #20]
    16c8:	67040000 	strvs	r0, [r4, -r0]
    16cc:	0000b401 	andeq	fp, r0, r1, lsl #8
    16d0:	4f0a0400 	svcmi	0x000a0400
    16d4:	04000007 	streq	r0, [r0], #-7
    16d8:	00b40168 	adcseq	r0, r4, r8, ror #2
    16dc:	09080000 	stmdbeq	r8, {}	; <UNPREDICTABLE>
    16e0:	04005253 	streq	r5, [r0], #-595	; 0xfffffdad
    16e4:	00b40169 	adcseq	r0, r4, r9, ror #2
    16e8:	090c0000 	stmdbeq	ip, {}	; <UNPREDICTABLE>
    16ec:	04005243 	streq	r5, [r0], #-579	; 0xfffffdbd
    16f0:	00b4016a 	adcseq	r0, r4, sl, ror #2
    16f4:	09100000 	ldmdbeq	r0, {}	; <UNPREDICTABLE>
    16f8:	04005241 	streq	r5, [r0], #-577	; 0xfffffdbf
    16fc:	00b4016b 	adcseq	r0, r4, fp, ror #2
    1700:	0a140000 	beq	501708 <_Min_Stack_Size+0x501308>
    1704:	00000883 	andeq	r0, r0, r3, lsl #17
    1708:	b4016c04 	strlt	r6, [r1], #-3076	; 0xfffff3fc
    170c:	18000000 	stmdane	r0, {}	; <UNPREDICTABLE>
    1710:	52424f09 	subpl	r4, r2, #9, 30	; 0x24
    1714:	016d0400 	cmneq	sp, r0, lsl #8
    1718:	000000b4 	strheq	r0, [r0], -r4
    171c:	088c0a1c 	stmeq	ip, {r2, r3, r4, r9, fp}
    1720:	6e040000 	cdpvs	0, 0, cr0, cr4, cr0, {0}
    1724:	0000b401 	andeq	fp, r0, r1, lsl #8
    1728:	0b002000 	bleq	9730 <_Min_Stack_Size+0x9330>
    172c:	00000690 	muleq	r0, r0, r6
    1730:	c9016f04 	stmdbgt	r1, {r2, r8, r9, sl, fp, sp, lr}
    1734:	08000000 	stmdaeq	r0, {}	; <UNPREDICTABLE>
    1738:	0184042c 	orreq	r0, r4, ip, lsr #8
    173c:	000001dd 	ldrdeq	r0, [r0], -sp
    1740:	0001ed0a 	andeq	lr, r1, sl, lsl #26
    1744:	01860400 	orreq	r0, r6, r0, lsl #8
    1748:	000000b4 	strheq	r0, [r0], -r4
    174c:	04b00a00 	ldrteq	r0, [r0], #2560	; 0xa00
    1750:	87040000 	strhi	r0, [r4, -r0]
    1754:	0000b401 	andeq	fp, r0, r1, lsl #8
    1758:	030a0400 	movweq	r0, #41984	; 0xa400
    175c:	04000004 	streq	r0, [r0], #-4
    1760:	00b40188 	adcseq	r0, r4, r8, lsl #3
    1764:	0a080000 	beq	20176c <_Min_Stack_Size+0x20136c>
    1768:	000002da 	ldrdeq	r0, [r0], -sl
    176c:	b4018904 	strlt	r8, [r1], #-2308	; 0xfffff6fc
    1770:	0c000000 	stceq	0, cr0, [r0], {-0}
    1774:	52444909 	subpl	r4, r4, #147456	; 0x24000
    1778:	018a0400 	orreq	r0, sl, r0, lsl #8
    177c:	000000b4 	strheq	r0, [r0], -r4
    1780:	444f0910 	strbmi	r0, [pc], #-2320	; 1788 <_Min_Stack_Size+0x1388>
    1784:	8b040052 	blhi	1018d4 <_Min_Stack_Size+0x1014d4>
    1788:	0000b401 	andeq	fp, r0, r1, lsl #8
    178c:	400a1400 	andmi	r1, sl, r0, lsl #8
    1790:	04000000 	streq	r0, [r0], #-0
    1794:	00b4018c 	adcseq	r0, r4, ip, lsl #3
    1798:	0a180000 	beq	6017a0 <_Min_Stack_Size+0x6013a0>
    179c:	0000067f 	andeq	r0, r0, pc, ror r6
    17a0:	b4018d04 	strlt	r8, [r1], #-3332	; 0xfffff2fc
    17a4:	1c000000 	stcne	0, cr0, [r0], {-0}
    17a8:	52464109 	subpl	r4, r6, #1073741826	; 0x40000002
    17ac:	018e0400 	orreq	r0, lr, r0, lsl #8
    17b0:	000001dd 	ldrdeq	r0, [r0], -sp
    17b4:	52420920 	subpl	r0, r2, #32, 18	; 0x80000
    17b8:	8f040052 	svchi	0x00040052
    17bc:	0000b401 	andeq	fp, r0, r1, lsl #8
    17c0:	05002800 	streq	r2, [r0, #-2048]	; 0xfffff800
    17c4:	000000b9 	strheq	r0, [r0], -r9
    17c8:	0004e80b 	andeq	lr, r4, fp, lsl #16
    17cc:	01900400 	orrseq	r0, r0, r0, lsl #8
    17d0:	00000151 	andeq	r0, r0, r1, asr r1
    17d4:	c2040808 	andgt	r0, r4, #8, 16	; 0x80000
    17d8:	00021101 	andeq	r1, r2, r1, lsl #2
    17dc:	52430900 	subpl	r0, r3, #0, 18
    17e0:	01c40400 	biceq	r0, r4, r0, lsl #8
    17e4:	000000b4 	strheq	r0, [r0], -r4
    17e8:	53430900 	movtpl	r0, #14592	; 0x3900
    17ec:	c5040052 	strgt	r0, [r4, #-82]	; 0xffffffae
    17f0:	0000b401 	andeq	fp, r0, r1, lsl #8
    17f4:	0b000400 	bleq	27fc <_Min_Stack_Size+0x23fc>
    17f8:	00000acd 	andeq	r0, r0, sp, asr #21
    17fc:	ee01c604 	cfmadd32	mvax0, mvfx12, mvfx1, mvfx4
    1800:	08000001 	stmdaeq	r0, {r0}
    1804:	01cc0438 	biceq	r0, ip, r8, lsr r4
    1808:	000002dc 	ldrdeq	r0, [r0], -ip
    180c:	00524309 	subseq	r4, r2, r9, lsl #6
    1810:	b401ce04 	strlt	ip, [r1], #-3588	; 0xfffff1fc
    1814:	00000000 	andeq	r0, r0, r0
    1818:	0004b70a 	andeq	fp, r4, sl, lsl #14
    181c:	01cf0400 	biceq	r0, pc, r0, lsl #8
    1820:	000000b4 	strheq	r0, [r0], -r4
    1824:	49430904 	stmdbmi	r3, {r2, r8, fp}^
    1828:	d0040052 	andle	r0, r4, r2, asr r0
    182c:	0000b401 	andeq	fp, r0, r1, lsl #8
    1830:	520a0800 	andpl	r0, sl, #0, 16
    1834:	04000000 	streq	r0, [r0], #-0
    1838:	00b401d1 	ldrsbteq	r0, [r4], r1
    183c:	0a0c0000 	beq	301844 <_Min_Stack_Size+0x301444>
    1840:	000002e0 	andeq	r0, r0, r0, ror #5
    1844:	b401d204 	strlt	sp, [r1], #-516	; 0xfffffdfc
    1848:	10000000 	andne	r0, r0, r0
    184c:	0003130a 	andeq	r1, r3, sl, lsl #6
    1850:	01d30400 	bicseq	r0, r3, r0, lsl #8
    1854:	000000b4 	strheq	r0, [r0], -r4
    1858:	03e90a14 	mvneq	r0, #20, 20	; 0x14000
    185c:	d4040000 	strle	r0, [r4], #-0
    1860:	0000b401 	andeq	fp, r0, r1, lsl #8
    1864:	2a0a1800 	bcs	28786c <_Min_Stack_Size+0x28746c>
    1868:	04000000 	streq	r0, [r0], #-0
    186c:	00b401d5 	ldrsbteq	r0, [r4], r5
    1870:	0a1c0000 	beq	701878 <_Min_Stack_Size+0x701478>
    1874:	0000009d 	muleq	r0, sp, r0
    1878:	b401d604 	strlt	sp, [r1], #-1540	; 0xfffff9fc
    187c:	20000000 	andcs	r0, r0, r0
    1880:	52534309 	subspl	r4, r3, #603979776	; 0x24000000
    1884:	01d70400 	bicseq	r0, r7, r0, lsl #8
    1888:	000000b4 	strheq	r0, [r0], -r4
    188c:	01360a24 	teqeq	r6, r4, lsr #20
    1890:	d8040000 	stmdale	r4, {}	; <UNPREDICTABLE>
    1894:	0000b401 	andeq	fp, r0, r1, lsl #8
    1898:	ce0a2800 	cdpgt	8, 0, cr2, cr10, cr0, {0}
    189c:	04000003 	streq	r0, [r0], #-3
    18a0:	00b401d9 	ldrsbteq	r0, [r4], r9
    18a4:	0a2c0000 	beq	b018ac <_Min_Stack_Size+0xb014ac>
    18a8:	000003d4 	ldrdeq	r0, [r0], -r4
    18ac:	b401da04 	strlt	sp, [r1], #-2564	; 0xfffff5fc
    18b0:	30000000 	andcc	r0, r0, r0
    18b4:	32524309 	subscc	r4, r2, #603979776	; 0x24000000
    18b8:	01db0400 	bicseq	r0, fp, r0, lsl #8
    18bc:	000000b4 	strheq	r0, [r0], -r4
    18c0:	470b0034 	smladxmi	fp, r4, r0, r0
    18c4:	04000002 	streq	r0, [r0], #-2
    18c8:	021d01dc 	andseq	r0, sp, #220, 2	; 0x37
    18cc:	010c0000 	mrseq	r0, (UNDEF: 12)
    18d0:	02fdb005 	rscseq	fp, sp, #5
    18d4:	a90d0000 	stmdbge	sp, {}	; <UNPREDICTABLE>
    18d8:	00000008 	andeq	r0, r0, r8
    18dc:	5445530e 	strbpl	r5, [r5], #-782	; 0xfffffcf2
    18e0:	03000100 	movweq	r0, #256	; 0x100
    18e4:	000009e9 	andeq	r0, r0, r9, ror #19
    18e8:	02e8b305 	rsceq	fp, r8, #335544320	; 0x14000000
    18ec:	08020000 	stmdaeq	r2, {}	; <UNPREDICTABLE>
    18f0:	00040b04 	andeq	r0, r4, r4, lsl #22
    18f4:	10040f00 	andne	r0, r4, r0, lsl #30
    18f8:	00031704 	andeq	r1, r3, r4, lsl #14
    18fc:	08010200 	stmdaeq	r1, {r9}
    1900:	000005b2 			; <UNDEFINED> instruction: 0x000005b2
    1904:	3a06010c 	bcc	181d3c <_Min_Stack_Size+0x18193c>
    1908:	0000033f 	andeq	r0, r0, pc, lsr r3
    190c:	0001f30d 	andeq	pc, r1, sp, lsl #6
    1910:	a70d0000 	strge	r0, [sp, -r0]
    1914:	01000001 	tsteq	r0, r1
    1918:	0000940d 	andeq	r9, r0, sp, lsl #8
    191c:	100d0200 	andne	r0, sp, r0, lsl #4
    1920:	03000001 	movweq	r0, #1
    1924:	03f10300 	mvnseq	r0, #0, 6
    1928:	3f060000 	svccc	0x00060000
    192c:	0000031e 	andeq	r0, r0, lr, lsl r3
    1930:	d3071011 	movwle	r1, #28689	; 0x7011
    1934:	00000383 	andeq	r0, r0, r3, lsl #7
    1938:	00005b12 	andeq	r5, r0, r2, lsl fp
    193c:	a2d50700 	sbcsge	r0, r5, #0, 14
    1940:	00000000 	andeq	r0, r0, r0
    1944:	0005ee12 	andeq	lr, r5, r2, lsl lr
    1948:	a2d80700 	sbcsge	r0, r8, #0, 14
    194c:	04000000 	streq	r0, [r0], #-0
    1950:	00032512 	andeq	r2, r3, r2, lsl r5
    1954:	a2db0700 	sbcsge	r0, fp, #0, 14
    1958:	08000000 	stmdaeq	r0, {}	; <UNPREDICTABLE>
    195c:	0002e912 	andeq	lr, r2, r2, lsl r9
    1960:	a2de0700 	sbcsge	r0, lr, #0, 14
    1964:	0c000000 	stceq	0, cr0, [r0], {-0}
    1968:	021c0300 	andseq	r0, ip, #0, 6
    196c:	e1070000 	mrs	r0, (UNDEF: 7)
    1970:	0000034a 	andeq	r0, r0, sl, asr #6
    1974:	e6073411 			; <UNDEFINED> instruction: 0xe6073411
    1978:	00000411 	andeq	r0, r0, r1, lsl r4
    197c:	00006d12 	andeq	r6, r0, r2, lsl sp
    1980:	a2e80700 	rscge	r0, r8, #0, 14
    1984:	00000000 	andeq	r0, r0, r0
    1988:	0005c712 	andeq	ip, r5, r2, lsl r7
    198c:	a2eb0700 	rscge	r0, fp, #0, 14
    1990:	04000000 	streq	r0, [r0], #-0
    1994:	00025312 	andeq	r5, r2, r2, lsl r3
    1998:	a2ee0700 	rscge	r0, lr, #0, 14
    199c:	08000000 	stmdaeq	r0, {}	; <UNPREDICTABLE>
    19a0:	00020912 	andeq	r0, r2, r2, lsl r9
    19a4:	a2f10700 	rscsge	r0, r1, #0, 14
    19a8:	0c000000 	stceq	0, cr0, [r0], {-0}
    19ac:	00000012 	andeq	r0, r0, r2, lsl r0
    19b0:	a2f40700 	rscsge	r0, r4, #0, 14
    19b4:	10000000 	andne	r0, r0, r0
    19b8:	00050312 	andeq	r0, r5, r2, lsl r3
    19bc:	a2f70700 	rscsge	r0, r7, #0, 14
    19c0:	14000000 	strne	r0, [r0], #-0
    19c4:	00001412 	andeq	r1, r0, r2, lsl r4
    19c8:	a2fa0700 	rscsge	r0, sl, #0, 14
    19cc:	18000000 	stmdane	r0, {}	; <UNPREDICTABLE>
    19d0:	00046a12 	andeq	r6, r4, r2, lsl sl
    19d4:	a2fd0700 	rscsge	r0, sp, #0, 14
    19d8:	1c000000 	stcne	0, cr0, [r0], {-0}
    19dc:	0005760a 	andeq	r7, r5, sl, lsl #12
    19e0:	01010700 	tsteq	r1, r0, lsl #14
    19e4:	000000a2 	andeq	r0, r0, r2, lsr #1
    19e8:	4c500920 	mrrcmi	9, 2, r0, r0, cr0	; <UNPREDICTABLE>
    19ec:	0507004c 	streq	r0, [r7, #-76]	; 0xffffffb4
    19f0:	00038301 	andeq	r8, r3, r1, lsl #6
    19f4:	0b002400 	bleq	a9fc <_Min_Stack_Size+0xa5fc>
    19f8:	0000034d 	andeq	r0, r0, sp, asr #6
    19fc:	8e010707 	cdphi	7, 0, cr0, cr1, cr7, {0}
    1a00:	08000003 	stmdaeq	r0, {r0, r1}
    1a04:	010c0710 	tsteq	ip, r0, lsl r7
    1a08:	0000045b 	andeq	r0, r0, fp, asr r4
    1a0c:	00066a0a 	andeq	r6, r6, sl, lsl #20
    1a10:	010e0700 	tsteq	lr, r0, lsl #14
    1a14:	000000a2 	andeq	r0, r0, r2, lsr #1
    1a18:	007c0a00 	rsbseq	r0, ip, r0, lsl #20
    1a1c:	11070000 	mrsne	r0, (UNDEF: 7)
    1a20:	0000a201 	andeq	sl, r0, r1, lsl #4
    1a24:	da0a0400 	ble	282a2c <_Min_Stack_Size+0x28262c>
    1a28:	07000004 	streq	r0, [r0, -r4]
    1a2c:	00a20114 	adceq	r0, r2, r4, lsl r1
    1a30:	0a080000 	beq	201a38 <_Min_Stack_Size+0x201638>
    1a34:	0000013e 	andeq	r0, r0, lr, lsr r1
    1a38:	a2011707 	andge	r1, r1, #1835008	; 0x1c0000
    1a3c:	0c000000 	stceq	0, cr0, [r0], {-0}
    1a40:	00ad0b00 	adceq	r0, sp, r0, lsl #22
    1a44:	1a070000 	bne	1c1a4c <_Min_Stack_Size+0x1c164c>
    1a48:	00041d01 	andeq	r1, r4, r1, lsl #26
    1a4c:	08141100 	ldmdaeq	r4, {r8, ip}
    1a50:	0004ac3f 	andeq	sl, r4, pc, lsr ip
    1a54:	69501300 	ldmdbvs	r0, {r8, r9, ip}^
    1a58:	4108006e 	tstmi	r8, lr, rrx
    1a5c:	000000a2 	andeq	r0, r0, r2, lsr #1
    1a60:	07b91200 	ldreq	r1, [r9, r0, lsl #4]!
    1a64:	44080000 	strmi	r0, [r8], #-0
    1a68:	000000a2 	andeq	r0, r0, r2, lsr #1
    1a6c:	022f1204 	eoreq	r1, pc, #4, 4	; 0x40000000
    1a70:	47080000 	strmi	r0, [r8, -r0]
    1a74:	000000a2 	andeq	r0, r0, r2, lsr #1
    1a78:	02fa1208 	rscseq	r1, sl, #8, 4	; 0x80000000
    1a7c:	4a080000 	bmi	201a84 <_Min_Stack_Size+0x201684>
    1a80:	000000a2 	andeq	r0, r0, r2, lsr #1
    1a84:	0429120c 	strteq	r1, [r9], #-524	; 0xfffffdf4
    1a88:	4d080000 	stcmi	0, cr0, [r8, #-0]
    1a8c:	000000a2 	andeq	r0, r0, r2, lsr #1
    1a90:	8f030010 	svchi	0x00030010
    1a94:	08000005 	stmdaeq	r0, {r0, r2}
    1a98:	0004674f 	andeq	r6, r4, pc, asr #14
    1a9c:	083a1400 	ldmdaeq	sl!, {sl, ip}
    1aa0:	73010000 	movwvc	r0, #4096	; 0x1000
    1aa4:	0000a204 	andeq	sl, r0, r4, lsl #4
    1aa8:	c8150100 	ldmdagt	r5, {r8}
    1aac:	01000009 	tsteq	r0, r9
    1ab0:	000000e1 	andeq	r0, r0, r1, ror #1
    1ab4:	00004c00 	andeq	r4, r0, r0, lsl #24
    1ab8:	169c0100 	ldrne	r0, [ip], r0, lsl #2
    1abc:	00000387 	andeq	r0, r0, r7, lsl #7
    1ac0:	3f010d01 	svccc	0x00010d01
    1ac4:	40000003 	andmi	r0, r0, r3
    1ac8:	84080006 	strhi	r0, [r8], #-6
    1acc:	01000005 	tsteq	r0, r5
    1ad0:	0008079c 	muleq	r8, ip, r7
    1ad4:	06321700 	ldrteq	r1, [r2], -r0, lsl #14
    1ad8:	0d010000 	stceq	0, cr0, [r1, #-0]
    1adc:	00080701 	andeq	r0, r8, r1, lsl #14
    1ae0:	0004dd00 	andeq	sp, r4, r0, lsl #26
    1ae4:	07641800 	strbeq	r1, [r4, -r0, lsl #16]!
    1ae8:	0f010000 	svceq	0x00010000
    1aec:	0000a201 	andeq	sl, r0, r1, lsl #4
    1af0:	00056d00 	andeq	r6, r5, r0, lsl #26
    1af4:	01281900 			; <UNDEFINED> instruction: 0x01281900
    1af8:	05960000 	ldreq	r0, [r6]
    1afc:	40180000 	andsmi	r0, r8, r0
    1b00:	0100000a 	tsteq	r0, sl
    1b04:	02fd01b7 	rscseq	r0, sp, #-1073741779	; 0xc000002d
    1b08:	066c0000 	strbteq	r0, [ip], -r0
    1b0c:	40190000 	andsmi	r0, r9, r0
    1b10:	41000001 	tstmi	r0, r1
    1b14:	1a000005 	bne	1b30 <_Min_Stack_Size+0x1730>
    1b18:	00000240 	andeq	r0, r0, r0, asr #4
    1b1c:	b401c001 	strlt	ip, [r1], #-1
    1b20:	02000000 	andeq	r0, r0, #0
    1b24:	1b006491 	blne	1ad70 <_Min_Stack_Size+0x1a970>
    1b28:	08000860 	stmdaeq	r0, {r5, r6, fp}
    1b2c:	00000c80 	andeq	r0, r0, r0, lsl #25
    1b30:	0000055f 	andeq	r0, r0, pc, asr r5
    1b34:	0351011c 	cmpeq	r1, #28, 2
    1b38:	1c01ba0a 	stcne	10, cr11, [r1], {10}
    1b3c:	03055001 	movweq	r5, #20481	; 0x5001
    1b40:	080012e9 	stmdaeq	r0, {r0, r3, r5, r6, r7, r9, ip}
    1b44:	08a01d00 	stmiaeq	r0!, {r8, sl, fp, ip}
    1b48:	0c970800 	ldceq	8, cr0, [r7], {0}
    1b4c:	ac1d0000 	ldcge	0, cr0, [sp], {-0}
    1b50:	97080008 	strls	r0, [r8, -r8]
    1b54:	1d00000c 	stcne	0, cr0, [r0, #-48]	; 0xffffffd0
    1b58:	080008ce 	stmdaeq	r0, {r1, r2, r3, r6, r7, fp}
    1b5c:	00000c97 	muleq	r0, r7, ip
    1b60:	0009101d 	andeq	r1, r9, sp, lsl r0
    1b64:	000c9708 	andeq	r9, ip, r8, lsl #14
    1b68:	0b701d00 	bleq	1c08f70 <_Min_Stack_Size+0x1c08b70>
    1b6c:	0c970800 	ldceq	8, cr0, [r7], {0}
    1b70:	7e1d0000 	cdpvc	0, 1, cr0, cr13, cr0, {0}
    1b74:	9708000b 	strls	r0, [r8, -fp]
    1b78:	0000000c 	andeq	r0, r0, ip
    1b7c:	0006541b 	andeq	r5, r6, fp, lsl r4
    1b80:	000c8008 	andeq	r8, ip, r8
    1b84:	0005b400 	andeq	fp, r5, r0, lsl #8
    1b88:	51011c00 	tstpl	r1, r0, lsl #24
    1b8c:	01120a03 	tsteq	r2, r3, lsl #20
    1b90:	0550011c 	ldrbeq	r0, [r0, #-284]	; 0xfffffee4
    1b94:	0012e903 	andseq	lr, r2, r3, lsl #18
    1b98:	681b0008 	ldmdavs	fp, {r3}
    1b9c:	80080006 	andhi	r0, r8, r6
    1ba0:	d200000c 	andle	r0, r0, #12
    1ba4:	1c000005 	stcne	0, cr0, [r0], {5}
    1ba8:	0a035101 	beq	d5fb4 <_Min_Stack_Size+0xd5bb4>
    1bac:	011c0113 	tsteq	ip, r3, lsl r1
    1bb0:	e9030550 	stmdb	r3, {r4, r6, r8, sl}
    1bb4:	00080012 	andeq	r0, r8, r2, lsl r0
    1bb8:	00068a1b 	andeq	r8, r6, fp, lsl sl
    1bbc:	000c8008 	andeq	r8, ip, r8
    1bc0:	0005f000 	andeq	pc, r5, r0
    1bc4:	51011c00 	tstpl	r1, r0, lsl #24
    1bc8:	01190a03 	tsteq	r9, r3, lsl #20
    1bcc:	0550011c 	ldrbeq	r0, [r0, #-284]	; 0xfffffee4
    1bd0:	0012e903 	andseq	lr, r2, r3, lsl #18
    1bd4:	dc1d0008 	ldcle	0, cr0, [sp], {8}
    1bd8:	97080006 	strls	r0, [r8, -r6]
    1bdc:	1d00000c 	stcne	0, cr0, [r0, #-48]	; 0xffffffd0
    1be0:	0800070c 	stmdaeq	r0, {r2, r3, r8, r9, sl}
    1be4:	00000c97 	muleq	r0, r7, ip
    1be8:	0007181d 	andeq	r1, r7, sp, lsl r8
    1bec:	000c9708 	andeq	r9, ip, r8, lsl #14
    1bf0:	07261d00 	streq	r1, [r6, -r0, lsl #26]!
    1bf4:	0c970800 	ldceq	8, cr0, [r7], {0}
    1bf8:	441b0000 	ldrmi	r0, [fp], #-0
    1bfc:	80080007 	andhi	r0, r8, r7
    1c00:	3200000c 	andcc	r0, r0, #12
    1c04:	1c000006 	stcne	0, cr0, [r0], {6}
    1c08:	0a035101 	beq	d6014 <_Min_Stack_Size+0xd5c14>
    1c0c:	011c014d 	tsteq	ip, sp, asr #2
    1c10:	e9030550 	stmdb	r3, {r4, r6, r8, sl}
    1c14:	00080012 	andeq	r0, r8, r2, lsl r0
    1c18:	0007541b 	andeq	r5, r7, fp, lsl r4
    1c1c:	000c8008 	andeq	r8, ip, r8
    1c20:	00065000 	andeq	r5, r6, r0
    1c24:	51011c00 	tstpl	r1, r0, lsl #24
    1c28:	014e0a03 	cmpeq	lr, r3, lsl #20
    1c2c:	0550011c 	ldrbeq	r0, [r0, #-284]	; 0xfffffee4
    1c30:	0012e903 	andseq	lr, r2, r3, lsl #18
    1c34:	a41d0008 	ldrge	r0, [sp], #-8
    1c38:	97080007 	strls	r0, [r8, -r7]
    1c3c:	1d00000c 	stcne	0, cr0, [r0, #-48]	; 0xffffffd0
    1c40:	080007b2 	stmdaeq	r0, {r1, r4, r5, r7, r8, r9, sl}
    1c44:	00000c97 	muleq	r0, r7, ip
    1c48:	0007d41d 	andeq	sp, r7, sp, lsl r4
    1c4c:	000c9708 	andeq	r9, ip, r8, lsl #14
    1c50:	07e01d00 	strbeq	r1, [r0, r0, lsl #26]!
    1c54:	0c970800 	ldceq	8, cr0, [r7], {0}
    1c58:	061b0000 	ldreq	r0, [fp], -r0
    1c5c:	80080008 	andhi	r0, r8, r8
    1c60:	9200000c 	andls	r0, r0, #12
    1c64:	1c000006 	stcne	0, cr0, [r0], {6}
    1c68:	0a035101 	beq	d6074 <_Min_Stack_Size+0xd5c74>
    1c6c:	011c018e 	tsteq	ip, lr, lsl #3
    1c70:	e9030550 	stmdb	r3, {r4, r6, r8, sl}
    1c74:	00080012 	andeq	r0, r8, r2, lsl r0
    1c78:	00081a1d 	andeq	r1, r8, sp, lsl sl
    1c7c:	000c9708 	andeq	r9, ip, r8, lsl #14
    1c80:	08261d00 	stmdaeq	r6!, {r8, sl, fp, ip}
    1c84:	0c970800 	ldceq	8, cr0, [r7], {0}
    1c88:	381d0000 	ldmdacc	sp, {}	; <UNPREDICTABLE>
    1c8c:	97080008 	strls	r0, [r8, -r8]
    1c90:	1d00000c 	stcne	0, cr0, [r0, #-48]	; 0xffffffd0
    1c94:	08000844 	stmdaeq	r0, {r2, r6, fp}
    1c98:	00000c97 	muleq	r0, r7, ip
    1c9c:	0009461b 	andeq	r4, r9, fp, lsl r6
    1ca0:	000c8008 	andeq	r8, ip, r8
    1ca4:	0006d400 	andeq	sp, r6, r0, lsl #8
    1ca8:	51011c00 	tstpl	r1, r0, lsl #24
    1cac:	02000a03 	andeq	r0, r0, #12288	; 0x3000
    1cb0:	0550011c 	ldrbeq	r0, [r0, #-284]	; 0xfffffee4
    1cb4:	0012e903 	andseq	lr, r2, r3, lsl #18
    1cb8:	541b0008 	ldrpl	r0, [fp], #-8
    1cbc:	80080009 	andhi	r0, r8, r9
    1cc0:	f200000c 	vhadd.s8	d0, d0, d12
    1cc4:	1c000006 	stcne	0, cr0, [r0], {6}
    1cc8:	0a035101 	beq	d60d4 <_Min_Stack_Size+0xd5cd4>
    1ccc:	011c0201 	tsteq	ip, r1, lsl #4
    1cd0:	e9030550 	stmdb	r3, {r4, r6, r8, sl}
    1cd4:	00080012 	andeq	r0, r8, r2, lsl r0
    1cd8:	00096e1d 	andeq	r6, r9, sp, lsl lr
    1cdc:	000c9708 	andeq	r9, ip, r8, lsl #14
    1ce0:	097c1d00 	ldmdbeq	ip!, {r8, sl, fp, ip}^
    1ce4:	0c970800 	ldceq	8, cr0, [r7], {0}
    1ce8:	c01d0000 	andsgt	r0, sp, r0
    1cec:	97080009 	strls	r0, [r8, -r9]
    1cf0:	1d00000c 	stcne	0, cr0, [r0, #-48]	; 0xffffffd0
    1cf4:	080009cc 	stmdaeq	r0, {r2, r3, r6, r7, r8, fp}
    1cf8:	00000c97 	muleq	r0, r7, ip
    1cfc:	0009ea1b 	andeq	lr, r9, fp, lsl sl
    1d00:	000c8008 	andeq	r8, ip, r8
    1d04:	00073400 	andeq	r3, r7, r0, lsl #8
    1d08:	51011c00 	tstpl	r1, r0, lsl #24
    1d0c:	02740a03 	rsbseq	r0, r4, #12288	; 0x3000
    1d10:	0550011c 	ldrbeq	r0, [r0, #-284]	; 0xfffffee4
    1d14:	0012e903 	andseq	lr, r2, r3, lsl #18
    1d18:	fa1b0008 	blx	6c1d40 <_Min_Stack_Size+0x6c1940>
    1d1c:	80080009 	andhi	r0, r8, r9
    1d20:	5200000c 	andpl	r0, r0, #12
    1d24:	1c000007 	stcne	0, cr0, [r0], {7}
    1d28:	0a035101 	beq	d6134 <_Min_Stack_Size+0xd5d34>
    1d2c:	011c023e 	tsteq	ip, lr, lsr r2
    1d30:	e9030550 	stmdb	r3, {r4, r6, r8, sl}
    1d34:	00080012 	andeq	r0, r8, r2, lsl r0
    1d38:	000a3e1d 	andeq	r3, sl, sp, lsl lr
    1d3c:	000c9708 	andeq	r9, ip, r8, lsl #14
    1d40:	0a4a1d00 	beq	1289148 <_Min_Stack_Size+0x1288d48>
    1d44:	0c970800 	ldceq	8, cr0, [r7], {0}
    1d48:	5e1d0000 	cdppl	0, 1, cr0, cr13, cr0, {0}
    1d4c:	9708000a 	strls	r0, [r8, -sl]
    1d50:	1d00000c 	stcne	0, cr0, [r0, #-48]	; 0xffffffd0
    1d54:	08000a6a 	stmdaeq	r0, {r1, r3, r5, r6, r9, fp}
    1d58:	00000c97 	muleq	r0, r7, ip
    1d5c:	000aae1b 	andeq	sl, sl, fp, lsl lr
    1d60:	000c8008 	andeq	r8, ip, r8
    1d64:	00079400 	andeq	r9, r7, r0, lsl #8
    1d68:	51011c00 	tstpl	r1, r0, lsl #24
    1d6c:	027d0a03 	rsbseq	r0, sp, #12288	; 0x3000
    1d70:	0550011c 	ldrbeq	r0, [r0, #-284]	; 0xfffffee4
    1d74:	0012e903 	andseq	lr, r2, r3, lsl #18
    1d78:	e21b0008 	ands	r0, fp, #8
    1d7c:	8008000a 	andhi	r0, r8, sl
    1d80:	b200000c 	andlt	r0, r0, #12
    1d84:	1c000007 	stcne	0, cr0, [r0], {7}
    1d88:	0a035101 	beq	d6194 <_Min_Stack_Size+0xd5d94>
    1d8c:	011c027e 	tsteq	ip, lr, ror r2
    1d90:	e9030550 	stmdb	r3, {r4, r6, r8, sl}
    1d94:	00080012 	andeq	r0, r8, r2, lsl r0
    1d98:	000af01b 	andeq	pc, sl, fp, lsl r0	; <UNPREDICTABLE>
    1d9c:	000c8008 	andeq	r8, ip, r8
    1da0:	0007d000 	andeq	sp, r7, r0
    1da4:	51011c00 	tstpl	r1, r0, lsl #24
    1da8:	027f0a03 	rsbseq	r0, pc, #12288	; 0x3000
    1dac:	0550011c 	ldrbeq	r0, [r0, #-284]	; 0xfffffee4
    1db0:	0012e903 	andseq	lr, r2, r3, lsl #18
    1db4:	fa1d0008 	blx	741ddc <_Min_Stack_Size+0x7419dc>
    1db8:	9708000a 	strls	r0, [r8, -sl]
    1dbc:	1d00000c 	stcne	0, cr0, [r0, #-48]	; 0xffffffd0
    1dc0:	08000b08 	stmdaeq	r0, {r3, r8, r9, fp}
    1dc4:	00000c97 	muleq	r0, r7, ip
    1dc8:	000b3a1d 	andeq	r3, fp, sp, lsl sl
    1dcc:	000c9708 	andeq	r9, ip, r8, lsl #14
    1dd0:	0b461d00 	bleq	11891d8 <_Min_Stack_Size+0x1188dd8>
    1dd4:	0c970800 	ldceq	8, cr0, [r7], {0}
    1dd8:	581d0000 	ldmdapl	sp, {}	; <UNPREDICTABLE>
    1ddc:	9708000b 	strls	r0, [r8, -fp]
    1de0:	1d00000c 	stcne	0, cr0, [r0, #-48]	; 0xffffffd0
    1de4:	08000b64 	stmdaeq	r0, {r2, r5, r6, r8, r9, fp}
    1de8:	00000c97 	muleq	r0, r7, ip
    1dec:	11041000 	mrsne	r1, (UNDEF: 4)
    1df0:	1e000004 	cdpne	0, 0, cr0, cr0, cr4, {0}
    1df4:	000009d7 	ldrdeq	r0, [r0], -r7
    1df8:	0003d901 	andeq	sp, r3, r1, lsl #18
    1dfc:	b0000000 	andlt	r0, r0, r0
    1e00:	01000000 	mrseq	r0, (UNDEF: 0)
    1e04:	0008ed9c 	muleq	r8, ip, sp
    1e08:	0a4e1700 	beq	1387a10 <_Min_Stack_Size+0x1387610>
    1e0c:	d9010000 	stmdble	r1, {}	; <UNPREDICTABLE>
    1e10:	0000a203 	andeq	sl, r0, r3, lsl #4
    1e14:	00069600 	andeq	r9, r6, r0, lsl #12
    1e18:	0afe1700 	beq	fff87a20 <_estack+0xdff83a20>
    1e1c:	d9010000 	stmdble	r1, {}	; <UNPREDICTABLE>
    1e20:	0000a203 	andeq	sl, r0, r3, lsl #4
    1e24:	0006b700 	andeq	fp, r6, r0, lsl #14
    1e28:	09bd1700 	ldmibeq	sp!, {r8, r9, sl, ip}
    1e2c:	d9010000 	stmdble	r1, {}	; <UNPREDICTABLE>
    1e30:	0000a203 	andeq	sl, r0, r3, lsl #4
    1e34:	0006e300 	andeq	lr, r6, r0, lsl #6
    1e38:	0a571a00 	beq	15c8640 <_Min_Stack_Size+0x15c8240>
    1e3c:	db010000 	blle	41e44 <_Min_Stack_Size+0x41a44>
    1e40:	0004ac03 	andeq	sl, r4, r3, lsl #24
    1e44:	5c910200 	lfmpl	f0, 4, [r1], {0}
    1e48:	00015819 	andeq	r5, r1, r9, lsl r8
    1e4c:	00087b00 	andeq	r7, r8, r0, lsl #22
    1e50:	02401a00 	subeq	r1, r0, #0, 20
    1e54:	ea010000 	b	41e5c <_Min_Stack_Size+0x41a5c>
    1e58:	0000b403 	andeq	fp, r0, r3, lsl #8
    1e5c:	58910200 	ldmpl	r1, {r9}
    1e60:	00001b00 	andeq	r1, r0, r0, lsl #22
    1e64:	0c800000 	stceq	0, cr0, [r0], {0}
    1e68:	08990000 	ldmeq	r9, {}	; <UNPREDICTABLE>
    1e6c:	011c0000 	tsteq	ip, r0
    1e70:	de0a0351 	mcrle	3, 0, r0, cr10, cr1, {2}
    1e74:	50011c03 	andpl	r1, r1, r3, lsl #24
    1e78:	12e90305 	rscne	r0, r9, #335544320	; 0x14000000
    1e7c:	1b000800 	blne	3e84 <_Min_Stack_Size+0x3a84>
    1e80:	00000000 	andeq	r0, r0, r0
    1e84:	00000c80 	andeq	r0, r0, r0, lsl #25
    1e88:	000008b7 			; <UNDEFINED> instruction: 0x000008b7
    1e8c:	0351011c 	cmpeq	r1, #28, 2
    1e90:	1c03df0a 	stcne	15, cr13, [r3], {10}
    1e94:	03055001 	movweq	r5, #20481	; 0x5001
    1e98:	080012e9 	stmdaeq	r0, {r0, r3, r5, r6, r7, r9, ip}
    1e9c:	00001b00 	andeq	r1, r0, r0, lsl #22
    1ea0:	0c800000 	stceq	0, cr0, [r0], {0}
    1ea4:	08d50000 	ldmeq	r5, {}^	; <UNPREDICTABLE>
    1ea8:	011c0000 	tsteq	ip, r0
    1eac:	e00a0351 	and	r0, sl, r1, asr r3
    1eb0:	50011c03 	andpl	r1, r1, r3, lsl #24
    1eb4:	12e90305 	rscne	r0, r9, #335544320	; 0x14000000
    1eb8:	1f000800 	svcne	0x00000800
    1ebc:	00000000 	andeq	r0, r0, r0
    1ec0:	00000ca3 	andeq	r0, r0, r3, lsr #25
    1ec4:	0251011c 	subseq	r0, r1, #28, 2
    1ec8:	011c5c91 			; <UNDEFINED> instruction: 0x011c5c91
    1ecc:	4a420350 	bmi	1082c14 <_Min_Stack_Size+0x1082814>
    1ed0:	20000024 	andcs	r0, r0, r4, lsr #32
    1ed4:	00000ad9 	ldrdeq	r0, [r0], -r9
    1ed8:	0003fb01 	andeq	pc, r3, r1, lsl #22
    1edc:	14000000 	strne	r0, [r0], #-0
    1ee0:	01000000 	mrseq	r0, (UNDEF: 0)
    1ee4:	0a1f209c 	beq	7ca15c <_Min_Stack_Size+0x7c9d5c>
    1ee8:	04010000 	streq	r0, [r1], #-0
    1eec:	00000004 	andeq	r0, r0, r4
    1ef0:	00001400 	andeq	r1, r0, r0, lsl #8
    1ef4:	219c0100 	orrscs	r0, ip, r0, lsl #2
    1ef8:	00000a07 	andeq	r0, r0, r7, lsl #20
    1efc:	a2042801 	andge	r2, r4, #65536	; 0x10000
    1f00:	c4000000 	strgt	r0, [r0], #-0
    1f04:	7808000b 	stmdavc	r8, {r0, r1, r3}
    1f08:	01000000 	mrseq	r0, (UNDEF: 0)
    1f0c:	0009d49c 	muleq	r9, ip, r4
    1f10:	09f41a00 	ldmibeq	r4!, {r9, fp, ip}^
    1f14:	2a010000 	bcs	41f1c <_Min_Stack_Size+0x41b1c>
    1f18:	0009e404 	andeq	lr, r9, r4, lsl #8
    1f1c:	50910200 	addspl	r0, r1, r0, lsl #4
    1f20:	000aeb1a 	andeq	lr, sl, sl, lsl fp
    1f24:	042c0100 	strteq	r0, [ip], #-256	; 0xffffff00
    1f28:	000009e9 	andeq	r0, r0, r9, ror #19
    1f2c:	18609102 	stmdane	r0!, {r1, r8, ip, pc}^
    1f30:	00000240 	andeq	r0, r0, r0, asr #4
    1f34:	a2042f01 	andge	r2, r4, #1, 30
    1f38:	0f000000 	svceq	0x00000000
    1f3c:	18000007 	stmdane	r0, {r0, r1, r2}
    1f40:	00000a63 	andeq	r0, r0, r3, ror #20
    1f44:	a2042f01 	andge	r2, r4, #1, 30
    1f48:	39000000 	stmdbcc	r0, {}	; <UNPREDICTABLE>
    1f4c:	18000007 	stmdane	r0, {r0, r1, r2}
    1f50:	00000a5c 	andeq	r0, r0, ip, asr sl
    1f54:	a2042f01 	andge	r2, r4, #1, 30
    1f58:	6f000000 	svcvs	0x00000000
    1f5c:	18000007 	stmdane	r0, {r0, r1, r2}
    1f60:	00000b61 	andeq	r0, r0, r1, ror #22
    1f64:	a2042f01 	andge	r2, r4, #1, 30
    1f68:	9a000000 	bls	1f70 <_Min_Stack_Size+0x1b70>
    1f6c:	18000007 	stmdane	r0, {r0, r1, r2}
    1f70:	00000b16 	andeq	r0, r0, r6, lsl fp
    1f74:	a2043001 	andge	r3, r4, #1
    1f78:	c5000000 	strgt	r0, [r0, #-0]
    1f7c:	1b000007 	blne	1fa0 <_Min_Stack_Size+0x1ba0>
    1f80:	08000bd4 	stmdaeq	r0, {r2, r4, r6, r7, r8, r9, fp}
    1f84:	00000cc6 	andeq	r0, r0, r6, asr #25
    1f88:	000009b8 			; <UNDEFINED> instruction: 0x000009b8
    1f8c:	0152011c 	cmpeq	r2, ip, lsl r1
    1f90:	51011c40 	tstpl	r1, r0, asr #24
    1f94:	1c007402 	cfstrsne	mvf7, [r0], {2}
    1f98:	7d025001 	stcvc	0, cr5, [r2, #-4]
    1f9c:	e21f0000 	ands	r0, pc, #0
    1fa0:	c608000b 	strgt	r0, [r8], -fp
    1fa4:	1c00000c 	stcne	0, cr0, [r0], {12}
    1fa8:	40015201 	andmi	r5, r1, r1, lsl #4
    1fac:	0251011c 	subseq	r0, r1, #28, 2
    1fb0:	011c1074 	tsteq	ip, r4, ror r0
    1fb4:	00750250 	rsbseq	r0, r5, r0, asr r2
    1fb8:	8c060000 	stchi	0, cr0, [r6], {-0}
    1fbc:	e4000000 	str	r0, [r0], #-0
    1fc0:	07000009 	streq	r0, [r0, -r9]
    1fc4:	000000ad 	andeq	r0, r0, sp, lsr #1
    1fc8:	d422000f 	strtle	r0, [r2], #-15
    1fcc:	22000009 	andcs	r0, r0, #9
    1fd0:	000009d4 	ldrdeq	r0, [r0], -r4
    1fd4:	00044a16 	andeq	r4, r4, r6, lsl sl
    1fd8:	02d50100 	sbcseq	r0, r5, #0, 2
    1fdc:	0000033f 	andeq	r0, r0, pc, lsr r3
    1fe0:	08000c3c 	stmdaeq	r0, {r2, r3, r4, r5, sl, fp}
    1fe4:	0000020c 	andeq	r0, r0, ip, lsl #4
    1fe8:	0b329c01 	bleq	ca8ff4 <_Min_Stack_Size+0xca8bf4>
    1fec:	db170000 	blle	5c1ff4 <_Min_Stack_Size+0x5c1bf4>
    1ff0:	01000000 	mrseq	r0, (UNDEF: 0)
    1ff4:	0b3202d5 	bleq	c82b50 <_Min_Stack_Size+0xc82750>
    1ff8:	07e40000 	strbeq	r0, [r4, r0]!
    1ffc:	0d170000 	ldceq	0, cr0, [r7, #-0]
    2000:	0100000b 	tsteq	r0, fp
    2004:	00a202d5 	ldrdeq	r0, [r2], r5	; <UNPREDICTABLE>
    2008:	08100000 	ldmdaeq	r0, {}	; <UNPREDICTABLE>
    200c:	64180000 	ldrvs	r0, [r8], #-0
    2010:	01000007 	tsteq	r0, r7
    2014:	00a202d7 	ldrdeq	r0, [r2], r7	; <UNPREDICTABLE>
    2018:	083c0000 	ldmdaeq	ip!, {}	; <UNPREDICTABLE>
    201c:	4e1b0000 	cdpmi	0, 1, cr0, cr11, cr0, {0}
    2020:	8008000c 	andhi	r0, r8, ip
    2024:	5600000c 	strpl	r0, [r0], -ip
    2028:	1c00000a 	stcne	0, cr0, [r0], {10}
    202c:	0a035101 	beq	d6438 <_Min_Stack_Size+0xd6038>
    2030:	011c02da 			; <UNDEFINED> instruction: 0x011c02da
    2034:	e9030550 	stmdb	r3, {r4, r6, r8, sl}
    2038:	00080012 	andeq	r0, r8, r2, lsl r0
    203c:	000c5c1b 	andeq	r5, ip, fp, lsl ip
    2040:	000c8008 	andeq	r8, ip, r8
    2044:	000a7400 	andeq	r7, sl, r0, lsl #8
    2048:	51011c00 	tstpl	r1, r0, lsl #24
    204c:	02db0a03 	sbcseq	r0, fp, #12288	; 0x3000
    2050:	0550011c 	ldrbeq	r0, [r0, #-284]	; 0xfffffee4
    2054:	0012e903 	andseq	lr, r2, r3, lsl #18
    2058:	6a1b0008 	bvs	6c2080 <_Min_Stack_Size+0x6c1c80>
    205c:	8008000c 	andhi	r0, r8, ip
    2060:	9200000c 	andls	r0, r0, #12
    2064:	1c00000a 	stcne	0, cr0, [r0], {10}
    2068:	0a035101 	beq	d6474 <_Min_Stack_Size+0xd6074>
    206c:	011c02dc 			; <UNDEFINED> instruction: 0x011c02dc
    2070:	e9030550 	stmdb	r3, {r4, r6, r8, sl}
    2074:	00080012 	andeq	r0, r8, r2, lsl r0
    2078:	000cc61b 	andeq	ip, ip, fp, lsl r6
    207c:	000c8008 	andeq	r8, ip, r8
    2080:	000ab000 	andeq	fp, sl, r0
    2084:	51011c00 	tstpl	r1, r0, lsl #24
    2088:	02f30a03 	rscseq	r0, r3, #12288	; 0x3000
    208c:	0550011c 	ldrbeq	r0, [r0, #-284]	; 0xfffffee4
    2090:	0012e903 	andseq	lr, r2, r3, lsl #18
    2094:	f61b0008 			; <UNDEFINED> instruction: 0xf61b0008
    2098:	8008000c 	andhi	r0, r8, ip
    209c:	ce00000c 	cdpgt	0, 0, cr0, cr0, cr12, {0}
    20a0:	1c00000a 	stcne	0, cr0, [r0], {10}
    20a4:	0a035101 	beq	d64b0 <_Min_Stack_Size+0xd60b0>
    20a8:	011c02fa 			; <UNDEFINED> instruction: 0x011c02fa
    20ac:	e9030550 	stmdb	r3, {r4, r6, r8, sl}
    20b0:	00080012 	andeq	r0, r8, r2, lsl r0
    20b4:	000d321d 	andeq	r3, sp, sp, lsl r2
    20b8:	000c9708 	andeq	r9, ip, r8, lsl #14
    20bc:	0d481d00 	stcleq	13, cr1, [r8, #-0]
    20c0:	0c970800 	ldceq	8, cr0, [r7], {0}
    20c4:	681d0000 	ldmdavs	sp, {}	; <UNPREDICTABLE>
    20c8:	9708000d 	strls	r0, [r8, -sp]
    20cc:	1d00000c 	stcne	0, cr0, [r0, #-48]	; 0xffffffd0
    20d0:	08000d86 	stmdaeq	r0, {r1, r2, r7, r8, sl, fp}
    20d4:	00000c97 	muleq	r0, r7, ip
    20d8:	000d961d 	andeq	r9, sp, sp, lsl r6
    20dc:	000c9708 	andeq	r9, ip, r8, lsl #14
    20e0:	0de41b00 	stcleq	11, cr1, [r4]
    20e4:	0c800800 	stceq	8, cr0, [r0], {0}
    20e8:	0b190000 	bleq	6420f0 <_Min_Stack_Size+0x641cf0>
    20ec:	011c0000 	tsteq	ip, r0
    20f0:	630a0351 	movwvs	r0, #41809	; 0xa351
    20f4:	50011c03 	andpl	r1, r1, r3, lsl #24
    20f8:	12e90305 	rscne	r0, r9, #335544320	; 0x14000000
    20fc:	1d000800 	stcne	8, cr0, [r0, #-0]
    2100:	08000df4 	stmdaeq	r0, {r2, r4, r5, r6, r7, r8, sl, fp}
    2104:	00000911 	andeq	r0, r0, r1, lsl r9
    2108:	000e0a1f 	andeq	r0, lr, pc, lsl sl
    210c:	000cea08 	andeq	lr, ip, r8, lsl #20
    2110:	50011c00 	andpl	r1, r1, r0, lsl #24
    2114:	00003301 	andeq	r3, r0, r1, lsl #6
    2118:	045b0410 	ldrbeq	r0, [fp], #-1040	; 0xfffffbf0
    211c:	b7230000 	strlt	r0, [r3, -r0]!
    2120:	48000004 	stmdami	r0, {r2}
    2124:	0c08000e 	stceq	0, cr0, [r8], {14}
    2128:	01000000 	mrseq	r0, (UNDEF: 0)
    212c:	0aa3249c 	beq	fe8cb3a4 <_estack+0xde8c73a4>
    2130:	7e010000 	cdpvc	0, 0, cr0, cr1, cr0, {0}
    2134:	0000a204 	andeq	sl, r0, r4, lsl #4
    2138:	00000000 	andeq	r0, r0, r0
    213c:	00002400 	andeq	r2, r0, r0, lsl #8
    2140:	1e9c0100 	fmlnee	f0, f4, f0
    2144:	00000ab8 			; <UNDEFINED> instruction: 0x00000ab8
    2148:	00048b01 	andeq	r8, r4, r1, lsl #22
    214c:	c0000000 	andgt	r0, r0, r0
    2150:	01000000 	mrseq	r0, (UNDEF: 0)
    2154:	000b9e9c 	muleq	fp, ip, lr
    2158:	06321700 	ldrteq	r1, [r2], -r0, lsl #14
    215c:	8b010000 	blhi	42164 <_Min_Stack_Size+0x41d64>
    2160:	00080704 	andeq	r0, r8, r4, lsl #14
    2164:	0008ad00 	andeq	sl, r8, r0, lsl #26
    2168:	00001f00 	andeq	r1, r0, r0, lsl #30
    216c:	0c800000 	stceq	0, cr0, [r0], {0}
    2170:	011c0000 	tsteq	ip, r0
    2174:	8e0a0351 	mcrhi	3, 0, r0, cr10, cr1, {2}
    2178:	50011c04 	andpl	r1, r1, r4, lsl #24
    217c:	12e90305 	rscne	r0, r9, #335544320	; 0x14000000
    2180:	00000800 	andeq	r0, r0, r0, lsl #16
    2184:	000a7e1e 	andeq	r7, sl, lr, lsl lr
    2188:	04f10100 	ldrbteq	r0, [r1], #256	; 0x100
    218c:	00000000 	andeq	r0, r0, r0
    2190:	00000060 	andeq	r0, r0, r0, rrx
    2194:	0c0d9c01 	stceq	12, cr9, [sp], {1}
    2198:	db170000 	blle	5c21a0 <_Min_Stack_Size+0x5c1da0>
    219c:	01000000 	mrseq	r0, (UNDEF: 0)
    21a0:	0b3204f1 	bleq	c8356c <_Min_Stack_Size+0xc8316c>
    21a4:	08d90000 	ldmeq	r9, {}^	; <UNPREDICTABLE>
    21a8:	0c170000 	ldceq	0, cr0, [r7], {-0}
    21ac:	0100000b 	tsteq	r0, fp
    21b0:	0c0d04f1 	cfstrseq	mvf0, [sp], {241}	; 0xf1
    21b4:	09050000 	stmdbeq	r5, {}	; <UNPREDICTABLE>
    21b8:	001b0000 	andseq	r0, fp, r0
    21bc:	80000000 	andhi	r0, r0, r0
    21c0:	f200000c 	vhadd.s8	d0, d0, d12
    21c4:	1c00000b 	stcne	0, cr0, [r0], {11}
    21c8:	0a035101 	beq	d65d4 <_Min_Stack_Size+0xd61d4>
    21cc:	011c04f4 			; <UNDEFINED> instruction: 0x011c04f4
    21d0:	e9030550 	stmdb	r3, {r4, r6, r8, sl}
    21d4:	00080012 	andeq	r0, r8, r2, lsl r0
    21d8:	0000001f 	andeq	r0, r0, pc, lsl r0
    21dc:	000c8000 	andeq	r8, ip, r0
    21e0:	51011c00 	tstpl	r1, r0, lsl #24
    21e4:	04f50a03 	ldrbteq	r0, [r5], #2563	; 0xa03
    21e8:	0550011c 	ldrbeq	r0, [r0, #-284]	; 0xfffffee4
    21ec:	0012e903 	andseq	lr, r2, r3, lsl #18
    21f0:	10000008 	andne	r0, r0, r8
    21f4:	0000a204 	andeq	sl, r0, r4, lsl #4
    21f8:	0a6a2000 	beq	1a8a200 <_Min_Stack_Size+0x1a89e00>
    21fc:	1c010000 	stcne	0, cr0, [r1], {-0}
    2200:	00000005 	andeq	r0, r0, r5
    2204:	00000200 	andeq	r0, r0, r0, lsl #4
    2208:	1e9c0100 	fmlnee	f0, f4, f0
    220c:	00000b23 	andeq	r0, r0, r3, lsr #22
    2210:	00050b01 	andeq	r0, r5, r1, lsl #22
    2214:	20000000 	andcs	r0, r0, r0
    2218:	01000000 	mrseq	r0, (UNDEF: 0)
    221c:	000c459c 	muleq	ip, ip, r5
    2220:	00001d00 	andeq	r1, r0, r0, lsl #26
    2224:	0c130000 	ldceq	0, cr0, [r3], {-0}
    2228:	25000000 	strcs	r0, [r0, #-0]
    222c:	000009ad 	andeq	r0, r0, sp, lsr #19
    2230:	00a24a09 	adceq	r4, r2, r9, lsl #20
    2234:	95250000 	strls	r0, [r5, #-0]!
    2238:	0900000a 	stmdbeq	r0, {r1, r3}
    223c:	000c5b4b 	andeq	r5, ip, fp, asr #22
    2240:	09d42200 	ldmibeq	r4, {r9, sp}^
    2244:	8c060000 	stchi	0, cr0, [r6], {-0}
    2248:	70000000 	andvc	r0, r0, r0
    224c:	0700000c 	streq	r0, [r0, -ip]
    2250:	000000ad 	andeq	r0, r0, sp, lsr #1
    2254:	32250007 	eorcc	r0, r5, #7
    2258:	0900000a 	stmdbeq	r0, {r1, r3}
    225c:	000c7b4c 	andeq	r7, ip, ip, asr #22
    2260:	0c602200 	sfmeq	f2, 2, [r0], #-0
    2264:	60260000 	eorvs	r0, r6, r0
    2268:	0b000003 	bleq	227c <_Min_Stack_Size+0x1e7c>
    226c:	0c97012c 	ldfeqs	f0, [r7], {44}	; 0x2c
    2270:	11270000 			; <UNDEFINED> instruction: 0x11270000
    2274:	27000003 	strcs	r0, [r0, -r3]
    2278:	000000a2 	andeq	r0, r0, r2, lsr #1
    227c:	06f82800 	ldrbteq	r2, [r8], r0, lsl #16
    2280:	0f0a0000 	svceq	0x000a0000
    2284:	0000a202 	andeq	sl, r0, r2, lsl #4
    2288:	04f52600 	ldrbteq	r2, [r5], #1536	; 0x600
    228c:	0f080000 	svceq	0x00080000
    2290:	000cba01 	andeq	fp, ip, r1, lsl #20
    2294:	0cba2700 	ldceq	7, cr2, [sl]
    2298:	c0270000 	eorgt	r0, r7, r0
    229c:	0000000c 	andeq	r0, r0, ip
    22a0:	01e20410 	mvneq	r0, r0, lsl r4
    22a4:	04100000 	ldreq	r0, [r0], #-0
    22a8:	000004ac 	andeq	r0, r0, ip, lsr #9
    22ac:	000b5a29 	andeq	r5, fp, r9, lsr #20
    22b0:	00030f00 	andeq	r0, r3, r0, lsl #30
    22b4:	000ce300 	andeq	lr, ip, r0, lsl #6
    22b8:	030f2700 	movweq	r2, #63232	; 0xf700
    22bc:	e3270000 			; <UNDEFINED> instruction: 0xe3270000
    22c0:	2700000c 	strcs	r0, [r0, -ip]
    22c4:	000000ad 	andeq	r0, r0, sp, lsr #1
    22c8:	e9041000 	stmdb	r4, {ip}
    22cc:	2a00000c 	bcs	2304 <_Min_Stack_Size+0x1f04>
    22d0:	00080d2b 	andeq	r0, r8, fp, lsr #26
    22d4:	02030a00 	andeq	r0, r3, #0, 20
    22d8:	0000033f 	andeq	r0, r0, pc, lsr r3
    22dc:	0000a227 	andeq	sl, r0, r7, lsr #4
    22e0:	9d000000 	stcls	0, cr0, [r0, #-0]
    22e4:	04000008 	streq	r0, [r0], #-8
    22e8:	00086000 	andeq	r6, r8, r0
    22ec:	5c010400 	cfstrspl	mvf0, [r1], {-0}
    22f0:	01000002 	tsteq	r0, r2
    22f4:	00000ced 	andeq	r0, r0, sp, ror #25
    22f8:	0000017a 	andeq	r0, r0, sl, ror r1
    22fc:	00000278 	andeq	r0, r0, r8, ror r2
    2300:	00000000 	andeq	r0, r0, r0
    2304:	00000d9f 	muleq	r0, pc, sp	; <UNPREDICTABLE>
    2308:	55040102 	strpl	r0, [r4, #-258]	; 0xfffffefe
    230c:	0000010c 	andeq	r0, r0, ip, lsl #2
    2310:	00047303 	andeq	r7, r4, r3, lsl #6
    2314:	23037200 	movwcs	r7, #12800	; 0x3200
    2318:	73000006 	movwvc	r0, #6
    231c:	00006403 	andeq	r6, r0, r3, lsl #8
    2320:	f7037b00 			; <UNDEFINED> instruction: 0xf7037b00
    2324:	7e000000 	cdpvc	0, 0, cr0, cr0, cr0, {0}
    2328:	00050e03 	andeq	r0, r5, r3, lsl #28
    232c:	3a037f00 	bcc	e1f34 <_Min_Stack_Size+0xe1b34>
    2330:	00000003 	andeq	r0, r0, r3
    2334:	00014d03 	andeq	r4, r1, r3, lsl #26
    2338:	17030100 	strne	r0, [r3, -r0, lsl #2]
    233c:	02000004 	andeq	r0, r0, #4
    2340:	0000a203 	andeq	sl, r0, r3, lsl #4
    2344:	33030300 	movwcc	r0, #13056	; 0x3300
    2348:	04000005 	streq	r0, [r0], #-5
    234c:	0000c003 	andeq	ip, r0, r3
    2350:	45030500 	strmi	r0, [r3, #-1280]	; 0xfffffb00
    2354:	06000000 	streq	r0, [r0], -r0
    2358:	00003203 	andeq	r3, r0, r3, lsl #4
    235c:	c7030700 	strgt	r0, [r3, -r0, lsl #14]
    2360:	08000004 	stmdaeq	r0, {r2}
    2364:	00030003 	andeq	r0, r3, r3
    2368:	61030900 	tstvs	r3, r0, lsl #18
    236c:	0a000005 	beq	2388 <_Min_Stack_Size+0x1f88>
    2370:	00036e03 	andeq	r6, r3, r3, lsl #28
    2374:	da030b00 	ble	c4f7c <_Min_Stack_Size+0xc4b7c>
    2378:	0c000003 	stceq	0, cr0, [r0], {3}
    237c:	00039903 	andeq	r9, r3, r3, lsl #18
    2380:	90030d00 	andls	r0, r3, r0, lsl #26
    2384:	0e000004 	cdpeq	0, 0, cr0, cr0, cr4, {0}
    2388:	00054003 	andeq	r4, r5, r3
    238c:	f0030f00 			; <UNDEFINED> instruction: 0xf0030f00
    2390:	10000002 	andne	r0, r0, r2
    2394:	00058103 	andeq	r8, r5, r3, lsl #2
    2398:	e4031100 	str	r1, [r3], #-256	; 0xffffff00
    239c:	12000005 	andne	r0, r0, #5
    23a0:	00055603 	andeq	r5, r5, r3, lsl #12
    23a4:	1a031300 	bne	c6fac <_Min_Stack_Size+0xc6bac>
    23a8:	14000003 	strne	r0, [r0], #-3
    23ac:	00008903 	andeq	r8, r0, r3, lsl #18
    23b0:	bc031500 	cfstr32lt	mvfx1, [r3], {-0}
    23b4:	16000004 	strne	r0, [r0], -r4
    23b8:	0000ed03 	andeq	lr, r0, r3, lsl #26
    23bc:	29031700 	stmdbcs	r3, {r8, r9, sl, ip}
    23c0:	18000005 	stmdane	r0, {r0, r2}
    23c4:	00015d03 	andeq	r5, r1, r3, lsl #26
    23c8:	da031900 	ble	c87d0 <_Min_Stack_Size+0xc83d0>
    23cc:	1a000005 	bne	23e8 <_Min_Stack_Size+0x1fe8>
    23d0:	00045e03 	andeq	r5, r4, r3, lsl #28
    23d4:	34031b00 	strcc	r1, [r3], #-2816	; 0xfffff500
    23d8:	1c000002 	stcne	0, cr0, [r0], {2}
    23dc:	00051b03 	andeq	r1, r5, r3, lsl #22
    23e0:	3d031d00 	stccc	13, cr1, [r3, #-0]
    23e4:	1e000004 	cdpne	0, 0, cr0, cr0, cr4, {0}
    23e8:	0003c503 	andeq	ip, r3, r3, lsl #10
    23ec:	04001f00 	streq	r1, [r0], #-3840	; 0xfffff100
    23f0:	00000212 	andeq	r0, r0, r2, lsl r2
    23f4:	00257e04 	eoreq	r7, r5, r4, lsl #28
    23f8:	01050000 	mrseq	r0, (UNDEF: 5)
    23fc:	0005ab06 	andeq	sl, r5, r6, lsl #22
    2400:	08010500 	stmdaeq	r1, {r8, sl}
    2404:	000005a9 	andeq	r0, r0, r9, lsr #11
    2408:	33050205 	movwcc	r0, #20997	; 0x5205
    240c:	05000004 	streq	r0, [r0, #-4]
    2410:	060b0702 	streq	r0, [fp], -r2, lsl #14
    2414:	e3040000 	movw	r0, #16384	; 0x4000
    2418:	0500000c 	streq	r0, [r0, #-12]
    241c:	00013e3f 	andeq	r3, r1, pc, lsr lr
    2420:	05040500 	streq	r0, [r4, #-1280]	; 0xfffffb00
    2424:	00000331 	andeq	r0, r0, r1, lsr r3
    2428:	0005b704 	andeq	fp, r5, r4, lsl #14
    242c:	50410500 	subpl	r0, r1, r0, lsl #10
    2430:	05000001 	streq	r0, [r0, #-1]
    2434:	01b60704 			; <UNDEFINED> instruction: 0x01b60704
    2438:	08050000 	stmdaeq	r5, {}	; <UNPREDICTABLE>
    243c:	00032c05 	andeq	r2, r3, r5, lsl #24
    2440:	07080500 	streq	r0, [r8, -r0, lsl #10]
    2444:	000001b1 			; <UNDEFINED> instruction: 0x000001b1
    2448:	69050406 	stmdbvs	r5, {r1, r2, sl}
    244c:	0500746e 	streq	r7, [r0, #-1134]	; 0xfffffb92
    2450:	01bb0704 			; <UNDEFINED> instruction: 0x01bb0704
    2454:	e5040000 	str	r0, [r4, #-0]
    2458:	0600000c 	streq	r0, [r0], -ip
    245c:	0001331f 	andeq	r3, r1, pc, lsl r3
    2460:	05b90400 	ldreq	r0, [r9, #1024]!	; 0x400
    2464:	20060000 	andcs	r0, r6, r0
    2468:	00000145 	andeq	r0, r0, r5, asr #2
    246c:	02032007 	andeq	r2, r3, #7
    2470:	021b016a 	andseq	r0, fp, #-2147483622	; 0x8000001a
    2474:	ac080000 	stcge	0, cr0, [r8], {-0}
    2478:	0200000c 	andeq	r0, r0, #12
    247c:	0232016c 	eorseq	r0, r2, #108, 2
    2480:	08000000 	stmdaeq	r0, {}	; <UNPREDICTABLE>
    2484:	00000bbd 			; <UNDEFINED> instruction: 0x00000bbd
    2488:	37016d02 	strcc	r6, [r1, -r2, lsl #26]
    248c:	04000002 	streq	r0, [r0], #-2
    2490:	000c8308 	andeq	r8, ip, r8, lsl #6
    2494:	016e0200 	cmneq	lr, r0, lsl #4
    2498:	00000247 	andeq	r0, r0, r7, asr #4
    249c:	0c070880 	stceq	8, cr0, [r7], {128}	; 0x80
    24a0:	6f020000 	svcvs	0x00020000
    24a4:	00023701 	andeq	r3, r2, r1, lsl #14
    24a8:	9d098400 	cfstrsls	mvf8, [r9, #-0]
    24ac:	0200000c 	andeq	r0, r0, #12
    24b0:	024c0170 	subeq	r0, ip, #112, 2
    24b4:	01000000 	mrseq	r0, (UNDEF: 0)
    24b8:	000cbb09 	andeq	fp, ip, r9, lsl #22
    24bc:	01710200 	cmneq	r1, r0, lsl #4
    24c0:	00000237 	andeq	r0, r0, r7, lsr r2
    24c4:	78090104 	stmdavc	r9, {r2, r8}
    24c8:	0200000c 	andeq	r0, r0, #12
    24cc:	02510172 	subseq	r0, r1, #-2147483620	; 0x8000001c
    24d0:	01800000 	orreq	r0, r0, r0
    24d4:	000bc709 	andeq	ip, fp, r9, lsl #14
    24d8:	01730200 	cmneq	r3, r0, lsl #4
    24dc:	00000237 	andeq	r0, r0, r7, lsr r2
    24e0:	c5090184 	strgt	r0, [r9, #-388]	; 0xfffffe7c
    24e4:	0200000c 	andeq	r0, r0, #12
    24e8:	02560174 	subseq	r0, r6, #116, 2
    24ec:	02000000 	andeq	r0, r0, #0
    24f0:	0050490a 	subseq	r4, r0, sl, lsl #18
    24f4:	76017502 	strvc	r7, [r1], -r2, lsl #10
    24f8:	00000002 	andeq	r0, r0, r2
    24fc:	7e0b0003 	cdpvc	0, 0, cr0, cr11, cr3, {0}
    2500:	2b000001 	blcs	250c <_Min_Stack_Size+0x210c>
    2504:	0c000002 	stceq	0, cr0, [r0], {2}
    2508:	0000022b 	andeq	r0, r0, fp, lsr #4
    250c:	04050000 	streq	r0, [r5], #-0
    2510:	00042007 	andeq	r2, r4, r7
    2514:	021b0d00 	andseq	r0, fp, #0, 26
    2518:	7e0b0000 	cdpvc	0, 0, cr0, cr11, cr0, {0}
    251c:	47000001 	strmi	r0, [r0, -r1]
    2520:	0c000002 	stceq	0, cr0, [r0], {2}
    2524:	0000022b 	andeq	r0, r0, fp, lsr #4
    2528:	1b0d001e 	blne	3425a8 <_Min_Stack_Size+0x3421a8>
    252c:	0d000002 	stceq	0, cr0, [r0, #-8]
    2530:	0000021b 	andeq	r0, r0, fp, lsl r2
    2534:	00021b0d 	andeq	r1, r2, sp, lsl #22
    2538:	017e0b00 	cmneq	lr, r0, lsl #22
    253c:	02660000 	rsbeq	r0, r6, #0
    2540:	2b0c0000 	blcs	302548 <_Min_Stack_Size+0x302148>
    2544:	3f000002 	svccc	0x00000002
    2548:	017e0b00 	cmneq	lr, r0, lsl #22
    254c:	02760000 	rsbseq	r0, r6, #0
    2550:	2b0c0000 	blcs	302558 <_Min_Stack_Size+0x302158>
    2554:	07000002 	streq	r0, [r0, -r2]
    2558:	02660d00 	rsbeq	r0, r6, #0, 26
    255c:	400e0000 	andmi	r0, lr, r0
    2560:	0200000c 	andeq	r0, r0, #12
    2564:	01890176 	orreq	r0, r9, r6, ror r1
    2568:	280f0000 	stmdacs	pc, {}	; <UNPREDICTABLE>
    256c:	06018502 	streq	r8, [r1], -r2, lsl #10
    2570:	08000003 	stmdaeq	r0, {r0, r1}
    2574:	00000bb7 			; <UNDEFINED> instruction: 0x00000bb7
    2578:	06018702 	streq	r8, [r1], -r2, lsl #14
    257c:	00000003 	andeq	r0, r0, r3
    2580:	000c0208 	andeq	r0, ip, r8, lsl #4
    2584:	01880200 	orreq	r0, r8, r0, lsl #4
    2588:	0000030b 	andeq	r0, r0, fp, lsl #6
    258c:	0bbd0804 	bleq	fef445a4 <_estack+0xdef405a4>
    2590:	89020000 	stmdbhi	r2, {}	; <UNPREDICTABLE>
    2594:	00017e01 	andeq	r7, r1, r1, lsl #28
    2598:	25080800 	strcs	r0, [r8, #-2048]	; 0xfffff800
    259c:	0200000d 	andeq	r0, r0, #13
    25a0:	030b018a 	movweq	r0, #45450	; 0xb18a
    25a4:	100c0000 	andne	r0, ip, r0
    25a8:	00524353 	subseq	r4, r2, r3, asr r3
    25ac:	0b018b02 	bleq	651bc <_Min_Stack_Size+0x64dbc>
    25b0:	10000003 	andne	r0, r0, r3
    25b4:	52434310 	subpl	r4, r3, #16, 6	; 0x40000000
    25b8:	018c0200 	orreq	r0, ip, r0, lsl #4
    25bc:	0000030b 	andeq	r0, r0, fp, lsl #6
    25c0:	0cb10814 	ldceq	8, cr0, [r1], #80	; 0x50
    25c4:	8d020000 	stchi	0, cr0, [r2, #-0]
    25c8:	00017e01 	andeq	r7, r1, r1, lsl #28
    25cc:	53101800 	tstpl	r0, #0, 16
    25d0:	02005048 	andeq	r5, r0, #72	; 0x48
    25d4:	0320018e 			; <UNDEFINED> instruction: 0x0320018e
    25d8:	081c0000 	ldmdaeq	ip, {}	; <UNPREDICTABLE>
    25dc:	00000c7d 	andeq	r0, r0, sp, ror ip
    25e0:	0b018f02 	bleq	661f0 <_Min_Stack_Size+0x65df0>
    25e4:	24000003 	strcs	r0, [r0], #-3
    25e8:	030b1100 	movweq	r1, #45312	; 0xb100
    25ec:	7e0d0000 	cdpvc	0, 0, cr0, cr13, cr0, {0}
    25f0:	0b000001 	bleq	25fc <_Min_Stack_Size+0x21fc>
    25f4:	0000017e 	andeq	r0, r0, lr, ror r1
    25f8:	00000320 	andeq	r0, r0, r0, lsr #6
    25fc:	00022b0c 	andeq	r2, r2, ip, lsl #22
    2600:	0d000100 	stfeqs	f0, [r0, #-0]
    2604:	00000310 	andeq	r0, r0, r0, lsl r3
    2608:	000c370e 	andeq	r3, ip, lr, lsl #14
    260c:	01900200 	orrseq	r0, r0, r0, lsl #4
    2610:	00000287 	andeq	r0, r0, r7, lsl #5
    2614:	f002100f 			; <UNDEFINED> instruction: 0xf002100f
    2618:	00036f01 	andeq	r6, r3, r1, lsl #30
    261c:	07de0800 	ldrbeq	r0, [lr, r0, lsl #16]
    2620:	f2020000 	vhadd.s8	d0, d2, d0
    2624:	00030b01 	andeq	r0, r3, r1, lsl #22
    2628:	55080000 	strpl	r0, [r8, #-0]
    262c:	02000008 	andeq	r0, r0, #8
    2630:	030b01f3 	movweq	r0, #45555	; 0xb1f3
    2634:	10040000 	andne	r0, r4, r0
    2638:	004c4156 	subeq	r4, ip, r6, asr r1
    263c:	0b01f402 	bleq	7f64c <_Min_Stack_Size+0x7f24c>
    2640:	08000003 	stmdaeq	r0, {r0, r1}
    2644:	00075708 	andeq	r5, r7, r8, lsl #14
    2648:	01f50200 	mvnseq	r0, r0, lsl #4
    264c:	00000306 	andeq	r0, r0, r6, lsl #6
    2650:	e30e000c 	movw	r0, #57356	; 0xe00c
    2654:	02000007 	andeq	r0, r0, #7
    2658:	033101f6 	teqeq	r1, #-2147483587	; 0x8000003d
    265c:	08050000 	stmdaeq	r5, {}	; <UNPREDICTABLE>
    2660:	00040b04 	andeq	r0, r4, r4, lsl #22
    2664:	88041200 	stmdahi	r4, {r9, ip}
    2668:	05000003 	streq	r0, [r0, #-3]
    266c:	05b20801 	ldreq	r0, [r2, #2049]!	; 0x801
    2670:	20130000 	andscs	r0, r3, r0
    2674:	02000001 	andeq	r0, r0, #1
    2678:	b50302b0 	strlt	r0, [r3, #-688]	; 0xfffffd50
    267c:	14000003 	strne	r0, [r0], #-3
    2680:	000000f2 	strdeq	r0, [r0], -r2
    2684:	0c02b002 	stceq	0, cr11, [r2], {2}
    2688:	14000001 	strne	r0, [r0], #-1
    268c:	00000b93 	muleq	r0, r3, fp
    2690:	7e02b002 	cdpvc	0, 0, cr11, cr2, cr2, {0}
    2694:	00000001 	andeq	r0, r0, r1
    2698:	000bb115 	andeq	fp, fp, r5, lsl r1
    269c:	01ab0300 			; <UNDEFINED> instruction: 0x01ab0300
    26a0:	0bed1503 	bleq	ffb47ab4 <_estack+0xdfb43ab4>
    26a4:	75030000 	strvc	r0, [r3, #-0]
    26a8:	1c160301 	ldcne	3, cr0, [r6], {1}
    26ac:	01000001 	tsteq	r0, r1
    26b0:	000e5498 	muleq	lr, r8, r4
    26b4:	00007808 	andeq	r7, r0, r8, lsl #16
    26b8:	659c0100 	ldrvs	r0, [ip, #256]	; 0x100
    26bc:	17000004 	strne	r0, [r0, -r4]
    26c0:	000000f2 	strdeq	r0, [r0], -r2
    26c4:	010c9801 	tsteq	ip, r1, lsl #16
    26c8:	09310000 	ldmdbeq	r1!, {}	; <UNPREDICTABLE>
    26cc:	27170000 	ldrcs	r0, [r7, -r0]
    26d0:	0100000c 	tsteq	r0, ip
    26d4:	00017e98 	muleq	r1, r8, lr
    26d8:	00095200 	andeq	r5, r9, r0, lsl #4
    26dc:	0b871700 	bleq	fe1c82e4 <_estack+0xde1c42e4>
    26e0:	98010000 	stmdals	r1, {}	; <UNPREDICTABLE>
    26e4:	0000017e 	andeq	r0, r0, lr, ror r1
    26e8:	00000997 	muleq	r0, r7, r9
    26ec:	00038f18 	andeq	r8, r3, r8, lsl pc
    26f0:	000e6800 	andeq	r6, lr, r0, lsl #16
    26f4:	00005608 	andeq	r5, r0, r8, lsl #12
    26f8:	4b9c0100 	blmi	fe702b00 <_estack+0xde6feb00>
    26fc:	19000004 	stmdbne	r0, {r2}
    2700:	000003a8 	andeq	r0, r0, r8, lsr #7
    2704:	000009b8 			; <UNDEFINED> instruction: 0x000009b8
    2708:	00039c19 	andeq	r9, r3, r9, lsl ip
    270c:	0009f200 	andeq	pc, r9, r0, lsl #4
    2710:	0e6c1a00 	vmuleq.f32	s3, s24, s0
    2714:	002c0800 	eoreq	r0, ip, r0, lsl #16
    2718:	a8190000 	ldmdage	r9, {}	; <UNPREDICTABLE>
    271c:	10000003 	andne	r0, r0, r3
    2720:	1900000a 	stmdbne	r0, {r1, r3}
    2724:	0000039c 	muleq	r0, ip, r3
    2728:	00000a31 	andeq	r0, r0, r1, lsr sl
    272c:	661b0000 	ldrvs	r0, [fp], -r0
    2730:	8d08000e 	stchi	0, cr0, [r8, #-56]	; 0xffffffc8
    2734:	1c000008 	stcne	0, cr0, [r0], {8}
    2738:	08025101 	stmdaeq	r2, {r0, r8, ip, lr}
    273c:	50011c9b 	mulpl	r1, fp, ip
    2740:	13090305 	movwne	r0, #37637	; 0x9305
    2744:	00000800 	andeq	r0, r0, r0, lsl #16
    2748:	00016b13 	andeq	r6, r1, r3, lsl fp
    274c:	02750200 	rsbseq	r0, r5, #0, 4
    2750:	00047f03 	andeq	r7, r4, r3, lsl #30
    2754:	00f21400 	rscseq	r1, r2, r0, lsl #8
    2758:	75020000 	strvc	r0, [r2, #-0]
    275c:	00010c02 	andeq	r0, r1, r2, lsl #24
    2760:	67160000 	ldrvs	r0, [r6, -r0]
    2764:	01000001 	tsteq	r0, r1
    2768:	000ecca8 	andeq	ip, lr, r8, lsr #25
    276c:	00002808 	andeq	r2, r0, r8, lsl #16
    2770:	da9c0100 	ble	fe702b78 <_estack+0xde6feb78>
    2774:	17000004 	strne	r0, [r0, -r4]
    2778:	000000f2 	strdeq	r0, [r0], -r2
    277c:	010ca801 	tsteq	ip, r1, lsl #16
    2780:	0a440000 	beq	1102788 <_Min_Stack_Size+0x1102388>
    2784:	651d0000 	ldrvs	r0, [sp, #-0]
    2788:	da000004 	ble	27a0 <_Min_Stack_Size+0x23a0>
    278c:	f808000e 			; <UNDEFINED> instruction: 0xf808000e
    2790:	01000001 	tsteq	r0, r1
    2794:	0004c0ae 	andeq	ip, r4, lr, lsr #1
    2798:	04721900 	ldrbteq	r1, [r2], #-2304	; 0xfffff700
    279c:	0a650000 	beq	19427a4 <_Min_Stack_Size+0x19423a4>
    27a0:	1b000000 	blne	27a8 <_Min_Stack_Size+0x23a8>
    27a4:	08000eda 	stmdaeq	r0, {r1, r3, r4, r6, r7, r9, sl, fp}
    27a8:	0000088d 	andeq	r0, r0, sp, lsl #17
    27ac:	0251011c 	subseq	r0, r1, #28, 2
    27b0:	011cab08 	tsteq	ip, r8, lsl #22
    27b4:	09030550 	stmdbeq	r3, {r4, r6, r8, sl}
    27b8:	00080013 	andeq	r0, r8, r3, lsl r0
    27bc:	0cd31300 	ldcleq	3, cr1, [r3], {0}
    27c0:	80020000 	andhi	r0, r2, r0
    27c4:	04f40302 	ldrbteq	r0, [r4], #770	; 0x302
    27c8:	f2140000 	vhadd.s16	d0, d4, d0
    27cc:	02000000 	andeq	r0, r0, #0
    27d0:	010c0280 	smlabbeq	ip, r0, r2, r0
    27d4:	16000000 	strne	r0, [r0], -r0
    27d8:	00000ccf 	andeq	r0, r0, pc, asr #25
    27dc:	0000b801 	andeq	fp, r0, r1, lsl #16
    27e0:	00280000 	eoreq	r0, r8, r0
    27e4:	9c010000 	stcls	0, cr0, [r1], {-0}
    27e8:	0000054f 	andeq	r0, r0, pc, asr #10
    27ec:	0000f217 	andeq	pc, r0, r7, lsl r2	; <UNPREDICTABLE>
    27f0:	0cb80100 	ldfeqs	f0, [r8]
    27f4:	78000001 	stmdavc	r0, {r0}
    27f8:	1d00000a 	stcne	0, cr0, [r0, #-40]	; 0xffffffd8
    27fc:	000004da 	ldrdeq	r0, [r0], -sl
    2800:	00000000 	andeq	r0, r0, r0
    2804:	00000210 	andeq	r0, r0, r0, lsl r2
    2808:	0535be01 	ldreq	fp, [r5, #-3585]!	; 0xfffff1ff
    280c:	e7190000 	ldr	r0, [r9, -r0]
    2810:	99000004 	stmdbls	r0, {r2}
    2814:	0000000a 	andeq	r0, r0, sl
    2818:	0000001b 	andeq	r0, r0, fp, lsl r0
    281c:	00088d00 	andeq	r8, r8, r0, lsl #26
    2820:	51011c00 	tstpl	r1, r0, lsl #24
    2824:	1cbb0802 	ldcne	8, cr0, [fp], #8
    2828:	03055001 	movweq	r5, #20481	; 0x5001
    282c:	08001309 	stmdaeq	r0, {r0, r3, r8, r9, ip}
    2830:	a0150000 	andsge	r0, r5, r0
    2834:	0200000b 	andeq	r0, r0, #11
    2838:	160302da 			; <UNDEFINED> instruction: 0x160302da
    283c:	00000b9c 	muleq	r0, ip, fp
    2840:	0000c501 	andeq	ip, r0, r1, lsl #10
    2844:	001c0000 	andseq	r0, ip, r0
    2848:	9c010000 	stcls	0, cr0, [r1], {-0}
    284c:	000005ae 	andeq	r0, r0, lr, lsr #11
    2850:	00054f1e 	andeq	r4, r5, lr, lsl pc
    2854:	00000000 	andeq	r0, r0, r0
    2858:	00001c00 	andeq	r1, r0, r0, lsl #24
    285c:	1fc80100 	svcne	0x00c80100
    2860:	000003b5 			; <UNDEFINED> instruction: 0x000003b5
    2864:	00000000 	andeq	r0, r0, r0
    2868:	00000004 	andeq	r0, r0, r4
    286c:	1f02dc02 	svcne	0x0002dc02
    2870:	000003b5 			; <UNDEFINED> instruction: 0x000003b5
    2874:	00000000 	andeq	r0, r0, r0
    2878:	00000004 	andeq	r0, r0, r4
    287c:	1f02e002 	svcne	0x0002e002
    2880:	000003be 			; <UNDEFINED> instruction: 0x000003be
    2884:	00000000 	andeq	r0, r0, r0
    2888:	0000000e 	andeq	r0, r0, lr
    288c:	0002e402 	andeq	lr, r2, r2, lsl #8
    2890:	0bf32000 	bleq	ffcca898 <_estack+0xdfcc6898>
    2894:	01020000 	mrseq	r0, (UNDEF: 2)
    2898:	00017e03 	andeq	r7, r1, r3, lsl #28
    289c:	05cc0300 	strbeq	r0, [ip, #768]	; 0x300
    28a0:	81140000 	tsthi	r4, r0
    28a4:	0200000b 	andeq	r0, r0, #11
    28a8:	017e0301 	cmneq	lr, r1, lsl #6
    28ac:	21000000 	mrscs	r0, (UNDEF: 0)
    28b0:	0000081a 	andeq	r0, r0, sl, lsl r8
    28b4:	017ed201 	cmneq	lr, r1, lsl #4
    28b8:	0ef40000 	cdpeq	0, 15, cr0, cr4, cr0, {0}
    28bc:	00340800 	eorseq	r0, r4, r0, lsl #16
    28c0:	9c010000 	stcls	0, cr0, [r1], {-0}
    28c4:	00000649 	andeq	r0, r0, r9, asr #12
    28c8:	000ca217 	andeq	sl, ip, r7, lsl r2
    28cc:	7ed20100 	cdpvc	1, 13, cr0, cr2, cr0, {0}
    28d0:	ac000001 	stcge	0, cr0, [r0], {1}
    28d4:	1e00000a 	cdpne	0, 0, cr0, cr0, cr10, {0}
    28d8:	000005ae 	andeq	r0, r0, lr, lsr #11
    28dc:	08000ef4 	stmdaeq	r0, {r2, r4, r5, r6, r7, r9, sl, fp}
    28e0:	00000026 	andeq	r0, r0, r6, lsr #32
    28e4:	bf19d401 	svclt	0x0019d401
    28e8:	ac000005 	stcge	0, cr0, [r0], {5}
    28ec:	2200000a 	andcs	r0, r0, #10
    28f0:	0000038f 	andeq	r0, r0, pc, lsl #7
    28f4:	08000efe 	stmdaeq	r0, {r1, r2, r3, r4, r5, r6, r7, r9, sl, fp}
    28f8:	00000228 	andeq	r0, r0, r8, lsr #4
    28fc:	19030902 	stmdbne	r3, {r1, r8, fp}
    2900:	000003a8 	andeq	r0, r0, r8, lsr #7
    2904:	00000aea 	andeq	r0, r0, sl, ror #21
    2908:	00039c19 	andeq	r9, r3, r9, lsl ip
    290c:	000afe00 	andeq	pc, sl, r0, lsl #28
    2910:	02282300 	eoreq	r2, r8, #0, 6
    2914:	a8190000 	ldmdage	r9, {}	; <UNPREDICTABLE>
    2918:	ea000003 	b	292c <_Min_Stack_Size+0x252c>
    291c:	1900000a 	stmdbne	r0, {r1, r3}
    2920:	0000039c 	muleq	r0, ip, r3
    2924:	00000afe 	strdeq	r0, [r0], -lr
    2928:	00000000 	andeq	r0, r0, r0
    292c:	000c8c20 	andeq	r8, ip, r0, lsr #24
    2930:	02c80200 	sbceq	r0, r8, #0, 4
    2934:	0000017e 	andeq	r0, r0, lr, ror r1
    2938:	00066703 	andeq	r6, r6, r3, lsl #14
    293c:	00f21400 	rscseq	r1, r2, r0, lsl #8
    2940:	c8020000 	stmdagt	r2, {}	; <UNPREDICTABLE>
    2944:	00010c02 	andeq	r0, r1, r2, lsl #24
    2948:	88210000 	stmdahi	r1!, {}	; <UNPREDICTABLE>
    294c:	0100000c 	tsteq	r0, ip
    2950:	00017ef2 	strdeq	r7, [r1], -r2
    2954:	00000000 	andeq	r0, r0, r0
    2958:	00003800 	andeq	r3, r0, r0, lsl #16
    295c:	a99c0100 	ldmibge	ip, {r8}
    2960:	17000006 	strne	r0, [r0, -r6]
    2964:	000000f2 	strdeq	r0, [r0], -r2
    2968:	010cf201 	tsteq	ip, r1, lsl #4	; <UNPREDICTABLE>
    296c:	0b130000 	bleq	4c2974 <_Min_Stack_Size+0x4c2574>
    2970:	491e0000 	ldmdbmi	lr, {}	; <UNPREDICTABLE>
    2974:	00000006 	andeq	r0, r0, r6
    2978:	2e000000 	cdpcs	0, 0, cr0, cr0, cr0, {0}
    297c:	01000000 	mrseq	r0, (UNDEF: 0)
    2980:	065a19f5 			; <UNDEFINED> instruction: 0x065a19f5
    2984:	0b130000 	bleq	4c298c <_Min_Stack_Size+0x4c258c>
    2988:	00000000 	andeq	r0, r0, r0
    298c:	000c6513 	andeq	r6, ip, r3, lsl r5
    2990:	02980200 	addseq	r0, r8, #0, 4
    2994:	0006c303 	andeq	ip, r6, r3, lsl #6
    2998:	00f21400 	rscseq	r1, r2, r0, lsl #8
    299c:	98020000 	stmdals	r2, {}	; <UNPREDICTABLE>
    29a0:	00010c02 	andeq	r0, r1, r2, lsl #24
    29a4:	61160000 	tstvs	r6, r0
    29a8:	0100000c 	tsteq	r0, ip
    29ac:	000000ff 	strdeq	r0, [r0], -pc	; <UNPREDICTABLE>
    29b0:	00002800 	andeq	r2, r0, r0, lsl #16
    29b4:	209c0100 	addscs	r0, ip, r0, lsl #2
    29b8:	17000007 	strne	r0, [r0, -r7]
    29bc:	000000f2 	strdeq	r0, [r0], -r2
    29c0:	010cff01 	tsteq	ip, r1, lsl #30	; <UNPREDICTABLE>
    29c4:	0b340000 	bleq	d029cc <_Min_Stack_Size+0xd025cc>
    29c8:	a9240000 	stmdbge	r4!, {}	; <UNPREDICTABLE>
    29cc:	00000006 	andeq	r0, r0, r6
    29d0:	48000000 	stmdami	r0, {}	; <UNPREDICTABLE>
    29d4:	01000002 	tsteq	r0, r2
    29d8:	07050105 	streq	r0, [r5, -r5, lsl #2]
    29dc:	b6190000 	ldrlt	r0, [r9], -r0
    29e0:	55000006 	strpl	r0, [r0, #-6]
    29e4:	0000000b 	andeq	r0, r0, fp
    29e8:	0000001b 	andeq	r0, r0, fp, lsl r0
    29ec:	00088d00 	andeq	r8, r8, r0, lsl #26
    29f0:	51011c00 	tstpl	r1, r0, lsl #24
    29f4:	01020a03 	tsteq	r2, r3, lsl #20
    29f8:	0550011c 	ldrbeq	r0, [r0, #-284]	; 0xfffffee4
    29fc:	00130903 	andseq	r0, r3, r3, lsl #18
    2a00:	20000008 	andcs	r0, r0, r8
    2a04:	00000c14 	andeq	r0, r0, r4, lsl ip
    2a08:	7e028d02 	cdpvc	13, 0, cr8, cr2, cr2, {0}
    2a0c:	03000001 	movweq	r0, #1
    2a10:	0000073e 	andeq	r0, r0, lr, lsr r7
    2a14:	0000f214 	andeq	pc, r0, r4, lsl r2	; <UNPREDICTABLE>
    2a18:	028d0200 	addeq	r0, sp, #0, 4
    2a1c:	0000010c 	andeq	r0, r0, ip, lsl #2
    2a20:	0c102500 	cfldr32eq	mvfx2, [r0], {-0}
    2a24:	11010000 	mrsne	r0, (UNDEF: 1)
    2a28:	00017e01 	andeq	r7, r1, r1, lsl #28
    2a2c:	00000000 	andeq	r0, r0, r0
    2a30:	00002c00 	andeq	r2, r0, r0, lsl #24
    2a34:	a19c0100 	orrsge	r0, ip, r0, lsl #2
    2a38:	26000007 	strcs	r0, [r0], -r7
    2a3c:	000000f2 	strdeq	r0, [r0], -r2
    2a40:	0c011101 	stfeqs	f1, [r1], {1}
    2a44:	68000001 	stmdavs	r0, {r0}
    2a48:	2400000b 	strcs	r0, [r0], #-11
    2a4c:	00000720 	andeq	r0, r0, r0, lsr #14
    2a50:	00000000 	andeq	r0, r0, r0
    2a54:	00000260 	andeq	r0, r0, r0, ror #4
    2a58:	86011701 	strhi	r1, [r1], -r1, lsl #14
    2a5c:	19000007 	stmdbne	r0, {r0, r1, r2}
    2a60:	00000731 	andeq	r0, r0, r1, lsr r7
    2a64:	00000b89 	andeq	r0, r0, r9, lsl #23
    2a68:	00001b00 	andeq	r1, r0, r0, lsl #22
    2a6c:	088d0000 	stmeq	sp, {}	; <UNPREDICTABLE>
    2a70:	011c0000 	tsteq	ip, r0
    2a74:	140a0351 	strne	r0, [sl], #-849	; 0xfffffcaf
    2a78:	50011c01 	andpl	r1, r1, r1, lsl #24
    2a7c:	13090305 	movwne	r0, #37637	; 0x9305
    2a80:	00000800 	andeq	r0, r0, r0, lsl #16
    2a84:	000b6c13 	andeq	r6, fp, r3, lsl ip
    2a88:	02a30200 	adceq	r0, r3, #0, 4
    2a8c:	0007bb03 	andeq	fp, r7, r3, lsl #22
    2a90:	00f21400 	rscseq	r1, r2, r0, lsl #8
    2a94:	a3020000 	movwge	r0, #8192	; 0x2000
    2a98:	00010c02 	andeq	r0, r1, r2, lsl #24
    2a9c:	68270000 	stmdavs	r7!, {}	; <UNPREDICTABLE>
    2aa0:	0100000b 	tsteq	r0, fp
    2aa4:	00000121 	andeq	r0, r0, r1, lsr #2
    2aa8:	002c0000 	eoreq	r0, ip, r0
    2aac:	9c010000 	stcls	0, cr0, [r1], {-0}
    2ab0:	0000081a 	andeq	r0, r0, sl, lsl r8
    2ab4:	0000f226 	andeq	pc, r0, r6, lsr #4
    2ab8:	01210100 			; <UNDEFINED> instruction: 0x01210100
    2abc:	0000010c 	andeq	r0, r0, ip, lsl #2
    2ac0:	00000b9c 	muleq	r0, ip, fp
    2ac4:	0007a128 	andeq	sl, r7, r8, lsr #2
    2ac8:	00000000 	andeq	r0, r0, r0
    2acc:	00001200 	andeq	r1, r0, r0, lsl #4
    2ad0:	01270100 			; <UNDEFINED> instruction: 0x01270100
    2ad4:	000007ff 	strdeq	r0, [r0], -pc	; <UNPREDICTABLE>
    2ad8:	0007ae19 	andeq	sl, r7, r9, lsl lr
    2adc:	000bbd00 	andeq	fp, fp, r0, lsl #26
    2ae0:	001b0000 	andseq	r0, fp, r0
    2ae4:	8d000000 	stchi	0, cr0, [r0, #-0]
    2ae8:	1c000008 	stcne	0, cr0, [r0], {8}
    2aec:	0a035101 	beq	d6ef8 <_Min_Stack_Size+0xd6af8>
    2af0:	011c0124 	tsteq	ip, r4, lsr #2
    2af4:	09030550 	stmdbeq	r3, {r4, r6, r8, sl}
    2af8:	00080013 	andeq	r0, r8, r3, lsl r0
    2afc:	0bd12700 	bleq	ff44c704 <_estack+0xdf448704>
    2b00:	32010000 	andcc	r0, r1, #0
    2b04:	00000001 	andeq	r0, r0, r1
    2b08:	00003000 	andeq	r3, r0, r0
    2b0c:	5b9c0100 	blpl	fe702f14 <_estack+0xde6fef14>
    2b10:	26000008 	strcs	r0, [r0], -r8
    2b14:	0000007f 	andeq	r0, r0, pc, ror r0
    2b18:	7e013201 	cdpvc	2, 0, cr3, cr1, cr1, {0}
    2b1c:	d0000001 	andle	r0, r0, r1
    2b20:	1b00000b 	blne	2b54 <_Min_Stack_Size+0x2754>
    2b24:	00000000 	andeq	r0, r0, r0
    2b28:	0000088d 	andeq	r0, r0, sp, lsl #17
    2b2c:	0351011c 	cmpeq	r1, #28, 2
    2b30:	1c01350a 	cfstr32ne	mvfx3, [r1], {10}
    2b34:	03055001 	movweq	r5, #20481	; 0x5001
    2b38:	08001309 	stmdaeq	r0, {r0, r3, r8, r9, ip}
    2b3c:	10290000 	eorne	r0, r9, r0
    2b40:	0100000d 	tsteq	r0, sp
    2b44:	0000014d 	andeq	r0, r0, sp, asr #2
    2b48:	00020000 	andeq	r0, r2, r0
    2b4c:	9c010000 	stcls	0, cr0, [r1], {-0}
    2b50:	000c4a27 	andeq	r4, ip, r7, lsr #20
    2b54:	01440100 	mrseq	r0, (UNDEF: 84)
    2b58:	00000000 	andeq	r0, r0, r0
    2b5c:	00000008 	andeq	r0, r0, r8
    2b60:	088d9c01 	stmeq	sp, {r0, sl, fp, ip, pc}
    2b64:	002a0000 	eoreq	r0, sl, r0
    2b68:	5b000000 	blpl	2b70 <_Min_Stack_Size+0x2770>
    2b6c:	00000008 	andeq	r0, r0, r8
    2b70:	0003602b 	andeq	r6, r3, fp, lsr #32
    2b74:	012c0700 			; <UNDEFINED> instruction: 0x012c0700
    2b78:	0003822c 	andeq	r8, r3, ip, lsr #4
    2b7c:	017e2c00 	cmneq	lr, r0, lsl #24
    2b80:	00000000 	andeq	r0, r0, r0
    2b84:	000007e8 	andeq	r0, r0, r8, ror #15
    2b88:	0adf0004 	beq	ff7c2ba0 <_estack+0xdf7beba0>
    2b8c:	01040000 	mrseq	r0, (UNDEF: 4)
    2b90:	0000025c 	andeq	r0, r0, ip, asr r2
    2b94:	000d9701 	andeq	r9, sp, r1, lsl #14
    2b98:	00017a00 	andeq	r7, r1, r0, lsl #20
    2b9c:	00030000 	andeq	r0, r3, r0
    2ba0:	00000000 	andeq	r0, r0, r0
    2ba4:	00109000 	andseq	r9, r0, r0
    2ba8:	02010200 	andeq	r0, r1, #0, 4
    2bac:	00010c55 	andeq	r0, r1, r5, asr ip
    2bb0:	04730300 	ldrbteq	r0, [r3], #-768	; 0xfffffd00
    2bb4:	03720000 	cmneq	r2, #0
    2bb8:	00000623 	andeq	r0, r0, r3, lsr #12
    2bbc:	00640373 	rsbeq	r0, r4, r3, ror r3
    2bc0:	037b0000 	cmneq	fp, #0
    2bc4:	000000f7 	strdeq	r0, [r0], -r7
    2bc8:	050e037e 	streq	r0, [lr, #-894]	; 0xfffffc82
    2bcc:	037f0000 	cmneq	pc, #0
    2bd0:	0000033a 	andeq	r0, r0, sl, lsr r3
    2bd4:	014d0300 	mrseq	r0, (UNDEF: 125)
    2bd8:	03010000 	movweq	r0, #4096	; 0x1000
    2bdc:	00000417 	andeq	r0, r0, r7, lsl r4
    2be0:	00a20302 	adceq	r0, r2, r2, lsl #6
    2be4:	03030000 	movweq	r0, #12288	; 0x3000
    2be8:	00000533 	andeq	r0, r0, r3, lsr r5
    2bec:	00c00304 	sbceq	r0, r0, r4, lsl #6
    2bf0:	03050000 	movweq	r0, #20480	; 0x5000
    2bf4:	00000045 	andeq	r0, r0, r5, asr #32
    2bf8:	00320306 	eorseq	r0, r2, r6, lsl #6
    2bfc:	03070000 	movweq	r0, #28672	; 0x7000
    2c00:	000004c7 	andeq	r0, r0, r7, asr #9
    2c04:	03000308 	movweq	r0, #776	; 0x308
    2c08:	03090000 	movweq	r0, #36864	; 0x9000
    2c0c:	00000561 	andeq	r0, r0, r1, ror #10
    2c10:	036e030a 	cmneq	lr, #671088640	; 0x28000000
    2c14:	030b0000 	movweq	r0, #45056	; 0xb000
    2c18:	000003da 	ldrdeq	r0, [r0], -sl
    2c1c:	0399030c 	orrseq	r0, r9, #12, 6	; 0x30000000
    2c20:	030d0000 	movweq	r0, #53248	; 0xd000
    2c24:	00000490 	muleq	r0, r0, r4
    2c28:	0540030e 	strbeq	r0, [r0, #-782]	; 0xfffffcf2
    2c2c:	030f0000 	movweq	r0, #61440	; 0xf000
    2c30:	000002f0 	strdeq	r0, [r0], -r0	; <UNPREDICTABLE>
    2c34:	05810310 	streq	r0, [r1, #784]	; 0x310
    2c38:	03110000 	tsteq	r1, #0
    2c3c:	000005e4 	andeq	r0, r0, r4, ror #11
    2c40:	05560312 	ldrbeq	r0, [r6, #-786]	; 0xfffffcee
    2c44:	03130000 	tsteq	r3, #0
    2c48:	0000031a 	andeq	r0, r0, sl, lsl r3
    2c4c:	00890314 	addeq	r0, r9, r4, lsl r3
    2c50:	03150000 	tsteq	r5, #0
    2c54:	000004bc 			; <UNDEFINED> instruction: 0x000004bc
    2c58:	00ed0316 	rsceq	r0, sp, r6, lsl r3
    2c5c:	03170000 	tsteq	r7, #0
    2c60:	00000529 	andeq	r0, r0, r9, lsr #10
    2c64:	015d0318 	cmpeq	sp, r8, lsl r3
    2c68:	03190000 	tsteq	r9, #0
    2c6c:	000005da 	ldrdeq	r0, [r0], -sl
    2c70:	045e031a 	ldrbeq	r0, [lr], #-794	; 0xfffffce6
    2c74:	031b0000 	tsteq	fp, #0
    2c78:	00000234 	andeq	r0, r0, r4, lsr r2
    2c7c:	051b031c 	ldreq	r0, [fp, #-796]	; 0xfffffce4
    2c80:	031d0000 	tsteq	sp, #0
    2c84:	0000043d 	andeq	r0, r0, sp, lsr r4
    2c88:	03c5031e 	biceq	r0, r5, #2013265920	; 0x78000000
    2c8c:	001f0000 	andseq	r0, pc, r0
    2c90:	00021204 	andeq	r1, r2, r4, lsl #4
    2c94:	257e0200 	ldrbcs	r0, [lr, #-512]!	; 0xfffffe00
    2c98:	05000000 	streq	r0, [r0, #-0]
    2c9c:	05ab0601 	streq	r0, [fp, #1537]!	; 0x601
    2ca0:	d0040000 	andle	r0, r4, r0
    2ca4:	03000004 	movweq	r0, #4
    2ca8:	0001291d 	andeq	r2, r1, sp, lsl r9
    2cac:	08010500 	stmdaeq	r1, {r8, sl}
    2cb0:	000005a9 	andeq	r0, r0, r9, lsr #11
    2cb4:	33050205 	movwcc	r0, #20997	; 0x5205
    2cb8:	04000004 	streq	r0, [r0], #-4
    2cbc:	000001c8 	andeq	r0, r0, r8, asr #3
    2cc0:	01422b03 	cmpeq	r2, r3, lsl #22
    2cc4:	02050000 	andeq	r0, r5, #0
    2cc8:	00060b07 	andeq	r0, r6, r7, lsl #22
    2ccc:	05040500 	streq	r0, [r4, #-1280]	; 0xfffffb00
    2cd0:	00000331 	andeq	r0, r0, r1, lsr r3
    2cd4:	0005b704 	andeq	fp, r5, r4, lsl #14
    2cd8:	5b410300 	blpl	10438e0 <_Min_Stack_Size+0x10434e0>
    2cdc:	05000001 	streq	r0, [r0, #-1]
    2ce0:	01b60704 			; <UNDEFINED> instruction: 0x01b60704
    2ce4:	08050000 	stmdaeq	r5, {}	; <UNPREDICTABLE>
    2ce8:	00032c05 	andeq	r2, r3, r5, lsl #24
    2cec:	07080500 	streq	r0, [r8, -r0, lsl #10]
    2cf0:	000001b1 			; <UNDEFINED> instruction: 0x000001b1
    2cf4:	69050406 	stmdbvs	r5, {r1, r2, sl}
    2cf8:	0500746e 	streq	r7, [r0, #-1134]	; 0xfffffb92
    2cfc:	01bb0704 			; <UNDEFINED> instruction: 0x01bb0704
    2d00:	d2040000 	andle	r0, r4, #0
    2d04:	04000004 	streq	r0, [r0], #-4
    2d08:	00011e14 	andeq	r1, r1, r4, lsl lr
    2d0c:	01ca0400 	biceq	r0, sl, r0, lsl #8
    2d10:	1a040000 	bne	102d18 <_Min_Stack_Size+0x102918>
    2d14:	00000137 	andeq	r0, r0, r7, lsr r1
    2d18:	0005b904 	andeq	fp, r5, r4, lsl #18
    2d1c:	50200400 	eorpl	r0, r0, r0, lsl #8
    2d20:	05000001 	streq	r0, [r0, #-1]
    2d24:	04200704 	strteq	r0, [r0], #-1796	; 0xfffff8fc
    2d28:	94070000 	strls	r0, [r7], #-0
    2d2c:	08000001 	stmdaeq	r0, {r0}
    2d30:	00000194 	muleq	r0, r4, r1
    2d34:	000001bb 			; <UNDEFINED> instruction: 0x000001bb
    2d38:	00019f09 	andeq	r9, r1, r9, lsl #30
    2d3c:	0a000100 	beq	3144 <_Min_Stack_Size+0x2d44>
    2d40:	0184022c 	orreq	r0, r4, ip, lsr #4
    2d44:	00000247 	andeq	r0, r0, r7, asr #4
    2d48:	0001ed0b 	andeq	lr, r1, fp, lsl #26
    2d4c:	01860200 	orreq	r0, r6, r0, lsl #4
    2d50:	000001a6 	andeq	r0, r0, r6, lsr #3
    2d54:	04b00b00 	ldrteq	r0, [r0], #2816	; 0xb00
    2d58:	87020000 	strhi	r0, [r2, -r0]
    2d5c:	0001a601 	andeq	sl, r1, r1, lsl #12
    2d60:	030b0400 	movweq	r0, #46080	; 0xb400
    2d64:	02000004 	andeq	r0, r0, #4
    2d68:	01a60188 			; <UNDEFINED> instruction: 0x01a60188
    2d6c:	0b080000 	bleq	202d74 <_Min_Stack_Size+0x202974>
    2d70:	000002da 	ldrdeq	r0, [r0], -sl
    2d74:	a6018902 	strge	r8, [r1], -r2, lsl #18
    2d78:	0c000001 	stceq	0, cr0, [r0], {1}
    2d7c:	5244490c 	subpl	r4, r4, #12, 18	; 0x30000
    2d80:	018a0200 	orreq	r0, sl, r0, lsl #4
    2d84:	000001a6 	andeq	r0, r0, r6, lsr #3
    2d88:	444f0c10 	strbmi	r0, [pc], #-3088	; 2d90 <_Min_Stack_Size+0x2990>
    2d8c:	8b020052 	blhi	82edc <_Min_Stack_Size+0x82adc>
    2d90:	0001a601 	andeq	sl, r1, r1, lsl #12
    2d94:	400b1400 	andmi	r1, fp, r0, lsl #8
    2d98:	02000000 	andeq	r0, r0, #0
    2d9c:	01a6018c 			; <UNDEFINED> instruction: 0x01a6018c
    2da0:	0b180000 	bleq	602da8 <_Min_Stack_Size+0x6029a8>
    2da4:	0000067f 	andeq	r0, r0, pc, ror r6
    2da8:	a6018d02 	strge	r8, [r1], -r2, lsl #26
    2dac:	1c000001 	stcne	0, cr0, [r0], {1}
    2db0:	5246410c 	subpl	r4, r6, #12, 2
    2db4:	018e0200 	orreq	r0, lr, r0, lsl #4
    2db8:	00000247 	andeq	r0, r0, r7, asr #4
    2dbc:	52420c20 	subpl	r0, r2, #32, 24	; 0x2000
    2dc0:	8f020052 	svchi	0x00020052
    2dc4:	0001a601 	andeq	sl, r1, r1, lsl #12
    2dc8:	07002800 	streq	r2, [r0, -r0, lsl #16]
    2dcc:	000001ab 	andeq	r0, r0, fp, lsr #3
    2dd0:	0004e80d 	andeq	lr, r4, sp, lsl #16
    2dd4:	01900200 	orrseq	r0, r0, r0, lsl #4
    2dd8:	000001bb 			; <UNDEFINED> instruction: 0x000001bb
    2ddc:	cc02380a 	stcgt	8, cr3, [r2], {10}
    2de0:	00031701 	andeq	r1, r3, r1, lsl #14
    2de4:	52430c00 	subpl	r0, r3, #0, 24
    2de8:	01ce0200 	biceq	r0, lr, r0, lsl #4
    2dec:	000001a6 	andeq	r0, r0, r6, lsr #3
    2df0:	04b70b00 	ldrteq	r0, [r7], #2816	; 0xb00
    2df4:	cf020000 	svcgt	0x00020000
    2df8:	0001a601 	andeq	sl, r1, r1, lsl #12
    2dfc:	430c0400 	movwmi	r0, #50176	; 0xc400
    2e00:	02005249 	andeq	r5, r0, #-1879048188	; 0x90000004
    2e04:	01a601d0 	ldrdeq	r0, [r6, r0]!	; <UNPREDICTABLE>
    2e08:	0b080000 	bleq	202e10 <_Min_Stack_Size+0x202a10>
    2e0c:	00000052 	andeq	r0, r0, r2, asr r0
    2e10:	a601d102 	strge	sp, [r1], -r2, lsl #2
    2e14:	0c000001 	stceq	0, cr0, [r0], {1}
    2e18:	0002e00b 	andeq	lr, r2, fp
    2e1c:	01d20200 	bicseq	r0, r2, r0, lsl #4
    2e20:	000001a6 	andeq	r0, r0, r6, lsr #3
    2e24:	03130b10 	tsteq	r3, #16, 22	; 0x4000
    2e28:	d3020000 	movwle	r0, #8192	; 0x2000
    2e2c:	0001a601 	andeq	sl, r1, r1, lsl #12
    2e30:	e90b1400 	stmdb	fp, {sl, ip}
    2e34:	02000003 	andeq	r0, r0, #3
    2e38:	01a601d4 	ldrdeq	r0, [r6, r4]!
    2e3c:	0b180000 	bleq	602e44 <_Min_Stack_Size+0x602a44>
    2e40:	0000002a 	andeq	r0, r0, sl, lsr #32
    2e44:	a601d502 	strge	sp, [r1], -r2, lsl #10
    2e48:	1c000001 	stcne	0, cr0, [r0], {1}
    2e4c:	00009d0b 	andeq	r9, r0, fp, lsl #26
    2e50:	01d60200 	bicseq	r0, r6, r0, lsl #4
    2e54:	000001a6 	andeq	r0, r0, r6, lsr #3
    2e58:	53430c20 	movtpl	r0, #15392	; 0x3c20
    2e5c:	d7020052 	smlsdle	r2, r2, r0, r0
    2e60:	0001a601 	andeq	sl, r1, r1, lsl #12
    2e64:	360b2400 	strcc	r2, [fp], -r0, lsl #8
    2e68:	02000001 	andeq	r0, r0, #1
    2e6c:	01a601d8 	ldrdeq	r0, [r6, r8]!
    2e70:	0b280000 	bleq	a02e78 <_Min_Stack_Size+0xa02a78>
    2e74:	000003ce 	andeq	r0, r0, lr, asr #7
    2e78:	a601d902 	strge	sp, [r1], -r2, lsl #18
    2e7c:	2c000001 	stccs	0, cr0, [r0], {1}
    2e80:	0003d40b 	andeq	sp, r3, fp, lsl #8
    2e84:	01da0200 	bicseq	r0, sl, r0, lsl #4
    2e88:	000001a6 	andeq	r0, r0, r6, lsr #3
    2e8c:	52430c30 	subpl	r0, r3, #48, 24	; 0x3000
    2e90:	db020032 	blle	82f60 <_Min_Stack_Size+0x82b60>
    2e94:	0001a601 	andeq	sl, r1, r1, lsl #12
    2e98:	0d003400 	cfstrseq	mvf3, [r0, #-0]
    2e9c:	00000247 	andeq	r0, r0, r7, asr #4
    2ea0:	5801dc02 	stmdapl	r1, {r1, sl, fp, ip, lr, pc}
    2ea4:	05000002 	streq	r0, [r0, #-2]
    2ea8:	040b0408 	streq	r0, [fp], #-1032	; 0xfffffbf8
    2eac:	01050000 	mrseq	r0, (UNDEF: 5)
    2eb0:	0005b208 	andeq	fp, r5, r8, lsl #4
    2eb4:	05140e00 	ldreq	r0, [r4, #-3584]	; 0xfffff200
    2eb8:	0003763f 	andeq	r7, r3, pc, lsr r6
    2ebc:	69500f00 	ldmdbvs	r0, {r8, r9, sl, fp}^
    2ec0:	4105006e 	tstmi	r5, lr, rrx
    2ec4:	00000194 	muleq	r0, r4, r1
    2ec8:	07b91000 	ldreq	r1, [r9, r0]!
    2ecc:	44050000 	strmi	r0, [r5], #-0
    2ed0:	00000194 	muleq	r0, r4, r1
    2ed4:	022f1004 	eoreq	r1, pc, #4
    2ed8:	47050000 	strmi	r0, [r5, -r0]
    2edc:	00000194 	muleq	r0, r4, r1
    2ee0:	02fa1008 	rscseq	r1, sl, #8
    2ee4:	4a050000 	bmi	142eec <_Min_Stack_Size+0x142aec>
    2ee8:	00000194 	muleq	r0, r4, r1
    2eec:	0429100c 	strteq	r1, [r9], #-12
    2ef0:	4d050000 	stcmi	0, cr0, [r5, #-0]
    2ef4:	00000194 	muleq	r0, r4, r1
    2ef8:	8f040010 	svchi	0x00040010
    2efc:	05000005 	streq	r0, [r0, #-5]
    2f00:	0003314f 	andeq	r3, r3, pc, asr #2
    2f04:	05010200 	streq	r0, [r1, #-512]	; 0xfffffe00
    2f08:	00039655 	andeq	r9, r3, r5, asr r6
    2f0c:	08a00300 	stmiaeq	r0!, {r8, r9}
    2f10:	03000000 	movweq	r0, #0
    2f14:	00000907 	andeq	r0, r0, r7, lsl #18
    2f18:	99040001 	stmdbls	r4, {r0}
    2f1c:	05000009 	streq	r0, [r0, #-9]
    2f20:	00038158 	andeq	r8, r3, r8, asr r1
    2f24:	06010200 	streq	r0, [r1], -r0, lsl #4
    2f28:	0003da44 	andeq	sp, r3, r4, asr #20
    2f2c:	01fa0300 	mvnseq	r0, r0, lsl #6
    2f30:	03000000 	movweq	r0, #0
    2f34:	000001ff 	strdeq	r0, [r0], -pc	; <UNPREDICTABLE>
    2f38:	02040301 	andeq	r0, r4, #67108864	; 0x4000000
    2f3c:	03020000 	movweq	r0, #8192	; 0x2000
    2f40:	00000131 	andeq	r0, r0, r1, lsr r1
    2f44:	05f80303 	ldrbeq	r0, [r8, #771]!	; 0x303
    2f48:	03000000 	movweq	r0, #0
    2f4c:	00000674 	andeq	r0, r0, r4, ror r6
    2f50:	05d00301 	ldrbeq	r0, [r0, #769]	; 0x301
    2f54:	03020000 	movweq	r0, #8192	; 0x2000
    2f58:	000005a0 	andeq	r0, r0, r0, lsr #11
    2f5c:	4a040003 	bmi	102f70 <_Min_Stack_Size+0x102b70>
    2f60:	06000005 	streq	r0, [r0], -r5
    2f64:	0003a14e 	andeq	sl, r3, lr, asr #2
    2f68:	06010200 	streq	r0, [r1], -r0, lsl #4
    2f6c:	0003f454 	andeq	pc, r3, r4, asr r4	; <UNPREDICTABLE>
    2f70:	0ddc0300 	ldcleq	3, cr0, [ip]
    2f74:	00000000 	andeq	r0, r0, r0
    2f78:	000dcd04 	andeq	ip, sp, r4, lsl #26
    2f7c:	e5560600 	ldrb	r0, [r6, #-1536]	; 0xfffffa00
    2f80:	02000003 	andeq	r0, r0, #3
    2f84:	14590601 	ldrbne	r0, [r9], #-1537	; 0xfffff9ff
    2f88:	03000004 	movweq	r0, #4
    2f8c:	00000d3b 	andeq	r0, r0, fp, lsr sp
    2f90:	0dfa0300 	ldcleq	3, cr0, [sl]
    2f94:	00010000 	andeq	r0, r1, r0
    2f98:	000d7b04 	andeq	r7, sp, r4, lsl #22
    2f9c:	ff5c0600 			; <UNDEFINED> instruction: 0xff5c0600
    2fa0:	11000003 	tstne	r0, r3
    2fa4:	00000d6c 	andeq	r0, r0, ip, ror #26
    2fa8:	0194a301 	orrseq	sl, r4, r1, lsl #6
    2fac:	00000000 	andeq	r0, r0, r0
    2fb0:	00080000 	andeq	r0, r8, r0
    2fb4:	9c010000 	stcls	0, cr0, [r1], {-0}
    2fb8:	00010312 	andeq	r0, r1, r2, lsl r3
    2fbc:	28b20100 	ldmcs	r2!, {r8}
    2fc0:	a408000f 	strge	r0, [r8], #-15
    2fc4:	01000000 	mrseq	r0, (UNDEF: 0)
    2fc8:	0005009c 	muleq	r5, ip, r0
    2fcc:	654c1300 	strbvs	r1, [ip, #-768]	; 0xfffffd00
    2fd0:	b2010064 	andlt	r0, r1, #100	; 0x64
    2fd4:	000003da 	ldrdeq	r0, [r0], -sl
    2fd8:	00000c0a 	andeq	r0, r0, sl, lsl #24
    2fdc:	000e0b14 	andeq	r0, lr, r4, lsl fp
    2fe0:	76b40100 	ldrtvc	r0, [r4], r0, lsl #2
    2fe4:	02000003 	andeq	r0, r0, #3
    2fe8:	30155c91 	mulscc	r5, r1, ip
    2fec:	1408000f 	strne	r0, [r8], #-15
    2ff0:	82000000 	andhi	r0, r0, #0
    2ff4:	14000004 	strne	r0, [r0], #-4
    2ff8:	00000240 	andeq	r0, r0, r0, asr #4
    2ffc:	01a6b701 			; <UNDEFINED> instruction: 0x01a6b701
    3000:	91020000 	mrsls	r0, (UNDEF: 2)
    3004:	4a15004c 	bmi	54313c <_Min_Stack_Size+0x542d3c>
    3008:	1408000f 	strne	r0, [r8], #-15
    300c:	9e000000 	cdpls	0, 0, cr0, cr0, cr0, {0}
    3010:	14000004 	strne	r0, [r0], #-4
    3014:	00000240 	andeq	r0, r0, r0, asr #4
    3018:	01a6b701 			; <UNDEFINED> instruction: 0x01a6b701
    301c:	91020000 	mrsls	r0, (UNDEF: 2)
    3020:	64150050 	ldrvs	r0, [r5], #-80	; 0xffffffb0
    3024:	1408000f 	strne	r0, [r8], #-15
    3028:	ba000000 	blt	3030 <_Min_Stack_Size+0x2c30>
    302c:	14000004 	strne	r0, [r0], #-4
    3030:	00000240 	andeq	r0, r0, r0, asr #4
    3034:	01a6b701 			; <UNDEFINED> instruction: 0x01a6b701
    3038:	91020000 	mrsls	r0, (UNDEF: 2)
    303c:	7e150054 	mrcvc	0, 0, r0, cr5, cr4, {2}
    3040:	1408000f 	strne	r0, [r8], #-15
    3044:	d6000000 	strle	r0, [r0], -r0
    3048:	14000004 	strne	r0, [r0], #-4
    304c:	00000240 	andeq	r0, r0, r0, asr #4
    3050:	01a6b701 			; <UNDEFINED> instruction: 0x01a6b701
    3054:	91020000 	mrsls	r0, (UNDEF: 2)
    3058:	b0160058 	andslt	r0, r6, r8, asr r0
    305c:	5808000f 	stmdapl	r8, {r0, r1, r2, r3}
    3060:	ea000007 	b	3084 <_Min_Stack_Size+0x2c84>
    3064:	17000004 	strne	r0, [r0, -r4]
    3068:	91025101 	tstls	r2, r1, lsl #2
    306c:	ba18005c 	blt	6031e4 <_Min_Stack_Size+0x602de4>
    3070:	7508000f 	strvc	r0, [r8, #-15]
    3074:	17000007 	strne	r0, [r0, -r7]
    3078:	30015201 	andcc	r5, r1, r1, lsl #4
    307c:	02510117 	subseq	r0, r1, #-1073741819	; 0xc0000005
    3080:	00000075 	andeq	r0, r0, r5, ror r0
    3084:	000de812 	andeq	lr, sp, r2, lsl r8
    3088:	00ce0100 	sbceq	r0, lr, r0, lsl #2
    308c:	20000000 	andcs	r0, r0, r0
    3090:	01000000 	mrseq	r0, (UNDEF: 0)
    3094:	0005349c 	muleq	r5, ip, r4
    3098:	654c1300 	strbvs	r1, [ip, #-768]	; 0xfffffd00
    309c:	ce010064 	cdpgt	0, 0, cr0, cr1, cr4, {3}
    30a0:	000003da 	ldrdeq	r0, [r0], -sl
    30a4:	00000c2b 	andeq	r0, r0, fp, lsr #24
    30a8:	00000018 	andeq	r0, r0, r8, lsl r0
    30ac:	00077500 	andeq	r7, r7, r0, lsl #10
    30b0:	52011700 	andpl	r1, r1, #0, 14
    30b4:	00003101 	andeq	r3, r0, r1, lsl #2
    30b8:	000e1b12 	andeq	r1, lr, r2, lsl fp
    30bc:	00dd0100 	sbcseq	r0, sp, r0, lsl #2
    30c0:	20000000 	andcs	r0, r0, r0
    30c4:	01000000 	mrseq	r0, (UNDEF: 0)
    30c8:	0005689c 	muleq	r5, ip, r8
    30cc:	654c1300 	strbvs	r1, [ip, #-768]	; 0xfffffd00
    30d0:	dd010064 	stcle	0, cr0, [r1, #-400]	; 0xfffffe70
    30d4:	000003da 	ldrdeq	r0, [r0], -sl
    30d8:	00000c4c 	andeq	r0, r0, ip, asr #24
    30dc:	00000018 	andeq	r0, r0, r8, lsl r0
    30e0:	00077500 	andeq	r7, r7, r0, lsl #10
    30e4:	52011700 	andpl	r1, r1, #0, 14
    30e8:	00003001 	andeq	r3, r0, r1
    30ec:	00065b12 	andeq	r5, r6, r2, lsl fp
    30f0:	ccec0100 	stfgte	f0, [ip]
    30f4:	1c08000f 	stcne	0, cr0, [r8], {15}
    30f8:	01000000 	mrseq	r0, (UNDEF: 0)
    30fc:	0005969c 	muleq	r5, ip, r6
    3100:	654c1300 	strbvs	r1, [ip, #-768]	; 0xfffffd00
    3104:	ec010064 	stc	0, cr0, [r1], {100}	; 0x64
    3108:	000003da 	ldrdeq	r0, [r0], -sl
    310c:	00000c6d 	andeq	r0, r0, sp, ror #24
    3110:	000fde19 	andeq	sp, pc, r9, lsl lr	; <UNPREDICTABLE>
    3114:	00079108 	andeq	r9, r7, r8, lsl #2
    3118:	c1120000 	tstgt	r2, r0
    311c:	0100000d 	tsteq	r0, sp
    3120:	000000fc 	strdeq	r0, [r0], -ip
    3124:	00008400 	andeq	r8, r0, r0, lsl #8
    3128:	649c0100 	ldrvs	r0, [ip], #256	; 0x100
    312c:	1a000006 	bne	314c <_Min_Stack_Size+0x2d4c>
    3130:	00000df3 	strdeq	r0, [r0], -r3
    3134:	03f4fc01 	mvnseq	pc, #256	; 0x100
    3138:	0c8e0000 	stceq	0, cr0, [lr], {0}
    313c:	b91a0000 	ldmdblt	sl, {}	; <UNPREDICTABLE>
    3140:	01000007 	tsteq	r0, r7
    3144:	000414fc 	strdeq	r1, [r4], -ip
    3148:	000cc800 	andeq	ip, ip, r0, lsl #16
    314c:	0e0b1400 	cfcpyseq	mvf1, mvf11
    3150:	fe010000 	cdp2	0, 0, cr0, cr1, cr0, {0}
    3154:	00000376 	andeq	r0, r0, r6, ror r3
    3158:	155c9102 	ldrbne	r9, [ip, #-258]	; 0xfffffefe
    315c:	00000000 	andeq	r0, r0, r0
    3160:	00000012 	andeq	r0, r0, r2, lsl r0
    3164:	000005f4 	strdeq	r0, [r0], -r4
    3168:	0002401b 	andeq	r4, r2, fp, lsl r0
    316c:	01010100 	mrseq	r0, (UNDEF: 17)
    3170:	000001a6 	andeq	r0, r0, r6, lsr #3
    3174:	00549102 	subseq	r9, r4, r2, lsl #2
    3178:	0002e01c 	andeq	lr, r2, ip, lsl r0
    317c:	00060d00 	andeq	r0, r6, r0, lsl #26
    3180:	02401b00 	subeq	r1, r0, #0, 22
    3184:	02010000 	andeq	r0, r1, #0
    3188:	0001a601 	andeq	sl, r1, r1, lsl #12
    318c:	58910200 	ldmpl	r1, {r9}
    3190:	00001600 	andeq	r1, r0, r0, lsl #12
    3194:	07580000 	ldrbeq	r0, [r8, -r0]
    3198:	06210000 	strteq	r0, [r1], -r0
    319c:	01170000 	tsteq	r7, r0
    31a0:	5c910251 	lfmpl	f0, 4, [r1], {81}	; 0x51
    31a4:	00001600 	andeq	r1, r0, r0, lsl #12
    31a8:	07580000 	ldrbeq	r0, [r8, -r0]
    31ac:	06350000 	ldrteq	r0, [r5], -r0
    31b0:	01170000 	tsteq	r7, r0
    31b4:	5c910251 	lfmpl	f0, 4, [r1], {81}	; 0x51
    31b8:	00001600 	andeq	r1, r0, r0, lsl #12
    31bc:	07a80000 	streq	r0, [r8, r0]!
    31c0:	06540000 	ldrbeq	r0, [r4], -r0
    31c4:	01170000 	tsteq	r7, r0
    31c8:	00750252 	rsbseq	r0, r5, r2, asr r2
    31cc:	02510117 	subseq	r0, r1, #-1073741819	; 0xc0000005
    31d0:	01170074 	tsteq	r7, r4, ror r0
    31d4:	00350150 	eorseq	r0, r5, r0, asr r1
    31d8:	00000018 	andeq	r0, r0, r8, lsl r0
    31dc:	0007c300 	andeq	ip, r7, r0, lsl #6
    31e0:	50011700 	andpl	r1, r1, r0, lsl #14
    31e4:	00003501 	andeq	r3, r0, r1, lsl #10
    31e8:	000d2b1d 	andeq	r2, sp, sp, lsl fp
    31ec:	01220100 			; <UNDEFINED> instruction: 0x01220100
    31f0:	00000194 	muleq	r0, r4, r1
    31f4:	00000000 	andeq	r0, r0, r0
    31f8:	00000014 	andeq	r0, r0, r4, lsl r0
    31fc:	069e9c01 	ldreq	r9, [lr], r1, lsl #24
    3200:	f31e0000 	vhadd.u16	d0, d14, d0
    3204:	0100000d 	tsteq	r0, sp
    3208:	03f40122 	mvnseq	r0, #-2147483640	; 0x80000008
    320c:	0d020000 	stceq	0, cr0, [r2, #-0]
    3210:	00180000 	andseq	r0, r8, r0
    3214:	d4000000 	strle	r0, [r0], #-0
    3218:	17000007 	strne	r0, [r0, -r7]
    321c:	31015101 	tstcc	r1, r1, lsl #2
    3220:	ae080000 	cdpge	0, 0, cr0, cr8, cr0, {0}
    3224:	ae000006 	cdpge	0, 0, cr0, cr0, cr6, {0}
    3228:	09000006 	stmdbeq	r0, {r1, r2}
    322c:	0000019f 	muleq	r0, pc, r1	; <UNPREDICTABLE>
    3230:	041f0003 	ldreq	r0, [pc], #-3	; 3238 <_Min_Stack_Size+0x2e38>
    3234:	0000024c 	andeq	r0, r0, ip, asr #4
    3238:	000d8e20 	andeq	r8, sp, r0, lsr #28
    323c:	9e4e0100 	dvflse	f0, f6, f0
    3240:	05000006 	streq	r0, [r0, #-6]
    3244:	00000003 	andeq	r0, r0, r3
    3248:	01890820 	orreq	r0, r9, r0, lsr #16
    324c:	06d50000 	ldrbeq	r0, [r5], r0
    3250:	9f090000 	svcls	0x00090000
    3254:	03000001 	movweq	r0, #1
    3258:	0d582000 	ldcleq	0, cr2, [r8, #-0]
    325c:	53010000 	movwpl	r0, #4096	; 0x1000
    3260:	000006e6 	andeq	r0, r0, r6, ror #13
    3264:	132c0305 			; <UNDEFINED> instruction: 0x132c0305
    3268:	c5210800 	strgt	r0, [r1, #-2048]!	; 0xfffff800
    326c:	08000006 	stmdaeq	r0, {r1, r2}
    3270:	000006ae 	andeq	r0, r0, lr, lsr #13
    3274:	000006fb 	strdeq	r0, [r0], -fp
    3278:	00019f09 	andeq	r9, r1, r9, lsl #30
    327c:	20000000 	andcs	r0, r0, r0
    3280:	00000d4c 	andeq	r0, r0, ip, asr #26
    3284:	06eb5801 	strbteq	r5, [fp], r1, lsl #16
    3288:	03050000 	movweq	r0, #20480	; 0x5000
    328c:	00000000 	andeq	r0, r0, r0
    3290:	00018908 	andeq	r8, r1, r8, lsl #18
    3294:	00071c00 	andeq	r1, r7, r0, lsl #24
    3298:	019f0900 	orrseq	r0, pc, r0, lsl #18
    329c:	00000000 	andeq	r0, r0, r0
    32a0:	000db620 	andeq	fp, sp, r0, lsr #12
    32a4:	2d590100 	ldfcse	f0, [r9, #-0]
    32a8:	05000007 	streq	r0, [r0, #-7]
    32ac:	00000003 	andeq	r0, r0, r3
    32b0:	070c2100 	streq	r2, [ip, -r0, lsl #2]
    32b4:	7e080000 	cdpvc	0, 0, cr0, cr8, cr0, {0}
    32b8:	42000001 	andmi	r0, r0, #1
    32bc:	09000007 	stmdbeq	r0, {r0, r1, r2}
    32c0:	0000019f 	muleq	r0, pc, r1	; <UNPREDICTABLE>
    32c4:	60200000 	eorvs	r0, r0, r0
    32c8:	0100000d 	tsteq	r0, sp
    32cc:	0007535a 	andeq	r5, r7, sl, asr r3
    32d0:	00030500 	andeq	r0, r3, r0, lsl #10
    32d4:	21000000 	mrscs	r0, (UNDEF: 0)
    32d8:	00000732 	andeq	r0, r0, r2, lsr r7
    32dc:	0004f522 	andeq	pc, r4, r2, lsr #10
    32e0:	010f0500 	tsteq	pc, r0, lsl #10
    32e4:	0000076f 	andeq	r0, r0, pc, ror #14
    32e8:	0006ae23 	andeq	sl, r6, r3, lsr #28
    32ec:	076f2300 	strbeq	r2, [pc, -r0, lsl #6]!
    32f0:	1f000000 	svcne	0x00000000
    32f4:	00037604 	andeq	r7, r3, r4, lsl #12
    32f8:	08f52200 	ldmeq	r5!, {r9, sp}^
    32fc:	1c050000 	stcne	0, cr0, [r5], {-0}
    3300:	00079101 	andeq	r9, r7, r1, lsl #2
    3304:	06ae2300 	strteq	r2, [lr], r0, lsl #6
    3308:	89230000 	stmdbhi	r3!, {}	; <UNPREDICTABLE>
    330c:	23000001 	movwcs	r0, #1
    3310:	00000396 	muleq	r0, r6, r3
    3314:	09142200 	ldmdbeq	r4, {r9, sp}
    3318:	1d050000 	stcne	0, cr0, [r5, #-0]
    331c:	0007a801 	andeq	sl, r7, r1, lsl #16
    3320:	06ae2300 	strteq	r2, [lr], r0, lsl #6
    3324:	89230000 	stmdbhi	r3!, {}	; <UNPREDICTABLE>
    3328:	00000001 	andeq	r0, r0, r1
    332c:	00011c24 	andeq	r1, r1, r4, lsr #24
    3330:	c3560700 	cmpgt	r6, #0, 14
    3334:	23000007 	movwcs	r0, #7
    3338:	0000010c 	andeq	r0, r0, ip, lsl #2
    333c:	00019423 	andeq	r9, r1, r3, lsr #8
    3340:	01942300 	orrseq	r2, r4, r0, lsl #6
    3344:	24000000 	strcs	r0, [r0], #-0
    3348:	00000167 	andeq	r0, r0, r7, ror #2
    334c:	07d45707 	ldrbeq	r5, [r4, r7, lsl #14]
    3350:	0c230000 	stceq	0, cr0, [r3], #-0
    3354:	00000001 	andeq	r0, r0, r1
    3358:	0008c025 	andeq	ip, r8, r5, lsr #32
    335c:	011b0500 	tsteq	fp, r0, lsl #10
    3360:	00000396 	muleq	r0, r6, r3
    3364:	0006ae23 	andeq	sl, r6, r3, lsr #28
    3368:	01892300 	orreq	r2, r9, r0, lsl #6
    336c:	00000000 	andeq	r0, r0, r0
    3370:	00000230 	andeq	r0, r0, r0, lsr r2
    3374:	0ce70004 	stcleq	0, cr0, [r7], #16
    3378:	01040000 	mrseq	r0, (UNDEF: 4)
    337c:	0000025c 	andeq	r0, r0, ip, asr r2
    3380:	000e3901 	andeq	r3, lr, r1, lsl #18
    3384:	00017a00 	andeq	r7, r1, r0, lsl #20
    3388:	00034000 	andeq	r4, r3, r0
    338c:	00000000 	andeq	r0, r0, r0
    3390:	00128500 	andseq	r8, r2, r0, lsl #10
    3394:	06010200 	streq	r0, [r1], -r0, lsl #4
    3398:	000005ab 	andeq	r0, r0, fp, lsr #11
    339c:	0004d003 	andeq	sp, r4, r3
    33a0:	371d0200 	ldrcc	r0, [sp, -r0, lsl #4]
    33a4:	02000000 	andeq	r0, r0, #0
    33a8:	05a90801 	streq	r0, [r9, #2049]!	; 0x801
    33ac:	02020000 	andeq	r0, r2, #0
    33b0:	00043305 	andeq	r3, r4, r5, lsl #6
    33b4:	07020200 	streq	r0, [r2, -r0, lsl #4]
    33b8:	0000060b 	andeq	r0, r0, fp, lsl #12
    33bc:	31050402 	tstcc	r5, r2, lsl #8
    33c0:	03000003 	movweq	r0, #3
    33c4:	000005b7 			; <UNDEFINED> instruction: 0x000005b7
    33c8:	005e4102 	subseq	r4, lr, r2, lsl #2
    33cc:	04020000 	streq	r0, [r2], #-0
    33d0:	0001b607 	andeq	fp, r1, r7, lsl #12
    33d4:	05080200 	streq	r0, [r8, #-512]	; 0xfffffe00
    33d8:	0000032c 	andeq	r0, r0, ip, lsr #6
    33dc:	b1070802 	tstlt	r7, r2, lsl #16
    33e0:	04000001 	streq	r0, [r0], #-1
    33e4:	6e690504 	cdpvs	5, 6, cr0, cr9, cr4, {0}
    33e8:	04020074 	streq	r0, [r2], #-116	; 0xffffff8c
    33ec:	0001bb07 	andeq	fp, r1, r7, lsl #22
    33f0:	04d20300 	ldrbeq	r0, [r2], #768	; 0x300
    33f4:	14030000 	strne	r0, [r3], #-0
    33f8:	0000002c 	andeq	r0, r0, ip, lsr #32
    33fc:	0005b903 	andeq	fp, r5, r3, lsl #18
    3400:	53200300 	noppl	{0}	; <UNPREDICTABLE>
    3404:	02000000 	andeq	r0, r0, #0
    3408:	04200704 	strteq	r0, [r0], #-1796	; 0xfffff8fc
    340c:	8c050000 	stchi	0, cr0, [r5], {-0}
    3410:	06000000 	streq	r0, [r0], -r0
    3414:	01cc0438 	biceq	r0, ip, r8, lsr r4
    3418:	00000162 	andeq	r0, r0, r2, ror #2
    341c:	00524307 	subseq	r4, r2, r7, lsl #6
    3420:	9e01ce04 	cdpls	14, 0, cr12, cr1, cr4, {0}
    3424:	00000000 	andeq	r0, r0, r0
    3428:	0004b708 	andeq	fp, r4, r8, lsl #14
    342c:	01cf0400 	biceq	r0, pc, r0, lsl #8
    3430:	0000009e 	muleq	r0, lr, r0
    3434:	49430704 	stmdbmi	r3, {r2, r8, r9, sl}^
    3438:	d0040052 	andle	r0, r4, r2, asr r0
    343c:	00009e01 	andeq	r9, r0, r1, lsl #28
    3440:	52080800 	andpl	r0, r8, #0, 16
    3444:	04000000 	streq	r0, [r0], #-0
    3448:	009e01d1 			; <UNDEFINED> instruction: 0x009e01d1
    344c:	080c0000 	stmdaeq	ip, {}	; <UNPREDICTABLE>
    3450:	000002e0 	andeq	r0, r0, r0, ror #5
    3454:	9e01d204 	cdpls	2, 0, cr13, cr1, cr4, {0}
    3458:	10000000 	andne	r0, r0, r0
    345c:	00031308 	andeq	r1, r3, r8, lsl #6
    3460:	01d30400 	bicseq	r0, r3, r0, lsl #8
    3464:	0000009e 	muleq	r0, lr, r0
    3468:	03e90814 	mvneq	r0, #20, 16	; 0x140000
    346c:	d4040000 	strle	r0, [r4], #-0
    3470:	00009e01 	andeq	r9, r0, r1, lsl #28
    3474:	2a081800 	bcs	20947c <_Min_Stack_Size+0x20907c>
    3478:	04000000 	streq	r0, [r0], #-0
    347c:	009e01d5 			; <UNDEFINED> instruction: 0x009e01d5
    3480:	081c0000 	ldmdaeq	ip, {}	; <UNPREDICTABLE>
    3484:	0000009d 	muleq	r0, sp, r0
    3488:	9e01d604 	cfmadd32ls	mvax0, mvfx13, mvfx1, mvfx4
    348c:	20000000 	andcs	r0, r0, r0
    3490:	52534307 	subspl	r4, r3, #469762048	; 0x1c000000
    3494:	01d70400 	bicseq	r0, r7, r0, lsl #8
    3498:	0000009e 	muleq	r0, lr, r0
    349c:	01360824 	teqeq	r6, r4, lsr #16
    34a0:	d8040000 	stmdale	r4, {}	; <UNPREDICTABLE>
    34a4:	00009e01 	andeq	r9, r0, r1, lsl #28
    34a8:	ce082800 	cdpgt	8, 0, cr2, cr8, cr0, {0}
    34ac:	04000003 	streq	r0, [r0], #-3
    34b0:	009e01d9 			; <UNDEFINED> instruction: 0x009e01d9
    34b4:	082c0000 	stmdaeq	ip!, {}	; <UNPREDICTABLE>
    34b8:	000003d4 	ldrdeq	r0, [r0], -r4
    34bc:	9e01da04 	vmlals.f32	s26, s2, s8
    34c0:	30000000 	andcc	r0, r0, r0
    34c4:	32524307 	subscc	r4, r2, #469762048	; 0x1c000000
    34c8:	01db0400 	bicseq	r0, fp, r0, lsl #8
    34cc:	0000009e 	muleq	r0, lr, r0
    34d0:	47090034 	smladxmi	r9, r4, r0, r0
    34d4:	04000002 	streq	r0, [r0], #-2
    34d8:	00a301dc 	ldrdeq	r0, [r3], ip	; <UNPREDICTABLE>
    34dc:	880a0000 	stmdahi	sl, {}	; <UNPREDICTABLE>
    34e0:	0100000e 	tsteq	r0, lr
    34e4:	000fe8a3 	andeq	lr, pc, r3, lsr #17
    34e8:	00006008 	andeq	r6, r0, r8
    34ec:	0b9c0100 	bleq	fe7038f4 <_estack+0xde6ff8f4>
    34f0:	00000e93 	muleq	r0, r3, lr
    34f4:	00010401 	andeq	r0, r1, r1, lsl #8
    34f8:	74000000 	strvc	r0, [r0], #-0
    34fc:	01000000 	mrseq	r0, (UNDEF: 0)
    3500:	0001d69c 	muleq	r1, ip, r6
    3504:	6d740c00 	ldclvs	12, cr0, [r4, #-0]
    3508:	06010070 			; <UNDEFINED> instruction: 0x06010070
    350c:	00008c01 	andeq	r8, r0, r1, lsl #24
    3510:	000d2300 	andeq	r2, sp, r0, lsl #6
    3514:	0e270d00 	cdpeq	13, 2, cr0, cr7, cr0, {0}
    3518:	06010000 	streq	r0, [r1], -r0
    351c:	00008c01 	andeq	r8, r0, r1, lsl #24
    3520:	000d9700 	andeq	r9, sp, r0, lsl #14
    3524:	0e2f0d00 	cdpeq	13, 2, cr0, cr15, cr0, {0}
    3528:	06010000 	streq	r0, [r1], -r0
    352c:	00008c01 	andeq	r8, r0, r1, lsl #24
    3530:	000dc700 	andeq	ip, sp, r0, lsl #14
    3534:	0e7b0d00 	cdpeq	13, 7, cr0, cr11, cr0, {0}
    3538:	06010000 	streq	r0, [r1], -r0
    353c:	00008c01 	andeq	r8, r0, r1, lsl #24
    3540:	000de600 	andeq	lr, sp, r0, lsl #12
    3544:	ad0e0000 	stcge	0, cr0, [lr, #-0]
    3548:	01000009 	tsteq	r0, r9
    354c:	00008c88 	andeq	r8, r0, r8, lsl #25
    3550:	10030500 	andne	r0, r3, r0, lsl #10
    3554:	0f200000 	svceq	0x00200000
    3558:	00000081 	andeq	r0, r0, r1, lsl #1
    355c:	000001f7 	strdeq	r0, [r0], -r7
    3560:	00009710 	andeq	r9, r0, r0, lsl r7
    3564:	0e000f00 	cdpeq	15, 0, cr0, cr0, cr0, {0}
    3568:	00000a95 	muleq	r0, r5, sl
    356c:	02088a01 	andeq	r8, r8, #4096	; 0x1000
    3570:	03050000 	movweq	r0, #20480	; 0x5000
    3574:	08001334 	stmdaeq	r0, {r2, r4, r5, r8, r9, ip}
    3578:	0001e711 	andeq	lr, r1, r1, lsl r7
    357c:	00810f00 	addeq	r0, r1, r0, lsl #30
    3580:	021d0000 	andseq	r0, sp, #0
    3584:	97100000 	ldrls	r0, [r0, -r0]
    3588:	07000000 	streq	r0, [r0, -r0]
    358c:	0a320e00 	beq	c86d94 <_Min_Stack_Size+0xc86994>
    3590:	8b010000 	blhi	43598 <_Min_Stack_Size+0x43198>
    3594:	0000022e 	andeq	r0, r0, lr, lsr #4
    3598:	00000305 	andeq	r0, r0, r5, lsl #6
    359c:	0d110000 	ldceq	0, cr0, [r1, #-0]
    35a0:	00000002 	andeq	r0, r0, r2
    35a4:	00000094 	muleq	r0, r4, r0
    35a8:	0dd70002 	ldcleq	0, cr0, [r7, #8]
    35ac:	01040000 	mrseq	r0, (UNDEF: 4)
    35b0:	000013c7 	andeq	r1, r0, r7, asr #7
    35b4:	00000358 	andeq	r0, r0, r8, asr r3
    35b8:	2f62696c 	svccs	0x0062696c
    35bc:	69736d63 	ldmdbvs	r3!, {r0, r1, r5, r6, r8, sl, fp, sp, lr}^
    35c0:	65442f73 	strbvs	r2, [r4, #-3955]	; 0xfffff08d
    35c4:	65636976 	strbvs	r6, [r3, #-2422]!	; 0xfffff68a
    35c8:	2f54532f 	svccs	0x0054532f
    35cc:	334d5453 	movtcc	r5, #54355	; 0xd453
    35d0:	78304632 	ldmdavc	r0!, {r1, r4, r5, r9, sl, lr}
    35d4:	6f532f78 	svcvs	0x00532f78
    35d8:	65637275 	strbvs	r7, [r3, #-629]!	; 0xfffffd8b
    35dc:	6d65542f 	cfstrdvs	mvd5, [r5, #-188]!	; 0xffffff44
    35e0:	74616c70 	strbtvc	r6, [r1], #-3184	; 0xfffff390
    35e4:	672f7365 	strvs	r7, [pc, -r5, ror #6]!
    35e8:	732f6363 			; <UNDEFINED> instruction: 0x732f6363
    35ec:	74726174 	ldrbtvc	r6, [r2], #-372	; 0xfffffe8c
    35f0:	735f7075 	cmpvc	pc, #117	; 0x75
    35f4:	32336d74 	eorscc	r6, r3, #116, 26	; 0x1d00
    35f8:	32373066 	eorscc	r3, r7, #102	; 0x66
    35fc:	732e6278 			; <UNDEFINED> instruction: 0x732e6278
    3600:	6f682f00 	svcvs	0x00682f00
    3604:	612f656d 			; <UNDEFINED> instruction: 0x612f656d
    3608:	73697268 	cmnvc	r9, #104, 4	; 0x80000006
    360c:	6972672f 	ldmdbvs	r2!, {r0, r1, r2, r3, r5, r8, r9, sl, sp, lr}^
    3610:	6c2f6576 	cfstr32vs	mvfx6, [pc], #-472	; 3440 <_Min_Stack_Size+0x3040>
    3614:	78756e69 	ldmdavc	r5!, {r0, r3, r5, r6, r9, sl, fp, sp, lr}^
    3618:	7564612f 	strbvc	r6, [r4, #-303]!	; 0xfffffed1
    361c:	775f746c 	ldrbvc	r7, [pc, -ip, ror #8]
    3620:	2f6b726f 	svccs	0x006b726f
    3624:	616d6174 	smcvs	54804	; 0xd614
    3628:	61646f67 	cmnvs	r4, r7, ror #30
    362c:	4e470069 	cdpmi	0, 4, cr0, cr7, cr9, {3}
    3630:	53412055 	movtpl	r2, #4181	; 0x1055
    3634:	322e3220 	eorcc	r3, lr, #32, 4
    3638:	80010036 	andhi	r0, r1, r6, lsr r0
    363c:	000000b5 	strheq	r0, [r0], -r5
    3640:	0de90002 	stcleq	0, cr0, [r9, #8]!
    3644:	01040000 	mrseq	r0, (UNDEF: 4)
    3648:	00001472 	andeq	r1, r0, r2, ror r4
    364c:	08000174 	stmdaeq	r0, {r2, r4, r5, r6, r8}
    3650:	08000292 	stmdaeq	r0, {r1, r4, r7, r9}
    3654:	2e2f2e2e 	cdpcs	14, 2, cr2, cr15, cr14, {1}
    3658:	2e2e2f2e 	cdpcs	15, 2, cr2, cr14, cr14, {1}
    365c:	2f2e2e2f 	svccs	0x002e2e2f
    3660:	2f637273 	svccs	0x00637273
    3664:	6762696c 	strbvs	r6, [r2, -ip, ror #18]!
    3668:	632f6363 			; <UNDEFINED> instruction: 0x632f6363
    366c:	69666e6f 	stmdbvs	r6!, {r0, r1, r2, r3, r5, r6, r9, sl, fp, sp, lr}^
    3670:	72612f67 	rsbvc	r2, r1, #412	; 0x19c
    3674:	696c2f6d 	stmdbvs	ip!, {r0, r2, r3, r5, r6, r8, r9, sl, fp, sp}^
    3678:	75663162 	strbvc	r3, [r6, #-354]!	; 0xfffffe9e
    367c:	2e73636e 	cdpcs	3, 7, cr6, cr3, cr14, {3}
    3680:	622f0053 	eorvs	r0, pc, #83	; 0x53
    3684:	646c6975 	strbtvs	r6, [ip], #-2421	; 0xfffff68b
    3688:	6363672f 	cmnvs	r3, #12320768	; 0xbc0000
    368c:	6d72612d 	ldfvse	f6, [r2, #-180]!	; 0xffffff4c
    3690:	6e6f6e2d 	cdpvs	14, 6, cr6, cr15, cr13, {1}
    3694:	61652d65 	cmnvs	r5, r5, ror #26
    3698:	442d6962 	strtmi	r6, [sp], #-2402	; 0xfffff69e
    369c:	4c6e5252 	sfmmi	f5, 2, [lr], #-328	; 0xfffffeb8
    36a0:	63672f41 	cmnvs	r7, #260	; 0x104
    36a4:	72612d63 	rsbvc	r2, r1, #6336	; 0x18c0
    36a8:	6f6e2d6d 	svcvs	0x006e2d6d
    36ac:	652d656e 	strvs	r6, [sp, #-1390]!	; 0xfffffa92
    36b0:	2d696261 	sfmcs	f6, 2, [r9, #-388]!	; 0xfffffe7c
    36b4:	2e392e34 	mrccs	14, 1, r2, cr9, cr4, {1}
    36b8:	76732b33 			; <UNDEFINED> instruction: 0x76732b33
    36bc:	3133326e 	teqcc	r3, lr, ror #4
    36c0:	2f373731 	svccs	0x00373731
    36c4:	6c697562 	cfstr64vs	mvdx7, [r9], #-392	; 0xfffffe78
    36c8:	72612f64 	rsbvc	r2, r1, #100, 30	; 0x190
    36cc:	6f6e2d6d 	svcvs	0x006e2d6d
    36d0:	652d656e 	strvs	r6, [sp, #-1390]!	; 0xfffffa92
    36d4:	2f696261 	svccs	0x00696261
    36d8:	766d7261 	strbtvc	r7, [sp], -r1, ror #4
    36dc:	2f6d2d36 	svccs	0x006d2d36
    36e0:	6762696c 	strbvs	r6, [r2, -ip, ror #18]!
    36e4:	47006363 	strmi	r6, [r0, -r3, ror #6]
    36e8:	4120554e 			; <UNDEFINED> instruction: 0x4120554e
    36ec:	2e322053 	mrccs	0, 1, r2, cr2, cr3, {2}
    36f0:	01003532 	tsteq	r0, r2, lsr r5
    36f4:	0000b580 	andeq	fp, r0, r0, lsl #11
    36f8:	fd000200 	stc2	2, cr0, [r0, #-0]
    36fc:	0400000d 	streq	r0, [r0], #-13
    3700:	0014de01 	andseq	sp, r4, r1, lsl #28
    3704:	00029400 	andeq	r9, r2, r0, lsl #8
    3708:	00029608 	andeq	r9, r2, r8, lsl #12
    370c:	2f2e2e08 	svccs	0x002e2e08
    3710:	2e2f2e2e 	cdpcs	14, 2, cr2, cr15, cr14, {1}
    3714:	2e2e2f2e 	cdpcs	15, 2, cr2, cr14, cr14, {1}
    3718:	6372732f 	cmnvs	r2, #-1140850688	; 0xbc000000
    371c:	62696c2f 	rsbvs	r6, r9, #12032	; 0x2f00
    3720:	2f636367 	svccs	0x00636367
    3724:	666e6f63 	strbtvs	r6, [lr], -r3, ror #30
    3728:	612f6769 			; <UNDEFINED> instruction: 0x612f6769
    372c:	6c2f6d72 	stcvs	13, cr6, [pc], #-456	; 356c <_Min_Stack_Size+0x316c>
    3730:	66316269 	ldrtvs	r6, [r1], -r9, ror #4
    3734:	73636e75 	cmnvc	r3, #1872	; 0x750
    3738:	2f00532e 	svccs	0x0000532e
    373c:	6c697562 	cfstr64vs	mvdx7, [r9], #-392	; 0xfffffe78
    3740:	63672f64 	cmnvs	r7, #100, 30	; 0x190
    3744:	72612d63 	rsbvc	r2, r1, #6336	; 0x18c0
    3748:	6f6e2d6d 	svcvs	0x006e2d6d
    374c:	652d656e 	strvs	r6, [sp, #-1390]!	; 0xfffffa92
    3750:	2d696261 	sfmcs	f6, 2, [r9, #-388]!	; 0xfffffe7c
    3754:	6e525244 	cdpvs	2, 5, cr5, cr2, cr4, {2}
    3758:	672f414c 	strvs	r4, [pc, -ip, asr #2]!
    375c:	612d6363 			; <UNDEFINED> instruction: 0x612d6363
    3760:	6e2d6d72 	mcrvs	13, 1, r6, cr13, cr2, {3}
    3764:	2d656e6f 	stclcs	14, cr6, [r5, #-444]!	; 0xfffffe44
    3768:	69626165 	stmdbvs	r2!, {r0, r2, r5, r6, r8, sp, lr}^
    376c:	392e342d 	stmdbcc	lr!, {r0, r2, r3, r5, sl, ip, sp}
    3770:	732b332e 			; <UNDEFINED> instruction: 0x732b332e
    3774:	33326e76 	teqcc	r2, #1888	; 0x760
    3778:	37373131 			; <UNDEFINED> instruction: 0x37373131
    377c:	6975622f 	ldmdbvs	r5!, {r0, r1, r2, r3, r5, r9, sp, lr}^
    3780:	612f646c 			; <UNDEFINED> instruction: 0x612f646c
    3784:	6e2d6d72 	mcrvs	13, 1, r6, cr13, cr2, {3}
    3788:	2d656e6f 	stclcs	14, cr6, [r5, #-444]!	; 0xfffffe44
    378c:	69626165 	stmdbvs	r2!, {r0, r2, r5, r6, r8, sp, lr}^
    3790:	6d72612f 	ldfvse	f6, [r2, #-188]!	; 0xffffff44
    3794:	6d2d3676 	stcvs	6, cr3, [sp, #-472]!	; 0xfffffe28
    3798:	62696c2f 	rsbvs	r6, r9, #12032	; 0x2f00
    379c:	00636367 	rsbeq	r6, r3, r7, ror #6
    37a0:	20554e47 	subscs	r4, r5, r7, asr #28
    37a4:	32205341 	eorcc	r5, r0, #67108865	; 0x4000001
    37a8:	0035322e 	eorseq	r3, r5, lr, lsr #4
    37ac:	01068001 	tsteq	r6, r1
    37b0:	00040000 	andeq	r0, r4, r0
    37b4:	00000e11 	andeq	r0, r0, r1, lsl lr
    37b8:	0ee60104 	cdpeq	1, 14, cr0, cr6, cr4, {0}
    37bc:	b8010000 	stmdalt	r1, {}	; <UNPREDICTABLE>
    37c0:	9900000e 	stmdbls	r0, {r1, r2, r3}
    37c4:	7800000f 	stmdavc	r0, {r0, r1, r2, r3}
    37c8:	00000003 	andeq	r0, r0, r3
    37cc:	3c000000 	stccc	0, cr0, [r0], {-0}
    37d0:	02000015 	andeq	r0, r0, #21
    37d4:	01bb0704 			; <UNDEFINED> instruction: 0x01bb0704
    37d8:	04030000 	streq	r0, [r3], #-0
    37dc:	746e6905 	strbtvc	r6, [lr], #-2309	; 0xfffff6fb
    37e0:	06010200 	streq	r0, [r1], -r0, lsl #4
    37e4:	000005ab 	andeq	r0, r0, fp, lsr #11
    37e8:	a9080102 	stmdbge	r8, {r1, r8}
    37ec:	02000005 	andeq	r0, r0, #5
    37f0:	04330502 	ldrteq	r0, [r3], #-1282	; 0xfffffafe
    37f4:	02020000 	andeq	r0, r2, #0
    37f8:	00060b07 	andeq	r0, r6, r7, lsl #22
    37fc:	05040200 	streq	r0, [r4, #-512]	; 0xfffffe00
    3800:	00000331 	andeq	r0, r0, r1, lsr r3
    3804:	b6070402 	strlt	r0, [r7], -r2, lsl #8
    3808:	02000001 	andeq	r0, r0, #1
    380c:	032c0508 			; <UNDEFINED> instruction: 0x032c0508
    3810:	08020000 	stmdaeq	r2, {}	; <UNPREDICTABLE>
    3814:	0001b107 	andeq	fp, r1, r7, lsl #2
    3818:	07040200 	streq	r0, [r4, -r0, lsl #4]
    381c:	00000420 	andeq	r0, r0, r0, lsr #8
    3820:	04050404 	streq	r0, [r5], #-1028	; 0xfffffbfc
    3824:	0000007a 	andeq	r0, r0, sl, ror r0
    3828:	08010206 	stmdaeq	r1, {r1, r2, r9}
    382c:	000005b2 			; <UNDEFINED> instruction: 0x000005b2
    3830:	000ea907 	andeq	sl, lr, r7, lsl #18
    3834:	05020100 	streq	r0, [r2, #-256]	; 0xffffff00
    3838:	000000a1 	andeq	r0, r0, r1, lsr #1
    383c:	000ffe08 	andeq	pc, pc, r8, lsl #28
    3840:	8d080000 	stchi	0, cr0, [r8, #-0]
    3844:	0100000f 	tsteq	r0, pc
    3848:	000f7008 	andeq	r7, pc, r8
    384c:	09000200 	stmdbeq	r0, {r9}
    3850:	00001003 	andeq	r1, r0, r3
    3854:	002c4503 	eoreq	r4, ip, r3, lsl #10
    3858:	109c0000 	addsne	r0, ip, r0
    385c:	00100800 	andseq	r0, r0, r0, lsl #16
    3860:	9c010000 	stcls	0, cr0, [r1], {-0}
    3864:	000000e9 	andeq	r0, r0, r9, ror #1
    3868:	006e660a 	rsbeq	r6, lr, sl, lsl #12
    386c:	00743d01 	rsbseq	r3, r4, r1, lsl #26
    3870:	0e050000 	cdpeq	0, 0, cr0, cr5, cr0, {0}
    3874:	aa0b0000 	bge	2c387c <_Min_Stack_Size+0x2c347c>
    3878:	e9080010 	stmdb	r8, {r4}
    387c:	0c000000 	stceq	0, cr0, [r0], {-0}
    3880:	30015301 	andcc	r5, r1, r1, lsl #6
    3884:	0152010c 	cmpeq	r2, ip, lsl #2
    3888:	51010c30 	tstpl	r1, r0, lsr ip
    388c:	5001f303 	andpl	pc, r1, r3, lsl #6
    3890:	0150010c 	cmpeq	r0, ip, lsl #2
    3894:	0d000030 	stceq	0, cr0, [r0, #-192]	; 0xffffff40
    3898:	00000f79 	andeq	r0, r0, r9, ror pc
    389c:	002c0d02 	eoreq	r0, ip, r2, lsl #26
    38a0:	2c0e0000 	stccs	0, cr0, [lr], {-0}
    38a4:	0e000000 	cdpeq	0, 0, cr0, cr0, cr0, {0}
    38a8:	00000074 	andeq	r0, r0, r4, ror r0
    38ac:	0000720e 	andeq	r7, r0, lr, lsl #4
    38b0:	00720e00 	rsbseq	r0, r2, r0, lsl #28
    38b4:	00000000 	andeq	r0, r0, r0
    38b8:	000000eb 	andeq	r0, r0, fp, ror #1
    38bc:	0ec60004 	cdpeq	0, 12, cr0, cr6, cr4, {0}
    38c0:	01040000 	mrseq	r0, (UNDEF: 4)
    38c4:	00000ee6 	andeq	r0, r0, r6, ror #29
    38c8:	00103501 	andseq	r3, r0, r1, lsl #10
    38cc:	00107100 	andseq	r7, r0, r0, lsl #2
    38d0:	00038800 	andeq	r8, r3, r0, lsl #16
    38d4:	00000000 	andeq	r0, r0, r0
    38d8:	0015fe00 	andseq	pc, r5, r0, lsl #28
    38dc:	06010200 	streq	r0, [r1], -r0, lsl #4
    38e0:	000005ab 	andeq	r0, r0, fp, lsr #11
    38e4:	a9080102 	stmdbge	r8, {r1, r8}
    38e8:	02000005 	andeq	r0, r0, #5
    38ec:	04330502 	ldrteq	r0, [r3], #-1282	; 0xfffffafe
    38f0:	02020000 	andeq	r0, r2, #0
    38f4:	00060b07 	andeq	r0, r6, r7, lsl #22
    38f8:	05040200 	streq	r0, [r4, #-512]	; 0xfffffe00
    38fc:	00000331 	andeq	r0, r0, r1, lsr r3
    3900:	b6070402 	strlt	r0, [r7], -r2, lsl #8
    3904:	02000001 	andeq	r0, r0, #1
    3908:	032c0508 			; <UNDEFINED> instruction: 0x032c0508
    390c:	08020000 	stmdaeq	r2, {}	; <UNPREDICTABLE>
    3910:	0001b107 	andeq	fp, r1, r7, lsl #2
    3914:	05040300 	streq	r0, [r4, #-768]	; 0xfffffd00
    3918:	00746e69 	rsbseq	r6, r4, r9, ror #28
    391c:	bb070402 	bllt	1c492c <_Min_Stack_Size+0x1c452c>
    3920:	04000001 	streq	r0, [r0], #-1
    3924:	0000100a 	andeq	r1, r0, sl
    3928:	0064d402 	rsbeq	sp, r4, r2, lsl #8
    392c:	04020000 	streq	r0, [r2], #-0
    3930:	00042007 	andeq	r2, r4, r7
    3934:	08010200 	stmdaeq	r1, {r9}
    3938:	000005b2 			; <UNDEFINED> instruction: 0x000005b2
    393c:	00105f05 	andseq	r5, r0, r5, lsl #30
    3940:	ac180100 	ldfges	f0, [r8], {-0}
    3944:	34080010 	strcc	r0, [r8], #-16
    3948:	01000000 	mrseq	r0, (UNDEF: 0)
    394c:	0000bf9c 	muleq	r0, ip, pc	; <UNPREDICTABLE>
    3950:	11dd0600 	bicsne	r0, sp, r0, lsl #12
    3954:	1a010000 	bne	4395c <_Min_Stack_Size+0x4355c>
    3958:	0000006b 	andeq	r0, r0, fp, rrx
    395c:	00000e31 	andeq	r0, r0, r1, lsr lr
    3960:	01006907 	tsteq	r0, r7, lsl #18
    3964:	00006b1b 	andeq	r6, r0, fp, lsl fp
    3968:	000e4400 	andeq	r4, lr, r0, lsl #8
    396c:	10d00800 	sbcsne	r0, r0, r0, lsl #16
    3970:	00e70800 	rsceq	r0, r7, r0, lsl #16
    3974:	09000000 	stmdbeq	r0, {}	; <UNPREDICTABLE>
    3978:	000000ca 	andeq	r0, r0, sl, asr #1
    397c:	000000ca 	andeq	r0, r0, sl, asr #1
    3980:	040b000a 	streq	r0, [fp], #-10
    3984:	000000d0 	ldrdeq	r0, [r0], -r0	; <UNPREDICTABLE>
    3988:	10110d0c 	andsne	r0, r1, ip, lsl #26
    398c:	11010000 	mrsne	r0, (UNDEF: 1)
    3990:	000000bf 	strheq	r0, [r0], -pc	; <UNPREDICTABLE>
    3994:	0010240d 	andseq	r2, r0, sp, lsl #8
    3998:	bf120100 	svclt	0x00120100
    399c:	0e000000 	cdpeq	0, 0, cr0, cr0, cr0, {0}
    39a0:	00001700 	andeq	r1, r0, r0, lsl #14
    39a4:	90001401 	andls	r1, r0, r1, lsl #8
    39a8:	04000008 	streq	r0, [r0], #-8
    39ac:	000f8000 	andeq	r8, pc, r0
    39b0:	e6010400 	str	r0, [r1], -r0, lsl #8
    39b4:	0100000e 	tsteq	r0, lr
    39b8:	00001332 	andeq	r1, r0, r2, lsr r3
    39bc:	00001117 	andeq	r1, r0, r7, lsl r1
    39c0:	0000169a 	muleq	r0, sl, r6
    39c4:	69050402 	stmdbvs	r5, {r1, sl}
    39c8:	0300746e 	movweq	r7, #1134	; 0x46e
    39cc:	01bb0704 			; <UNDEFINED> instruction: 0x01bb0704
    39d0:	01030000 	mrseq	r0, (UNDEF: 3)
    39d4:	0005ab06 	andeq	sl, r5, r6, lsl #22
    39d8:	08010300 	stmdaeq	r1, {r8, r9}
    39dc:	000005a9 	andeq	r0, r0, r9, lsr #11
    39e0:	33050203 	movwcc	r0, #20995	; 0x5203
    39e4:	03000004 	movweq	r0, #4
    39e8:	060b0702 	streq	r0, [fp], -r2, lsl #14
    39ec:	04030000 	streq	r0, [r3], #-0
    39f0:	00033105 	andeq	r3, r3, r5, lsl #2
    39f4:	07040300 	streq	r0, [r4, -r0, lsl #6]
    39f8:	000001b6 			; <UNDEFINED> instruction: 0x000001b6
    39fc:	2c050803 	stccs	8, cr0, [r5], {3}
    3a00:	03000003 	movweq	r0, #3
    3a04:	01b10708 			; <UNDEFINED> instruction: 0x01b10708
    3a08:	2a040000 	bcs	103a10 <_Min_Stack_Size+0x103610>
    3a0c:	01000012 	tsteq	r0, r2, lsl r0
    3a10:	00001d07 	andeq	r1, r0, r7, lsl #26
    3a14:	110a0400 	tstne	sl, r0, lsl #8
    3a18:	10020000 	andne	r0, r2, r0
    3a1c:	00000047 	andeq	r0, r0, r7, asr #32
    3a20:	0012d804 	andseq	sp, r2, r4, lsl #16
    3a24:	47270200 	strmi	r0, [r7, -r0, lsl #4]!
    3a28:	05000000 	streq	r0, [r0, #-0]
    3a2c:	000013e5 	andeq	r1, r0, r5, ror #7
    3a30:	24016103 	strcs	r6, [r1], #-259	; 0xfffffefd
    3a34:	06000000 	streq	r0, [r0], -r0
    3a38:	af4a0204 	svcge	0x004a0204
    3a3c:	07000000 	streq	r0, [r0, -r0]
    3a40:	00001111 	andeq	r1, r0, r1, lsl r1
    3a44:	00844c02 	addeq	r4, r4, r2, lsl #24
    3a48:	2b070000 	blcs	1c3a50 <_Min_Stack_Size+0x1c3650>
    3a4c:	02000013 	andeq	r0, r0, #19
    3a50:	0000af4d 	andeq	sl, r0, sp, asr #30
    3a54:	32080000 	andcc	r0, r8, #0
    3a58:	bf000000 	svclt	0x00000000
    3a5c:	09000000 	stmdbeq	r0, {}	; <UNPREDICTABLE>
    3a60:	000000bf 	strheq	r0, [r0], -pc	; <UNPREDICTABLE>
    3a64:	04030003 	streq	r0, [r3], #-3
    3a68:	00042007 	andeq	r2, r4, r7
    3a6c:	02080a00 	andeq	r0, r8, #0, 20
    3a70:	0000e747 	andeq	lr, r0, r7, asr #14
    3a74:	11db0b00 	bicsne	r0, fp, r0, lsl #22
    3a78:	49020000 	stmdbmi	r2, {}	; <UNPREDICTABLE>
    3a7c:	0000001d 	andeq	r0, r0, sp, lsl r0
    3a80:	117b0b00 	cmnne	fp, r0, lsl #22
    3a84:	4e020000 	cdpmi	0, 0, cr0, cr2, cr0, {0}
    3a88:	00000090 	muleq	r0, r0, r0
    3a8c:	1e040004 	cdpne	0, 0, cr0, cr4, cr4, {0}
    3a90:	02000014 	andeq	r0, r0, #20
    3a94:	0000c64f 	andeq	ip, r0, pc, asr #12
    3a98:	12e70400 	rscne	r0, r7, #0, 8
    3a9c:	53020000 	movwpl	r0, #8192	; 0x2000
    3aa0:	00000063 	andeq	r0, r0, r3, rrx
    3aa4:	6804040c 	stmdavs	r4, {r2, r3, sl}
    3aa8:	04000014 	streq	r0, [r0], #-20	; 0xffffffec
    3aac:	00004e16 	andeq	r4, r0, r6, lsl lr
    3ab0:	14290d00 	strtne	r0, [r9], #-3328	; 0xfffff300
    3ab4:	04180000 	ldreq	r0, [r8], #-0
    3ab8:	00015d2d 	andeq	r5, r1, sp, lsr #26
    3abc:	14c00b00 	strbne	r0, [r0], #2816	; 0xb00
    3ac0:	2f040000 	svccs	0x00040000
    3ac4:	0000015d 	andeq	r0, r0, sp, asr r1
    3ac8:	6b5f0e00 	blvs	17c72d0 <_Min_Stack_Size+0x17c6ed0>
    3acc:	1d300400 	cfldrsne	mvf0, [r0, #-0]
    3ad0:	04000000 	streq	r0, [r0], #-0
    3ad4:	0014310b 	andseq	r3, r4, fp, lsl #2
    3ad8:	1d300400 	cfldrsne	mvf0, [r0, #-0]
    3adc:	08000000 	stmdaeq	r0, {}	; <UNPREDICTABLE>
    3ae0:	0014b50b 	andseq	fp, r4, fp, lsl #10
    3ae4:	1d300400 	cfldrsne	mvf0, [r0, #-0]
    3ae8:	0c000000 	stceq	0, cr0, [r0], {-0}
    3aec:	0013c50b 	andseq	ip, r3, fp, lsl #10
    3af0:	1d300400 	cfldrsne	mvf0, [r0, #-0]
    3af4:	10000000 	andne	r0, r0, r0
    3af8:	00785f0e 	rsbseq	r5, r8, lr, lsl #30
    3afc:	01633104 	cmneq	r3, r4, lsl #2
    3b00:	00140000 	andseq	r0, r4, r0
    3b04:	010a040f 	tsteq	sl, pc, lsl #8
    3b08:	ff080000 			; <UNDEFINED> instruction: 0xff080000
    3b0c:	73000000 	movwvc	r0, #0
    3b10:	09000001 	stmdbeq	r0, {r0}
    3b14:	000000bf 	strheq	r0, [r0], -pc	; <UNPREDICTABLE>
    3b18:	ca0d0000 	bgt	343b20 <_Min_Stack_Size+0x343720>
    3b1c:	24000013 	strcs	r0, [r0], #-19	; 0xffffffed
    3b20:	01ec3504 	mvneq	r3, r4, lsl #10
    3b24:	030b0000 	movweq	r0, #45056	; 0xb000
    3b28:	04000013 	streq	r0, [r0], #-19	; 0xffffffed
    3b2c:	00001d37 	andeq	r1, r0, r7, lsr sp
    3b30:	570b0000 	strpl	r0, [fp, -r0]
    3b34:	04000012 	streq	r0, [r0], #-18	; 0xffffffee
    3b38:	00001d38 	andeq	r1, r0, r8, lsr sp
    3b3c:	0c0b0400 	cfstrseq	mvf0, [fp], {-0}
    3b40:	04000013 	streq	r0, [r0], #-19	; 0xffffffed
    3b44:	00001d39 	andeq	r1, r0, r9, lsr sp
    3b48:	e30b0800 	movw	r0, #47104	; 0xb800
    3b4c:	04000011 	streq	r0, [r0], #-17	; 0xffffffef
    3b50:	00001d3a 	andeq	r1, r0, sl, lsr sp
    3b54:	7e0b0c00 	cdpvc	12, 0, cr0, cr11, cr0, {0}
    3b58:	04000014 	streq	r0, [r0], #-20	; 0xffffffec
    3b5c:	00001d3b 	andeq	r1, r0, fp, lsr sp
    3b60:	390b1000 	stmdbcc	fp, {ip}
    3b64:	04000014 	streq	r0, [r0], #-20	; 0xffffffec
    3b68:	00001d3c 	andeq	r1, r0, ip, lsr sp
    3b6c:	8b0b1400 	blhi	2c8b74 <_Min_Stack_Size+0x2c8774>
    3b70:	04000012 	streq	r0, [r0], #-18	; 0xffffffee
    3b74:	00001d3d 	andeq	r1, r0, sp, lsr sp
    3b78:	5e0b1800 	cdppl	8, 0, cr1, cr11, cr0, {0}
    3b7c:	04000014 	streq	r0, [r0], #-20	; 0xffffffec
    3b80:	00001d3e 	andeq	r1, r0, lr, lsr sp
    3b84:	b20b1c00 	andlt	r1, fp, #0, 24
    3b88:	04000012 	streq	r0, [r0], #-18	; 0xffffffee
    3b8c:	00001d3f 	andeq	r1, r0, pc, lsr sp
    3b90:	10002000 	andne	r2, r0, r0
    3b94:	00001370 	andeq	r1, r0, r0, ror r3
    3b98:	48040108 	stmdami	r4, {r3, r8}
    3b9c:	0000022c 	andeq	r0, r0, ip, lsr #4
    3ba0:	0012950b 	andseq	r9, r2, fp, lsl #10
    3ba4:	2c490400 	cfstrdcs	mvd0, [r9], {-0}
    3ba8:	00000002 	andeq	r0, r0, r2
    3bac:	0014a40b 	andseq	sl, r4, fp, lsl #8
    3bb0:	2c4a0400 	cfstrdcs	mvd0, [sl], {-0}
    3bb4:	80000002 	andhi	r0, r0, r2
    3bb8:	0012cf11 	andseq	ip, r2, r1, lsl pc
    3bbc:	ff4c0400 			; <UNDEFINED> instruction: 0xff4c0400
    3bc0:	00000000 	andeq	r0, r0, r0
    3bc4:	140c1101 	strne	r1, [ip], #-257	; 0xfffffeff
    3bc8:	4f040000 	svcmi	0x00040000
    3bcc:	000000ff 	strdeq	r0, [r0], -pc	; <UNPREDICTABLE>
    3bd0:	08000104 	stmdaeq	r0, {r2, r8}
    3bd4:	000000fd 	strdeq	r0, [r0], -sp
    3bd8:	0000023c 	andeq	r0, r0, ip, lsr r2
    3bdc:	0000bf09 	andeq	fp, r0, r9, lsl #30
    3be0:	10001f00 	andne	r1, r0, r0, lsl #30
    3be4:	00001002 	andeq	r1, r0, r2
    3be8:	5b040190 	blpl	104230 <_Min_Stack_Size+0x103e30>
    3bec:	0000027a 	andeq	r0, r0, sl, ror r2
    3bf0:	0014c00b 	andseq	ip, r4, fp
    3bf4:	7a5c0400 	bvc	1704bfc <_Min_Stack_Size+0x17047fc>
    3bf8:	00000002 	andeq	r0, r0, r2
    3bfc:	0014910b 	andseq	r9, r4, fp, lsl #2
    3c00:	1d5d0400 	cfldrdne	mvd0, [sp, #-0]
    3c04:	04000000 	streq	r0, [r0], #-0
    3c08:	00127d0b 	andseq	r7, r2, fp, lsl #26
    3c0c:	805f0400 	subshi	r0, pc, r0, lsl #8
    3c10:	08000002 	stmdaeq	r0, {r1}
    3c14:	0013700b 	andseq	r7, r3, fp
    3c18:	ec600400 	cfstrd	mvd0, [r0], #-0
    3c1c:	88000001 	stmdahi	r0, {r0}
    3c20:	3c040f00 	stccc	15, cr0, [r4], {-0}
    3c24:	08000002 	stmdaeq	r0, {r1}
    3c28:	00000290 	muleq	r0, r0, r2
    3c2c:	00000290 	muleq	r0, r0, r2
    3c30:	0000bf09 	andeq	fp, r0, r9, lsl #30
    3c34:	0f001f00 	svceq	0x00001f00
    3c38:	00029604 	andeq	r9, r2, r4, lsl #12
    3c3c:	830d1200 	movwhi	r1, #53760	; 0xd200
    3c40:	08000011 	stmdaeq	r0, {r0, r4}
    3c44:	02bc7304 	adcseq	r7, ip, #4, 6	; 0x10000000
    3c48:	9d0b0000 	stcls	0, cr0, [fp, #-0]
    3c4c:	04000013 	streq	r0, [r0], #-19	; 0xffffffed
    3c50:	0002bc74 	andeq	fp, r2, r4, ror ip
    3c54:	f90b0000 			; <UNDEFINED> instruction: 0xf90b0000
    3c58:	04000014 	streq	r0, [r0], #-20	; 0xffffffec
    3c5c:	00001d75 	andeq	r1, r0, r5, ror sp
    3c60:	0f000400 	svceq	0x00000400
    3c64:	00003204 	andeq	r3, r0, r4, lsl #4
    3c68:	150c0d00 	strne	r0, [ip, #-3328]	; 0xfffff300
    3c6c:	04680000 	strbteq	r0, [r8], #-0
    3c70:	0003ecb3 			; <UNDEFINED> instruction: 0x0003ecb3
    3c74:	705f0e00 	subsvc	r0, pc, r0, lsl #28
    3c78:	bcb40400 	cfldrslt	mvf0, [r4]
    3c7c:	00000002 	andeq	r0, r0, r2
    3c80:	00725f0e 	rsbseq	r5, r2, lr, lsl #30
    3c84:	001db504 	andseq	fp, sp, r4, lsl #10
    3c88:	0e040000 	cdpeq	0, 0, cr0, cr4, cr0, {0}
    3c8c:	0400775f 	streq	r7, [r0], #-1887	; 0xfffff8a1
    3c90:	00001db6 			; <UNDEFINED> instruction: 0x00001db6
    3c94:	be0b0800 	cdplt	8, 0, cr0, cr11, cr0, {0}
    3c98:	04000011 	streq	r0, [r0], #-17	; 0xffffffef
    3c9c:	000039b7 			; <UNDEFINED> instruction: 0x000039b7
    3ca0:	a30b0c00 	movwge	r0, #48128	; 0xbc00
    3ca4:	04000013 	streq	r0, [r0], #-19	; 0xffffffed
    3ca8:	000039b8 			; <UNDEFINED> instruction: 0x000039b8
    3cac:	5f0e0e00 	svcpl	0x000e0e00
    3cb0:	04006662 	streq	r6, [r0], #-1634	; 0xfffff99e
    3cb4:	000297b9 			; <UNDEFINED> instruction: 0x000297b9
    3cb8:	9d0b1000 	stcls	0, cr1, [fp, #-0]
    3cbc:	04000012 	streq	r0, [r0], #-18	; 0xffffffee
    3cc0:	00001dba 			; <UNDEFINED> instruction: 0x00001dba
    3cc4:	950b1800 	strls	r1, [fp, #-2048]	; 0xfffff800
    3cc8:	04000013 	streq	r0, [r0], #-19	; 0xffffffed
    3ccc:	0000fdc1 	andeq	pc, r0, r1, asr #27
    3cd0:	160b1c00 	strne	r1, [fp], -r0, lsl #24
    3cd4:	04000013 	streq	r0, [r0], #-19	; 0xffffffed
    3cd8:	00054fc3 	andeq	r4, r5, r3, asr #31
    3cdc:	c50b2000 	strgt	r2, [fp, #-0]
    3ce0:	04000011 	streq	r0, [r0], #-17	; 0xffffffef
    3ce4:	00057ec5 	andeq	r7, r5, r5, asr #29
    3ce8:	700b2400 	andvc	r2, fp, r0, lsl #8
    3cec:	04000014 	streq	r0, [r0], #-20	; 0xffffffec
    3cf0:	0005a2c8 	andeq	sl, r5, r8, asr #5
    3cf4:	e00b2800 	and	r2, fp, r0, lsl #16
    3cf8:	04000012 	streq	r0, [r0], #-18	; 0xffffffee
    3cfc:	0005bcc9 	andeq	fp, r5, r9, asr #25
    3d00:	5f0e2c00 	svcpl	0x000e2c00
    3d04:	04006275 	streq	r6, [r0], #-629	; 0xfffffd8b
    3d08:	000297cc 	andeq	r9, r2, ip, asr #15
    3d0c:	5f0e3000 	svcpl	0x000e3000
    3d10:	04007075 	streq	r7, [r0], #-117	; 0xffffff8b
    3d14:	0002bccd 	andeq	fp, r2, sp, asr #25
    3d18:	5f0e3800 	svcpl	0x000e3800
    3d1c:	04007275 	streq	r7, [r0], #-629	; 0xfffffd8b
    3d20:	00001dce 	andeq	r1, r0, lr, asr #27
    3d24:	f30b3c00 			; <UNDEFINED> instruction: 0xf30b3c00
    3d28:	04000014 	streq	r0, [r0], #-20	; 0xffffffec
    3d2c:	0005c2d1 	ldrdeq	ip, [r5], -r1
    3d30:	240b4000 	strcs	r4, [fp], #-0
    3d34:	04000012 	streq	r0, [r0], #-18	; 0xffffffee
    3d38:	0005d2d2 	ldrdeq	sp, [r5], -r2
    3d3c:	5f0e4300 	svcpl	0x000e4300
    3d40:	0400626c 	streq	r6, [r0], #-620	; 0xfffffd94
    3d44:	000297d5 	ldrdeq	r9, [r2], -r5
    3d48:	c60b4400 	strgt	r4, [fp], -r0, lsl #8
    3d4c:	04000012 	streq	r0, [r0], #-18	; 0xffffffee
    3d50:	00001dd8 	ldrdeq	r1, [r0], -r8
    3d54:	940b4c00 	strls	r4, [fp], #-3072	; 0xfffff400
    3d58:	04000011 	streq	r0, [r0], #-17	; 0xffffffef
    3d5c:	00006ed9 	ldrdeq	r6, [r0], -r9
    3d60:	040b5000 	streq	r5, [fp], #-0
    3d64:	04000011 	streq	r0, [r0], #-17	; 0xffffffef
    3d68:	00040adc 	ldrdeq	r0, [r4], -ip
    3d6c:	0e0b5400 	cfcpyseq	mvf5, mvf11
    3d70:	04000017 	streq	r0, [r0], #-23	; 0xffffffe9
    3d74:	0000f2e0 	andeq	pc, r0, r0, ror #5
    3d78:	820b5800 	andhi	r5, fp, #0, 16
    3d7c:	04000012 	streq	r0, [r0], #-18	; 0xffffffee
    3d80:	0000e7e2 	andeq	lr, r0, r2, ror #15
    3d84:	df0b5c00 	svcle	0x000b5c00
    3d88:	04000010 	streq	r0, [r0], #-16
    3d8c:	00001de3 	andeq	r1, r0, r3, ror #27
    3d90:	13006400 	movwne	r6, #1024	; 0x400
    3d94:	0000001d 	andeq	r0, r0, sp, lsl r0
    3d98:	0000040a 	andeq	r0, r0, sl, lsl #8
    3d9c:	00040a14 	andeq	r0, r4, r4, lsl sl
    3da0:	00fd1400 	rscseq	r1, sp, r0, lsl #8
    3da4:	42140000 	andsmi	r0, r4, #0
    3da8:	14000005 	strne	r0, [r0], #-5
    3dac:	0000001d 	andeq	r0, r0, sp, lsl r0
    3db0:	10040f00 	andne	r0, r4, r0, lsl #30
    3db4:	15000004 	strne	r0, [r0, #-4]
    3db8:	000014dd 	ldrdeq	r1, [r0], -sp
    3dbc:	39040428 	stmdbcc	r4, {r3, r5, sl}
    3dc0:	00054202 	andeq	r4, r5, r2, lsl #4
    3dc4:	13611600 	cmnne	r1, #0, 12
    3dc8:	3b040000 	blcc	103dd0 <_Min_Stack_Size+0x1039d0>
    3dcc:	00001d02 	andeq	r1, r0, r2, lsl #26
    3dd0:	c6160000 	ldrgt	r0, [r6], -r0
    3dd4:	04000014 	streq	r0, [r0], #-20	; 0xffffffec
    3dd8:	06290240 	strteq	r0, [r9], -r0, asr #4
    3ddc:	16040000 	strne	r0, [r4], -r0
    3de0:	00001209 	andeq	r1, r0, r9, lsl #4
    3de4:	29024004 	stmdbcs	r2, {r2, lr}
    3de8:	08000006 	stmdaeq	r0, {r1, r2}
    3dec:	00132316 	andseq	r2, r3, r6, lsl r3
    3df0:	02400400 	subeq	r0, r0, #0, 8
    3df4:	00000629 	andeq	r0, r0, r9, lsr #12
    3df8:	148c160c 	strne	r1, [ip], #1548	; 0x60c
    3dfc:	42040000 	andmi	r0, r4, #0
    3e00:	00001d02 	andeq	r1, r0, r2, lsl #26
    3e04:	11161000 	tstne	r6, r0
    3e08:	04000012 	streq	r0, [r0], #-18	; 0xffffffee
    3e0c:	080b0243 	stmdaeq	fp, {r0, r1, r6, r9}
    3e10:	16140000 	ldrne	r0, [r4], -r0
    3e14:	000013fa 	strdeq	r1, [r0], -sl
    3e18:	1d024504 	cfstr32ne	mvfx4, [r2, #-16]
    3e1c:	30000000 	andcc	r0, r0, r0
    3e20:	0014cd16 	andseq	ip, r4, r6, lsl sp
    3e24:	02460400 	subeq	r0, r6, #0, 8
    3e28:	00000573 	andeq	r0, r0, r3, ror r5
    3e2c:	10d41634 	sbcsne	r1, r4, r4, lsr r6
    3e30:	48040000 	stmdami	r4, {}	; <UNPREDICTABLE>
    3e34:	00001d02 	andeq	r1, r0, r2, lsl #26
    3e38:	14163800 	ldrne	r3, [r6], #-2048	; 0xfffff800
    3e3c:	04000014 	streq	r0, [r0], #-20	; 0xffffffec
    3e40:	0826024a 	stmdaeq	r6!, {r1, r3, r6, r9}
    3e44:	163c0000 	ldrtne	r0, [ip], -r0
    3e48:	00001476 	andeq	r1, r0, r6, ror r4
    3e4c:	5d024d04 	stcpl	13, cr4, [r2, #-16]
    3e50:	40000001 	andmi	r0, r0, r1
    3e54:	00118a16 	andseq	r8, r1, r6, lsl sl
    3e58:	024e0400 	subeq	r0, lr, #0, 8
    3e5c:	0000001d 	andeq	r0, r0, sp, lsl r0
    3e60:	14b01644 	ldrtne	r1, [r0], #1604	; 0x644
    3e64:	4f040000 	svcmi	0x00040000
    3e68:	00015d02 	andeq	r5, r1, r2, lsl #26
    3e6c:	73164800 	tstvc	r6, #0, 16
    3e70:	04000012 	streq	r0, [r0], #-18	; 0xffffffee
    3e74:	082c0250 	stmdaeq	ip!, {r4, r6, r9}
    3e78:	164c0000 	strbne	r0, [ip], -r0
    3e7c:	0000121c 	andeq	r1, r0, ip, lsl r2
    3e80:	1d025304 	stcne	3, cr5, [r2, #-16]
    3e84:	50000000 	andpl	r0, r0, r0
    3e88:	00138d16 	andseq	r8, r3, r6, lsl sp
    3e8c:	02540400 	subseq	r0, r4, #0, 8
    3e90:	00000542 	andeq	r0, r0, r2, asr #10
    3e94:	15141654 	ldrne	r1, [r4, #-1620]	; 0xfffff9ac
    3e98:	77040000 	strvc	r0, [r4, -r0]
    3e9c:	0007e902 	andeq	lr, r7, r2, lsl #18
    3ea0:	02175800 	andseq	r5, r7, #0, 16
    3ea4:	04000010 	streq	r0, [r0], #-16
    3ea8:	027a027b 	rsbseq	r0, sl, #-1342177273	; 0xb0000007
    3eac:	01480000 	mrseq	r0, (UNDEF: 72)
    3eb0:	0012bd17 	andseq	fp, r2, r7, lsl sp
    3eb4:	027c0400 	rsbseq	r0, ip, #0, 8
    3eb8:	0000023c 	andeq	r0, r0, ip, lsr r2
    3ebc:	6017014c 	andsvs	r0, r7, ip, asr #2
    3ec0:	04000012 	streq	r0, [r0], #-18	; 0xffffffee
    3ec4:	083d0280 	ldmdaeq	sp!, {r7, r9}
    3ec8:	02dc0000 	sbcseq	r0, ip, #0
    3ecc:	00136817 	andseq	r6, r3, r7, lsl r8
    3ed0:	02850400 	addeq	r0, r5, #0, 8
    3ed4:	000005ee 	andeq	r0, r0, lr, ror #11
    3ed8:	9c1702e0 	lfmls	f0, 4, [r7], {224}	; 0xe0
    3edc:	04000011 	streq	r0, [r0], #-17	; 0xffffffef
    3ee0:	08490286 	stmdaeq	r9, {r1, r2, r7, r9}^
    3ee4:	02ec0000 	rsceq	r0, ip, #0
    3ee8:	48040f00 	stmdami	r4, {r8, r9, sl, fp}
    3eec:	03000005 	movweq	r0, #5
    3ef0:	05b20801 	ldreq	r0, [r2, #2049]!	; 0x801
    3ef4:	040f0000 	streq	r0, [pc], #-0	; 3efc <_Min_Stack_Size+0x3afc>
    3ef8:	000003ec 	andeq	r0, r0, ip, ror #7
    3efc:	00001d13 	andeq	r1, r0, r3, lsl sp
    3f00:	00057300 	andeq	r7, r5, r0, lsl #6
    3f04:	040a1400 	streq	r1, [sl], #-1024	; 0xfffffc00
    3f08:	fd140000 	ldc2	0, cr0, [r4, #-0]
    3f0c:	14000000 	strne	r0, [r0], #-0
    3f10:	00000573 	andeq	r0, r0, r3, ror r5
    3f14:	00001d14 	andeq	r1, r0, r4, lsl sp
    3f18:	040f0000 	streq	r0, [pc], #-0	; 3f20 <_Min_Stack_Size+0x3b20>
    3f1c:	00000579 	andeq	r0, r0, r9, ror r5
    3f20:	00054818 	andeq	r4, r5, r8, lsl r8
    3f24:	55040f00 	strpl	r0, [r4, #-3840]	; 0xfffff100
    3f28:	13000005 	movwne	r0, #5
    3f2c:	00000079 	andeq	r0, r0, r9, ror r0
    3f30:	000005a2 	andeq	r0, r0, r2, lsr #11
    3f34:	00040a14 	andeq	r0, r4, r4, lsl sl
    3f38:	00fd1400 	rscseq	r1, sp, r0, lsl #8
    3f3c:	79140000 	ldmdbvc	r4, {}	; <UNPREDICTABLE>
    3f40:	14000000 	strne	r0, [r0], #-0
    3f44:	0000001d 	andeq	r0, r0, sp, lsl r0
    3f48:	84040f00 	strhi	r0, [r4], #-3840	; 0xfffff100
    3f4c:	13000005 	movwne	r0, #5
    3f50:	0000001d 	andeq	r0, r0, sp, lsl r0
    3f54:	000005bc 			; <UNDEFINED> instruction: 0x000005bc
    3f58:	00040a14 	andeq	r0, r4, r4, lsl sl
    3f5c:	00fd1400 	rscseq	r1, sp, r0, lsl #8
    3f60:	0f000000 	svceq	0x00000000
    3f64:	0005a804 	andeq	sl, r5, r4, lsl #16
    3f68:	00320800 	eorseq	r0, r2, r0, lsl #16
    3f6c:	05d20000 	ldrbeq	r0, [r2]
    3f70:	bf090000 	svclt	0x00090000
    3f74:	02000000 	andeq	r0, r0, #0
    3f78:	00320800 	eorseq	r0, r2, r0, lsl #16
    3f7c:	05e20000 	strbeq	r0, [r2, #0]!
    3f80:	bf090000 	svclt	0x00090000
    3f84:	00000000 	andeq	r0, r0, r0
    3f88:	12430500 	subne	r0, r3, #0, 10
    3f8c:	1d040000 	stcne	0, cr0, [r4, #-0]
    3f90:	0002c201 	andeq	ip, r2, r1, lsl #4
    3f94:	11ed1900 	mvnne	r1, r0, lsl #18
    3f98:	040c0000 	streq	r0, [ip], #-0
    3f9c:	06230121 	strteq	r0, [r3], -r1, lsr #2
    3fa0:	c0160000 	andsgt	r0, r6, r0
    3fa4:	04000014 	streq	r0, [r0], #-20	; 0xffffffec
    3fa8:	06230123 	strteq	r0, [r3], -r3, lsr #2
    3fac:	16000000 	strne	r0, [r0], -r0
    3fb0:	0000123c 	andeq	r1, r0, ip, lsr r2
    3fb4:	1d012404 	cfstrsne	mvf2, [r1, #-16]
    3fb8:	04000000 	streq	r0, [r0], #-0
    3fbc:	0012a616 	andseq	sl, r2, r6, lsl r6
    3fc0:	01250400 			; <UNDEFINED> instruction: 0x01250400
    3fc4:	00000629 	andeq	r0, r0, r9, lsr #12
    3fc8:	040f0008 	streq	r0, [pc], #-8	; 3fd0 <_Min_Stack_Size+0x3bd0>
    3fcc:	000005ee 	andeq	r0, r0, lr, ror #11
    3fd0:	05e2040f 	strbeq	r0, [r2, #1039]!	; 0x40f
    3fd4:	56190000 	ldrpl	r0, [r9], -r0
    3fd8:	0e000014 	mcreq	0, 0, r0, cr0, cr4, {0}
    3fdc:	64013d04 	strvs	r3, [r1], #-3332	; 0xfffff2fc
    3fe0:	16000006 	strne	r0, [r0], -r6
    3fe4:	00001450 	andeq	r1, r0, r0, asr r4
    3fe8:	64013e04 	strvs	r3, [r1], #-3588	; 0xfffff1fc
    3fec:	00000006 	andeq	r0, r0, r6
    3ff0:	0012ac16 	andseq	sl, r2, r6, lsl ip
    3ff4:	013f0400 	teqeq	pc, r0, lsl #8
    3ff8:	00000664 	andeq	r0, r0, r4, ror #12
    3ffc:	14871606 	strne	r1, [r7], #1542	; 0x606
    4000:	40040000 	andmi	r0, r4, r0
    4004:	00004001 	andeq	r4, r0, r1
    4008:	08000c00 	stmdaeq	r0, {sl, fp}
    400c:	00000040 	andeq	r0, r0, r0, asr #32
    4010:	00000674 	andeq	r0, r0, r4, ror r6
    4014:	0000bf09 	andeq	fp, r0, r9, lsl #30
    4018:	1a000200 	bne	4820 <_Min_Stack_Size+0x4420>
    401c:	025804d0 	subseq	r0, r8, #208, 8	; 0xd0000000
    4020:	00000775 	andeq	r0, r0, r5, ror r7
    4024:	0013b816 	andseq	fp, r3, r6, lsl r8
    4028:	025a0400 	subseq	r0, sl, #0, 8
    402c:	00000024 	andeq	r0, r0, r4, lsr #32
    4030:	14431600 	strbne	r1, [r3], #-1536	; 0xfffffa00
    4034:	5b040000 	blpl	10403c <_Min_Stack_Size+0x103c3c>
    4038:	00054202 	andeq	r4, r5, r2, lsl #4
    403c:	ff160400 			; <UNDEFINED> instruction: 0xff160400
    4040:	04000014 	streq	r0, [r0], #-20	; 0xffffffec
    4044:	0775025c 			; <UNDEFINED> instruction: 0x0775025c
    4048:	16080000 	strne	r0, [r8], -r0
    404c:	000011cc 	andeq	r1, r0, ip, asr #3
    4050:	73025d04 	movwvc	r5, #11524	; 0x2d04
    4054:	24000001 	strcs	r0, [r0], #-1
    4058:	0013a916 	andseq	sl, r3, r6, lsl r9
    405c:	025e0400 	subseq	r0, lr, #0, 8
    4060:	0000001d 	andeq	r0, r0, sp, lsl r0
    4064:	14bb1648 	ldrtne	r1, [fp], #1608	; 0x648
    4068:	5f040000 	svcpl	0x00040000
    406c:	00005c02 	andeq	r5, r0, r2, lsl #24
    4070:	04165000 	ldreq	r5, [r6], #-0
    4074:	04000012 	streq	r0, [r0], #-18	; 0xffffffee
    4078:	062f0260 	strteq	r0, [pc], -r0, ror #4
    407c:	16580000 	ldrbne	r0, [r8], -r0
    4080:	000010e7 	andeq	r1, r0, r7, ror #1
    4084:	e7026104 	str	r6, [r2, -r4, lsl #2]
    4088:	68000000 	stmdavs	r0, {}	; <UNPREDICTABLE>
    408c:	0013d716 	andseq	sp, r3, r6, lsl r7
    4090:	02620400 	rsbeq	r0, r2, #0, 8
    4094:	000000e7 	andeq	r0, r0, r7, ror #1
    4098:	14961670 	ldrne	r1, [r6], #1648	; 0x670
    409c:	63040000 	movwvs	r0, #16384	; 0x4000
    40a0:	0000e702 	andeq	lr, r0, r2, lsl #14
    40a4:	f4167800 			; <UNDEFINED> instruction: 0xf4167800
    40a8:	04000010 	streq	r0, [r0], #-16
    40ac:	07850264 	streq	r0, [r5, r4, ror #4]
    40b0:	16800000 	strne	r0, [r0], r0
    40b4:	000011a1 	andeq	r1, r0, r1, lsr #3
    40b8:	95026504 	strls	r6, [r2, #-1284]	; 0xfffffafc
    40bc:	88000007 	stmdahi	r0, {r0, r1, r2}
    40c0:	00124a16 	andseq	r4, r2, r6, lsl sl
    40c4:	02660400 	rsbeq	r0, r6, #0, 8
    40c8:	0000001d 	andeq	r0, r0, sp, lsl r0
    40cc:	13ec16a0 	mvnne	r1, #160, 12	; 0xa000000
    40d0:	67040000 	strvs	r0, [r4, -r0]
    40d4:	0000e702 	andeq	lr, r0, r2, lsl #14
    40d8:	7e16a400 	cfmulsvc	mvf10, mvf6, mvf0
    40dc:	04000013 	streq	r0, [r0], #-19	; 0xffffffed
    40e0:	00e70268 	rsceq	r0, r7, r8, ror #4
    40e4:	16ac0000 	strtne	r0, [ip], r0
    40e8:	000011f3 	strdeq	r1, [r0], -r3
    40ec:	e7026904 	str	r6, [r2, -r4, lsl #18]
    40f0:	b4000000 	strlt	r0, [r0], #-0
    40f4:	0014e416 	andseq	lr, r4, r6, lsl r4
    40f8:	026a0400 	rsbeq	r0, sl, #0, 8
    40fc:	000000e7 	andeq	r0, r0, r7, ror #1
    4100:	11ad16bc 			; <UNDEFINED> instruction: 0x11ad16bc
    4104:	6b040000 	blvs	10410c <_Min_Stack_Size+0x103d0c>
    4108:	0000e702 	andeq	lr, r0, r2, lsl #14
    410c:	5f16c400 	svcpl	0x0016c400
    4110:	04000013 	streq	r0, [r0], #-19	; 0xffffffed
    4114:	001d026c 	andseq	r0, sp, ip, ror #4
    4118:	00cc0000 	sbceq	r0, ip, r0
    411c:	00054808 	andeq	r4, r5, r8, lsl #16
    4120:	00078500 	andeq	r8, r7, r0, lsl #10
    4124:	00bf0900 	adcseq	r0, pc, r0, lsl #18
    4128:	00190000 	andseq	r0, r9, r0
    412c:	00054808 	andeq	r4, r5, r8, lsl #16
    4130:	00079500 	andeq	r9, r7, r0, lsl #10
    4134:	00bf0900 	adcseq	r0, pc, r0, lsl #18
    4138:	00070000 	andeq	r0, r7, r0
    413c:	00054808 	andeq	r4, r5, r8, lsl #16
    4140:	0007a500 	andeq	sl, r7, r0, lsl #10
    4144:	00bf0900 	adcseq	r0, pc, r0, lsl #18
    4148:	00170000 	andseq	r0, r7, r0
    414c:	7104f01a 	tstvc	r4, sl, lsl r0	; <UNPREDICTABLE>
    4150:	0007c902 	andeq	ip, r7, r2, lsl #18
    4154:	131c1600 	tstne	ip, #0, 12
    4158:	74040000 	strvc	r0, [r4], #-0
    415c:	0007c902 	andeq	ip, r7, r2, lsl #18
    4160:	6a160000 	bvs	584168 <_Min_Stack_Size+0x583d68>
    4164:	04000012 	streq	r0, [r0], #-18	; 0xffffffee
    4168:	07d90275 			; <UNDEFINED> instruction: 0x07d90275
    416c:	00780000 	rsbseq	r0, r8, r0
    4170:	0002bc08 	andeq	fp, r2, r8, lsl #24
    4174:	0007d900 	andeq	sp, r7, r0, lsl #18
    4178:	00bf0900 	adcseq	r0, pc, r0, lsl #18
    417c:	001d0000 	andseq	r0, sp, r0
    4180:	00002408 	andeq	r2, r0, r8, lsl #8
    4184:	0007e900 	andeq	lr, r7, r0, lsl #18
    4188:	00bf0900 	adcseq	r0, pc, r0, lsl #18
    418c:	001d0000 	andseq	r0, sp, r0
    4190:	5604f01b 			; <UNDEFINED> instruction: 0x5604f01b
    4194:	00080b02 	andeq	r0, r8, r2, lsl #22
    4198:	14dd1c00 	ldrbne	r1, [sp], #3072	; 0xc00
    419c:	6d040000 	stcvs	0, cr0, [r4, #-0]
    41a0:	00067402 	andeq	r7, r6, r2, lsl #8
    41a4:	13cf1c00 	bicne	r1, pc, #0, 24
    41a8:	76040000 	strvc	r0, [r4], -r0
    41ac:	0007a502 	andeq	sl, r7, r2, lsl #10
    41b0:	48080000 	stmdami	r8, {}	; <UNPREDICTABLE>
    41b4:	1b000005 	blne	41d0 <_Min_Stack_Size+0x3dd0>
    41b8:	09000008 	stmdbeq	r0, {r3}
    41bc:	000000bf 	strheq	r0, [r0], -pc	; <UNPREDICTABLE>
    41c0:	261d0018 			; <UNDEFINED> instruction: 0x261d0018
    41c4:	14000008 	strne	r0, [r0], #-8
    41c8:	0000040a 	andeq	r0, r0, sl, lsl #8
    41cc:	1b040f00 	blne	107dd4 <_Min_Stack_Size+0x1079d4>
    41d0:	0f000008 	svceq	0x00000008
    41d4:	00015d04 	andeq	r5, r1, r4, lsl #26
    41d8:	083d1d00 	ldmdaeq	sp!, {r8, sl, fp, ip}
    41dc:	1d140000 	ldcne	0, cr0, [r4, #-0]
    41e0:	00000000 	andeq	r0, r0, r0
    41e4:	0843040f 	stmdaeq	r3, {r0, r1, r2, r3, sl}^
    41e8:	040f0000 	streq	r0, [pc], #-0	; 41f0 <_Min_Stack_Size+0x3df0>
    41ec:	00000832 	andeq	r0, r0, r2, lsr r8
    41f0:	0005e208 	andeq	lr, r5, r8, lsl #4
    41f4:	00085900 	andeq	r5, r8, r0, lsl #18
    41f8:	00bf0900 	adcseq	r0, pc, r0, lsl #18
    41fc:	00020000 	andeq	r0, r2, r0
    4200:	0010fe1e 	andseq	pc, r0, lr, lsl lr	; <UNPREDICTABLE>
    4204:	10170500 	andsne	r0, r7, r0, lsl #10
    4208:	05000004 	streq	r0, [r0, #-4]
    420c:	00001803 	andeq	r1, r0, r3, lsl #16
    4210:	12f71f20 	rscsne	r1, r7, #32, 30	; 0x80
    4214:	fa040000 	blx	10421c <_Min_Stack_Size+0x103e1c>
    4218:	00040a02 	andeq	r0, r4, r2, lsl #20
    421c:	00030500 	andeq	r0, r3, r0, lsl #10
    4220:	1f000000 	svcne	0x00000000
    4224:	000012f0 	strdeq	r1, [r0], -r0
    4228:	8e02fb04 	vmlahi.f64	d15, d2, d4
    422c:	05000008 	streq	r0, [r0, #-8]
    4230:	00134803 	andseq	r4, r3, r3, lsl #16
    4234:	040a1808 	streq	r1, [sl], #-2056	; 0xfffff7f8
    4238:	01000000 	mrseq	r0, (UNDEF: 0)
    423c:	04000001 	streq	r0, [r0], #-1
    4240:	00110000 	andseq	r0, r1, r0
    4244:	e6010400 	str	r0, [r1], -r0, lsl #8
    4248:	0100000e 	tsteq	r0, lr
    424c:	0000155a 	andeq	r1, r0, sl, asr r5
    4250:	00001071 	andeq	r1, r0, r1, ror r0
    4254:	00000398 	muleq	r0, r8, r3
    4258:	00000000 	andeq	r0, r0, r0
    425c:	0000178b 	andeq	r1, r0, fp, lsl #15
    4260:	ab060102 	blge	184670 <_Min_Stack_Size+0x184270>
    4264:	02000005 	andeq	r0, r0, #5
    4268:	05a90801 	streq	r0, [r9, #2049]!	; 0x801
    426c:	02020000 	andeq	r0, r2, #0
    4270:	00043305 	andeq	r3, r4, r5, lsl #6
    4274:	07020200 	streq	r0, [r2, -r0, lsl #4]
    4278:	0000060b 	andeq	r0, r0, fp, lsl #12
    427c:	31050402 	tstcc	r5, r2, lsl #8
    4280:	02000003 	andeq	r0, r0, #3
    4284:	01b60704 			; <UNDEFINED> instruction: 0x01b60704
    4288:	08020000 	stmdaeq	r2, {}	; <UNPREDICTABLE>
    428c:	00032c05 	andeq	r2, r3, r5, lsl #24
    4290:	07080200 	streq	r0, [r8, -r0, lsl #4]
    4294:	000001b1 			; <UNDEFINED> instruction: 0x000001b1
    4298:	69050403 	stmdbvs	r5, {r0, r1, sl}
    429c:	0200746e 	andeq	r7, r0, #1845493760	; 0x6e000000
    42a0:	01bb0704 			; <UNDEFINED> instruction: 0x01bb0704
    42a4:	0a040000 	beq	1042ac <_Min_Stack_Size+0x103eac>
    42a8:	02000010 	andeq	r0, r0, #16
    42ac:	000064d4 	ldrdeq	r6, [r0], -r4
    42b0:	07040200 	streq	r0, [r4, -r0, lsl #4]
    42b4:	00000420 	andeq	r0, r0, r0, lsr #8
    42b8:	b2080102 	andlt	r0, r8, #-2147483648	; 0x80000000
    42bc:	05000005 	streq	r0, [r0, #-5]
    42c0:	0000152c 	andeq	r1, r0, ip, lsr #10
    42c4:	10e01c01 	rscne	r1, r0, r1, lsl #24
    42c8:	00480800 	subeq	r0, r8, r0, lsl #16
    42cc:	9c010000 	stcls	0, cr0, [r1], {-0}
    42d0:	000000bf 	strheq	r0, [r0], -pc	; <UNPREDICTABLE>
    42d4:	0011dd06 	andseq	sp, r1, r6, lsl #26
    42d8:	6b1e0100 	blvs	7846e0 <_Min_Stack_Size+0x7842e0>
    42dc:	6f000000 	svcvs	0x00000000
    42e0:	0700000e 	streq	r0, [r0, -lr]
    42e4:	1f010069 	svcne	0x00010069
    42e8:	0000006b 	andeq	r0, r0, fp, rrx
    42ec:	00000e8d 	andeq	r0, r0, sp, lsl #29
    42f0:	0010fe08 	andseq	pc, r0, r8, lsl #28
    42f4:	0000fd08 	andeq	pc, r0, r8, lsl #26
    42f8:	ca090000 	bgt	244300 <_Min_Stack_Size+0x243f00>
    42fc:	ca000000 	bgt	4304 <_Min_Stack_Size+0x3f04>
    4300:	0a000000 	beq	4308 <_Min_Stack_Size+0x3f08>
    4304:	d0040b00 	andle	r0, r4, r0, lsl #22
    4308:	0c000000 	stceq	0, cr0, [r0], {-0}
    430c:	00153e0d 	andseq	r3, r5, sp, lsl #28
    4310:	bf130100 	svclt	0x00130100
    4314:	0d000000 	stceq	0, cr0, [r0, #-0]
    4318:	00001584 	andeq	r1, r0, r4, lsl #11
    431c:	00bf1401 	adcseq	r1, pc, r1, lsl #8
    4320:	190d0000 	stmdbne	sp, {}	; <UNPREDICTABLE>
    4324:	01000015 	tsteq	r0, r5, lsl r0
    4328:	0000bf15 	andeq	fp, r0, r5, lsl pc
    432c:	15980d00 	ldrne	r0, [r8, #3328]	; 0xd00
    4330:	16010000 	strne	r0, [r1], -r0
    4334:	000000bf 	strheq	r0, [r0], -pc	; <UNPREDICTABLE>
    4338:	0015540e 	andseq	r5, r5, lr, lsl #8
    433c:	00180100 	andseq	r0, r8, r0, lsl #2
    4340:	0000012d 	andeq	r0, r0, sp, lsr #2
    4344:	11ba0004 			; <UNDEFINED> instruction: 0x11ba0004
    4348:	01040000 	mrseq	r0, (UNDEF: 4)
    434c:	00000ee6 	andeq	r0, r0, r6, ror #29
    4350:	00163001 	andseq	r3, r6, r1
    4354:	0015b500 	andseq	fp, r5, r0, lsl #10
    4358:	0003a800 	andeq	sl, r3, r0, lsl #16
    435c:	00000000 	andeq	r0, r0, r0
    4360:	00184b00 	andseq	r4, r8, r0, lsl #22
    4364:	05040200 	streq	r0, [r4, #-512]	; 0xfffffe00
    4368:	00746e69 	rsbseq	r6, r4, r9, ror #28
    436c:	00100a03 	andseq	r0, r0, r3, lsl #20
    4370:	37d40200 	ldrbcc	r0, [r4, r0, lsl #4]
    4374:	04000000 	streq	r0, [r0], #-0
    4378:	01bb0704 			; <UNDEFINED> instruction: 0x01bb0704
    437c:	01040000 	mrseq	r0, (UNDEF: 4)
    4380:	0005ab06 	andeq	sl, r5, r6, lsl #22
    4384:	08010400 	stmdaeq	r1, {sl}
    4388:	000005a9 	andeq	r0, r0, r9, lsr #11
    438c:	33050204 	movwcc	r0, #20996	; 0x5204
    4390:	04000004 	streq	r0, [r0], #-4
    4394:	060b0702 	streq	r0, [fp], -r2, lsl #14
    4398:	04040000 	streq	r0, [r4], #-0
    439c:	00033105 	andeq	r3, r3, r5, lsl #2
    43a0:	07040400 	streq	r0, [r4, -r0, lsl #8]
    43a4:	000001b6 			; <UNDEFINED> instruction: 0x000001b6
    43a8:	2c050804 	stccs	8, cr0, [r5], {4}
    43ac:	04000003 	streq	r0, [r0], #-3
    43b0:	01b10708 			; <UNDEFINED> instruction: 0x01b10708
    43b4:	04040000 	streq	r0, [r4], #-0
    43b8:	00042007 	andeq	r2, r4, r7
    43bc:	06040500 	streq	r0, [r4], -r0, lsl #10
    43c0:	00008504 	andeq	r8, r0, r4, lsl #10
    43c4:	08010400 	stmdaeq	r1, {sl}
    43c8:	000005b2 			; <UNDEFINED> instruction: 0x000005b2
    43cc:	00920406 	addseq	r0, r2, r6, lsl #8
    43d0:	85070000 	strhi	r0, [r7, #-0]
    43d4:	08000000 	stmdaeq	r0, {}	; <UNPREDICTABLE>
    43d8:	00000b5a 	andeq	r0, r0, sl, asr fp
    43dc:	007d1703 	rsbseq	r1, sp, r3, lsl #14
    43e0:	11280000 			; <UNDEFINED> instruction: 0x11280000
    43e4:	007c0800 	rsbseq	r0, ip, r0, lsl #16
    43e8:	9c010000 	stcls	0, cr0, [r1], {-0}
    43ec:	00000118 	andeq	r0, r0, r8, lsl r1
    43f0:	00161f09 	andseq	r1, r6, r9, lsl #30
    43f4:	7d360100 	ldfvcs	f0, [r6, #-0]
    43f8:	01000000 	mrseq	r0, (UNDEF: 0)
    43fc:	161a0a50 			; <UNDEFINED> instruction: 0x161a0a50
    4400:	36010000 	strcc	r0, [r1], -r0
    4404:	00000118 	andeq	r0, r0, r8, lsl r1
    4408:	00000ef3 	strdeq	r0, [r0], -r3
    440c:	00165e0a 	andseq	r5, r6, sl, lsl #28
    4410:	2c360100 	ldfcss	f0, [r6], #-0
    4414:	46000000 	strmi	r0, [r0], -r0
    4418:	0b00000f 	bleq	445c <_Min_Stack_Size+0x405c>
    441c:	00747364 	rsbseq	r7, r4, r4, ror #6
    4420:	007f4801 	rsbseq	r4, pc, r1, lsl #16
    4424:	105c0000 	subsne	r0, ip, r0
    4428:	730b0000 	movwvc	r0, #45056	; 0xb000
    442c:	01006372 	tsteq	r0, r2, ror r3
    4430:	00008c49 	andeq	r8, r0, r9, asr #24
    4434:	0010de00 	andseq	sp, r0, r0, lsl #28
    4438:	15a90c00 	strne	r0, [r9, #3072]!	; 0xc00
    443c:	4a010000 	bmi	44444 <_Min_Stack_Size+0x44044>
    4440:	0000011f 	andeq	r0, r0, pc, lsl r1
    4444:	00001150 	andeq	r1, r0, r0, asr r1
    4448:	0016240c 	andseq	r2, r6, ip, lsl #8
    444c:	254b0100 	strbcs	r0, [fp, #-256]	; 0xffffff00
    4450:	10000001 	andne	r0, r0, r1
    4454:	00000012 	andeq	r0, r0, r2, lsl r0
    4458:	011e0406 	tsteq	lr, r6, lsl #8
    445c:	060d0000 	streq	r0, [sp], -r0
    4460:	00005a04 	andeq	r5, r0, r4, lsl #20
    4464:	2b040600 	blcs	105c6c <_Min_Stack_Size+0x10586c>
    4468:	07000001 	streq	r0, [r0, -r1]
    446c:	0000005a 	andeq	r0, r0, sl, asr r0
    4470:	00093000 	andeq	r3, r9, r0
    4474:	65000400 	strvs	r0, [r0, #-1024]	; 0xfffffc00
    4478:	04000012 	streq	r0, [r0], #-18	; 0xffffffee
    447c:	000ee601 	andeq	lr, lr, r1, lsl #12
    4480:	16630100 	strbtne	r0, [r3], -r0, lsl #2
    4484:	0f990000 	svceq	0x00990000
    4488:	03b80000 			; <UNDEFINED> instruction: 0x03b80000
    448c:	00000000 	andeq	r0, r0, r0
    4490:	195f0000 	ldmdbne	pc, {}^	; <UNPREDICTABLE>
    4494:	04020000 	streq	r0, [r2], #-0
    4498:	746e6905 	strbtvc	r6, [lr], #-2309	; 0xfffff6fb
    449c:	100a0300 	andne	r0, sl, r0, lsl #6
    44a0:	d4020000 	strle	r0, [r2], #-0
    44a4:	00000037 	andeq	r0, r0, r7, lsr r0
    44a8:	bb070404 	bllt	1c54c0 <_Min_Stack_Size+0x1c50c0>
    44ac:	04000001 	streq	r0, [r0], #-1
    44b0:	05ab0601 	streq	r0, [fp, #1537]!	; 0x601
    44b4:	01040000 	mrseq	r0, (UNDEF: 4)
    44b8:	0005a908 	andeq	sl, r5, r8, lsl #18
    44bc:	05020400 	streq	r0, [r2, #-1024]	; 0xfffffc00
    44c0:	00000433 	andeq	r0, r0, r3, lsr r4
    44c4:	0b070204 	bleq	1c4cdc <_Min_Stack_Size+0x1c48dc>
    44c8:	04000006 	streq	r0, [r0], #-6
    44cc:	03310504 	teqeq	r1, #4, 10	; 0x1000000
    44d0:	04040000 	streq	r0, [r4], #-0
    44d4:	0001b607 	andeq	fp, r1, r7, lsl #12
    44d8:	05080400 	streq	r0, [r8, #-1024]	; 0xfffffc00
    44dc:	0000032c 	andeq	r0, r0, ip, lsr #6
    44e0:	b1070804 	tstlt	r7, r4, lsl #16
    44e4:	03000001 	movweq	r0, #1
    44e8:	0000122a 	andeq	r1, r0, sl, lsr #4
    44ec:	00250703 	eoreq	r0, r5, r3, lsl #14
    44f0:	0a030000 	beq	c44f8 <_Min_Stack_Size+0xc40f8>
    44f4:	04000011 	streq	r0, [r0], #-17	; 0xffffffef
    44f8:	00005a10 	andeq	r5, r0, r0, lsl sl
    44fc:	12d80300 	sbcsne	r0, r8, #0, 6
    4500:	27040000 	strcs	r0, [r4, -r0]
    4504:	0000005a 	andeq	r0, r0, sl, asr r0
    4508:	0013e505 	andseq	lr, r3, r5, lsl #10
    450c:	01610200 	cmneq	r1, r0, lsl #4
    4510:	00000037 	andeq	r0, r0, r7, lsr r0
    4514:	4a040406 	bmi	105534 <_Min_Stack_Size+0x105134>
    4518:	000000c2 	andeq	r0, r0, r2, asr #1
    451c:	00111107 	andseq	r1, r1, r7, lsl #2
    4520:	974c0400 	strbls	r0, [ip, -r0, lsl #8]
    4524:	07000000 	streq	r0, [r0, -r0]
    4528:	0000132b 	andeq	r1, r0, fp, lsr #6
    452c:	00c24d04 	sbceq	r4, r2, r4, lsl #26
    4530:	08000000 	stmdaeq	r0, {}	; <UNPREDICTABLE>
    4534:	00000045 	andeq	r0, r0, r5, asr #32
    4538:	000000d2 	ldrdeq	r0, [r0], -r2
    453c:	0000d209 	andeq	sp, r0, r9, lsl #4
    4540:	04000300 	streq	r0, [r0], #-768	; 0xfffffd00
    4544:	04200704 	strteq	r0, [r0], #-1796	; 0xfffff8fc
    4548:	080a0000 	stmdaeq	sl, {}	; <UNPREDICTABLE>
    454c:	00fa4704 	rscseq	r4, sl, r4, lsl #14
    4550:	db0b0000 	blle	2c4558 <_Min_Stack_Size+0x2c4158>
    4554:	04000011 	streq	r0, [r0], #-17	; 0xffffffef
    4558:	00002549 	andeq	r2, r0, r9, asr #10
    455c:	7b0b0000 	blvc	2c4564 <_Min_Stack_Size+0x2c4164>
    4560:	04000011 	streq	r0, [r0], #-17	; 0xffffffef
    4564:	0000a34e 	andeq	sl, r0, lr, asr #6
    4568:	03000400 	movweq	r0, #1024	; 0x400
    456c:	0000141e 	andeq	r1, r0, lr, lsl r4
    4570:	00d94f04 	sbcseq	r4, r9, r4, lsl #30
    4574:	e7030000 	str	r0, [r3, -r0]
    4578:	04000012 	streq	r0, [r0], #-18	; 0xffffffee
    457c:	00007653 	andeq	r7, r0, r3, asr r6
    4580:	03040c00 	movweq	r0, #19456	; 0x4c00
    4584:	00001468 	andeq	r1, r0, r8, ror #8
    4588:	00611605 	rsbeq	r1, r1, r5, lsl #12
    458c:	290d0000 	stmdbcs	sp, {}	; <UNPREDICTABLE>
    4590:	18000014 	stmdane	r0, {r2, r4}
    4594:	01702d05 	cmneq	r0, r5, lsl #26
    4598:	c00b0000 	andgt	r0, fp, r0
    459c:	05000014 	streq	r0, [r0, #-20]	; 0xffffffec
    45a0:	0001702f 	andeq	r7, r1, pc, lsr #32
    45a4:	5f0e0000 	svcpl	0x000e0000
    45a8:	3005006b 	andcc	r0, r5, fp, rrx
    45ac:	00000025 	andeq	r0, r0, r5, lsr #32
    45b0:	14310b04 	ldrtne	r0, [r1], #-2820	; 0xfffff4fc
    45b4:	30050000 	andcc	r0, r5, r0
    45b8:	00000025 	andeq	r0, r0, r5, lsr #32
    45bc:	14b50b08 	ldrtne	r0, [r5], #2824	; 0xb08
    45c0:	30050000 	andcc	r0, r5, r0
    45c4:	00000025 	andeq	r0, r0, r5, lsr #32
    45c8:	13c50b0c 	bicne	r0, r5, #12, 22	; 0x3000
    45cc:	30050000 	andcc	r0, r5, r0
    45d0:	00000025 	andeq	r0, r0, r5, lsr #32
    45d4:	785f0e10 	ldmdavc	pc, {r4, r9, sl, fp}^	; <UNPREDICTABLE>
    45d8:	76310500 	ldrtvc	r0, [r1], -r0, lsl #10
    45dc:	14000001 	strne	r0, [r0], #-1
    45e0:	1d040f00 	stcne	15, cr0, [r4, #-0]
    45e4:	08000001 	stmdaeq	r0, {r0}
    45e8:	00000112 	andeq	r0, r0, r2, lsl r1
    45ec:	00000186 	andeq	r0, r0, r6, lsl #3
    45f0:	0000d209 	andeq	sp, r0, r9, lsl #4
    45f4:	0d000000 	stceq	0, cr0, [r0, #-0]
    45f8:	000013ca 	andeq	r1, r0, sl, asr #7
    45fc:	ff350524 			; <UNDEFINED> instruction: 0xff350524
    4600:	0b000001 	bleq	460c <_Min_Stack_Size+0x420c>
    4604:	00001303 	andeq	r1, r0, r3, lsl #6
    4608:	00253705 	eoreq	r3, r5, r5, lsl #14
    460c:	0b000000 	bleq	4614 <_Min_Stack_Size+0x4214>
    4610:	00001257 	andeq	r1, r0, r7, asr r2
    4614:	00253805 	eoreq	r3, r5, r5, lsl #16
    4618:	0b040000 	bleq	104620 <_Min_Stack_Size+0x104220>
    461c:	0000130c 	andeq	r1, r0, ip, lsl #6
    4620:	00253905 	eoreq	r3, r5, r5, lsl #18
    4624:	0b080000 	bleq	20462c <_Min_Stack_Size+0x20422c>
    4628:	000011e3 	andeq	r1, r0, r3, ror #3
    462c:	00253a05 	eoreq	r3, r5, r5, lsl #20
    4630:	0b0c0000 	bleq	304638 <_Min_Stack_Size+0x304238>
    4634:	0000147e 	andeq	r1, r0, lr, ror r4
    4638:	00253b05 	eoreq	r3, r5, r5, lsl #22
    463c:	0b100000 	bleq	404644 <_Min_Stack_Size+0x404244>
    4640:	00001439 	andeq	r1, r0, r9, lsr r4
    4644:	00253c05 	eoreq	r3, r5, r5, lsl #24
    4648:	0b140000 	bleq	504650 <_Min_Stack_Size+0x504250>
    464c:	0000128b 	andeq	r1, r0, fp, lsl #5
    4650:	00253d05 	eoreq	r3, r5, r5, lsl #26
    4654:	0b180000 	bleq	60465c <_Min_Stack_Size+0x60425c>
    4658:	0000145e 	andeq	r1, r0, lr, asr r4
    465c:	00253e05 	eoreq	r3, r5, r5, lsl #28
    4660:	0b1c0000 	bleq	704668 <_Min_Stack_Size+0x704268>
    4664:	000012b2 			; <UNDEFINED> instruction: 0x000012b2
    4668:	00253f05 	eoreq	r3, r5, r5, lsl #30
    466c:	00200000 	eoreq	r0, r0, r0
    4670:	00137010 	andseq	r7, r3, r0, lsl r0
    4674:	05010800 	streq	r0, [r1, #-2048]	; 0xfffff800
    4678:	00023f48 	andeq	r3, r2, r8, asr #30
    467c:	12950b00 	addsne	r0, r5, #0, 22
    4680:	49050000 	stmdbmi	r5, {}	; <UNPREDICTABLE>
    4684:	0000023f 	andeq	r0, r0, pc, lsr r2
    4688:	14a40b00 	strtne	r0, [r4], #2816	; 0xb00
    468c:	4a050000 	bmi	144694 <_Min_Stack_Size+0x144294>
    4690:	0000023f 	andeq	r0, r0, pc, lsr r2
    4694:	12cf1180 	sbcne	r1, pc, #128, 2
    4698:	4c050000 	stcmi	0, cr0, [r5], {-0}
    469c:	00000112 	andeq	r0, r0, r2, lsl r1
    46a0:	0c110100 	ldfeqs	f0, [r1], {-0}
    46a4:	05000014 	streq	r0, [r0, #-20]	; 0xffffffec
    46a8:	0001124f 	andeq	r1, r1, pc, asr #4
    46ac:	00010400 	andeq	r0, r1, r0, lsl #8
    46b0:	00011008 	andeq	r1, r1, r8
    46b4:	00024f00 	andeq	r4, r2, r0, lsl #30
    46b8:	00d20900 	sbcseq	r0, r2, r0, lsl #18
    46bc:	001f0000 	andseq	r0, pc, r0
    46c0:	00100210 	andseq	r0, r0, r0, lsl r2
    46c4:	05019000 	streq	r9, [r1, #-0]
    46c8:	00028d5b 	andeq	r8, r2, fp, asr sp
    46cc:	14c00b00 	strbne	r0, [r0], #2816	; 0xb00
    46d0:	5c050000 	stcpl	0, cr0, [r5], {-0}
    46d4:	0000028d 	andeq	r0, r0, sp, lsl #5
    46d8:	14910b00 	ldrne	r0, [r1], #2816	; 0xb00
    46dc:	5d050000 	stcpl	0, cr0, [r5, #-0]
    46e0:	00000025 	andeq	r0, r0, r5, lsr #32
    46e4:	127d0b04 	rsbsne	r0, sp, #4, 22	; 0x1000
    46e8:	5f050000 	svcpl	0x00050000
    46ec:	00000293 	muleq	r0, r3, r2
    46f0:	13700b08 	cmnne	r0, #8, 22	; 0x2000
    46f4:	60050000 	andvs	r0, r5, r0
    46f8:	000001ff 	strdeq	r0, [r0], -pc	; <UNPREDICTABLE>
    46fc:	040f0088 	streq	r0, [pc], #-136	; 4704 <_Min_Stack_Size+0x4304>
    4700:	0000024f 	andeq	r0, r0, pc, asr #4
    4704:	0002a308 	andeq	sl, r2, r8, lsl #6
    4708:	0002a300 	andeq	sl, r2, r0, lsl #6
    470c:	00d20900 	sbcseq	r0, r2, r0, lsl #18
    4710:	001f0000 	andseq	r0, pc, r0
    4714:	02a9040f 	adceq	r0, r9, #251658240	; 0xf000000
    4718:	0d120000 	ldceq	0, cr0, [r2, #-0]
    471c:	00001183 	andeq	r1, r0, r3, lsl #3
    4720:	cf730508 	svcgt	0x00730508
    4724:	0b000002 	bleq	4734 <_Min_Stack_Size+0x4334>
    4728:	0000139d 	muleq	r0, sp, r3
    472c:	02cf7405 	sbceq	r7, pc, #83886080	; 0x5000000
    4730:	0b000000 	bleq	4738 <_Min_Stack_Size+0x4338>
    4734:	000014f9 	strdeq	r1, [r0], -r9
    4738:	00257505 	eoreq	r7, r5, r5, lsl #10
    473c:	00040000 	andeq	r0, r4, r0
    4740:	0045040f 	subeq	r0, r5, pc, lsl #8
    4744:	0c0d0000 	stceq	0, cr0, [sp], {-0}
    4748:	68000015 	stmdavs	r0, {r0, r2, r4}
    474c:	03ffb305 	mvnseq	fp, #335544320	; 0x14000000
    4750:	5f0e0000 	svcpl	0x000e0000
    4754:	b4050070 	strlt	r0, [r5], #-112	; 0xffffff90
    4758:	000002cf 	andeq	r0, r0, pc, asr #5
    475c:	725f0e00 	subsvc	r0, pc, #0, 28
    4760:	25b50500 	ldrcs	r0, [r5, #1280]!	; 0x500
    4764:	04000000 	streq	r0, [r0], #-0
    4768:	00775f0e 	rsbseq	r5, r7, lr, lsl #30
    476c:	0025b605 	eoreq	fp, r5, r5, lsl #12
    4770:	0b080000 	bleq	204778 <_Min_Stack_Size+0x204378>
    4774:	000011be 			; <UNDEFINED> instruction: 0x000011be
    4778:	004cb705 	subeq	fp, ip, r5, lsl #14
    477c:	0b0c0000 	bleq	304784 <_Min_Stack_Size+0x304384>
    4780:	000013a3 	andeq	r1, r0, r3, lsr #7
    4784:	004cb805 	subeq	fp, ip, r5, lsl #16
    4788:	0e0e0000 	cdpeq	0, 0, cr0, cr14, cr0, {0}
    478c:	0066625f 	rsbeq	r6, r6, pc, asr r2
    4790:	02aab905 	adceq	fp, sl, #81920	; 0x14000
    4794:	0b100000 	bleq	40479c <_Min_Stack_Size+0x40439c>
    4798:	0000129d 	muleq	r0, sp, r2
    479c:	0025ba05 	eoreq	fp, r5, r5, lsl #20
    47a0:	0b180000 	bleq	6047a8 <_Min_Stack_Size+0x6043a8>
    47a4:	00001395 	muleq	r0, r5, r3
    47a8:	0110c105 	tsteq	r0, r5, lsl #2
    47ac:	0b1c0000 	bleq	7047b4 <_Min_Stack_Size+0x7043b4>
    47b0:	00001316 	andeq	r1, r0, r6, lsl r3
    47b4:	0562c305 	strbeq	ip, [r2, #-773]!	; 0xfffffcfb
    47b8:	0b200000 	bleq	8047c0 <_Min_Stack_Size+0x8043c0>
    47bc:	000011c5 	andeq	r1, r0, r5, asr #3
    47c0:	0591c505 	ldreq	ip, [r1, #1285]	; 0x505
    47c4:	0b240000 	bleq	9047cc <_Min_Stack_Size+0x9043cc>
    47c8:	00001470 	andeq	r1, r0, r0, ror r4
    47cc:	05b5c805 	ldreq	ip, [r5, #2053]!	; 0x805
    47d0:	0b280000 	bleq	a047d8 <_Min_Stack_Size+0xa043d8>
    47d4:	000012e0 	andeq	r1, r0, r0, ror #5
    47d8:	05cfc905 	strbeq	ip, [pc, #2309]	; 50e5 <_Min_Stack_Size+0x4ce5>
    47dc:	0e2c0000 	cdpeq	0, 2, cr0, cr12, cr0, {0}
    47e0:	0062755f 	rsbeq	r7, r2, pc, asr r5
    47e4:	02aacc05 	adceq	ip, sl, #1280	; 0x500
    47e8:	0e300000 	cdpeq	0, 3, cr0, cr0, cr0, {0}
    47ec:	0070755f 	rsbseq	r7, r0, pc, asr r5
    47f0:	02cfcd05 	sbceq	ip, pc, #320	; 0x140
    47f4:	0e380000 	cdpeq	0, 3, cr0, cr8, cr0, {0}
    47f8:	0072755f 	rsbseq	r7, r2, pc, asr r5
    47fc:	0025ce05 	eoreq	ip, r5, r5, lsl #28
    4800:	0b3c0000 	bleq	f04808 <_Min_Stack_Size+0xf04408>
    4804:	000014f3 	strdeq	r1, [r0], -r3
    4808:	05d5d105 	ldrbeq	sp, [r5, #261]	; 0x105
    480c:	0b400000 	bleq	1004814 <_Min_Stack_Size+0x1004414>
    4810:	00001224 	andeq	r1, r0, r4, lsr #4
    4814:	05e5d205 	strbeq	sp, [r5, #517]!	; 0x205
    4818:	0e430000 	cdpeq	0, 4, cr0, cr3, cr0, {0}
    481c:	00626c5f 	rsbeq	r6, r2, pc, asr ip
    4820:	02aad505 	adceq	sp, sl, #20971520	; 0x1400000
    4824:	0b440000 	bleq	110482c <_Min_Stack_Size+0x110442c>
    4828:	000012c6 	andeq	r1, r0, r6, asr #5
    482c:	0025d805 	eoreq	sp, r5, r5, lsl #16
    4830:	0b4c0000 	bleq	1304838 <_Min_Stack_Size+0x1304438>
    4834:	00001194 	muleq	r0, r4, r1
    4838:	0081d905 	addeq	sp, r1, r5, lsl #18
    483c:	0b500000 	bleq	1404844 <_Min_Stack_Size+0x1404444>
    4840:	00001104 	andeq	r1, r0, r4, lsl #2
    4844:	041ddc05 	ldreq	sp, [sp], #-3077	; 0xfffff3fb
    4848:	0b540000 	bleq	1504850 <_Min_Stack_Size+0x1504450>
    484c:	0000170e 	andeq	r1, r0, lr, lsl #14
    4850:	0105e005 	tsteq	r5, r5
    4854:	0b580000 	bleq	160485c <_Min_Stack_Size+0x160445c>
    4858:	00001282 	andeq	r1, r0, r2, lsl #5
    485c:	00fae205 	rscseq	lr, sl, r5, lsl #4
    4860:	0b5c0000 	bleq	1704868 <_Min_Stack_Size+0x1704468>
    4864:	000010df 	ldrdeq	r1, [r0], -pc	; <UNPREDICTABLE>
    4868:	0025e305 	eoreq	lr, r5, r5, lsl #6
    486c:	00640000 	rsbeq	r0, r4, r0
    4870:	00002513 	andeq	r2, r0, r3, lsl r5
    4874:	00041d00 	andeq	r1, r4, r0, lsl #26
    4878:	041d1400 	ldreq	r1, [sp], #-1024	; 0xfffffc00
    487c:	10140000 	andsne	r0, r4, r0
    4880:	14000001 	strne	r0, [r0], #-1
    4884:	00000555 	andeq	r0, r0, r5, asr r5
    4888:	00002514 	andeq	r2, r0, r4, lsl r5
    488c:	040f0000 	streq	r0, [pc], #-0	; 4894 <_Min_Stack_Size+0x4494>
    4890:	00000423 	andeq	r0, r0, r3, lsr #8
    4894:	0014dd15 	andseq	sp, r4, r5, lsl sp
    4898:	05042800 	streq	r2, [r4, #-2048]	; 0xfffff800
    489c:	05550239 	ldrbeq	r0, [r5, #-569]	; 0xfffffdc7
    48a0:	61160000 	tstvs	r6, r0
    48a4:	05000013 	streq	r0, [r0, #-19]	; 0xffffffed
    48a8:	0025023b 	eoreq	r0, r5, fp, lsr r2
    48ac:	16000000 	strne	r0, [r0], -r0
    48b0:	000014c6 	andeq	r1, r0, r6, asr #9
    48b4:	3c024005 	stccc	0, cr4, [r2], {5}
    48b8:	04000006 	streq	r0, [r0], #-6
    48bc:	00120916 	andseq	r0, r2, r6, lsl r9
    48c0:	02400500 	subeq	r0, r0, #0, 10
    48c4:	0000063c 	andeq	r0, r0, ip, lsr r6
    48c8:	13231608 			; <UNDEFINED> instruction: 0x13231608
    48cc:	40050000 	andmi	r0, r5, r0
    48d0:	00063c02 	andeq	r3, r6, r2, lsl #24
    48d4:	8c160c00 	ldchi	12, cr0, [r6], {-0}
    48d8:	05000014 	streq	r0, [r0, #-20]	; 0xffffffec
    48dc:	00250242 	eoreq	r0, r5, r2, asr #4
    48e0:	16100000 	ldrne	r0, [r0], -r0
    48e4:	00001211 	andeq	r1, r0, r1, lsl r2
    48e8:	1e024305 	cdpne	3, 0, cr4, cr2, cr5, {0}
    48ec:	14000008 	strne	r0, [r0], #-8
    48f0:	0013fa16 	andseq	pc, r3, r6, lsl sl	; <UNPREDICTABLE>
    48f4:	02450500 	subeq	r0, r5, #0, 10
    48f8:	00000025 	andeq	r0, r0, r5, lsr #32
    48fc:	14cd1630 	strbne	r1, [sp], #1584	; 0x630
    4900:	46050000 	strmi	r0, [r5], -r0
    4904:	00058602 	andeq	r8, r5, r2, lsl #12
    4908:	d4163400 	ldrle	r3, [r6], #-1024	; 0xfffffc00
    490c:	05000010 	streq	r0, [r0, #-16]
    4910:	00250248 	eoreq	r0, r5, r8, asr #4
    4914:	16380000 	ldrtne	r0, [r8], -r0
    4918:	00001414 	andeq	r1, r0, r4, lsl r4
    491c:	39024a05 	stmdbcc	r2, {r0, r2, r9, fp, lr}
    4920:	3c000008 	stccc	0, cr0, [r0], {8}
    4924:	00147616 	andseq	r7, r4, r6, lsl r6
    4928:	024d0500 	subeq	r0, sp, #0, 10
    492c:	00000170 	andeq	r0, r0, r0, ror r1
    4930:	118a1640 	orrne	r1, sl, r0, asr #12
    4934:	4e050000 	cdpmi	0, 0, cr0, cr5, cr0, {0}
    4938:	00002502 	andeq	r2, r0, r2, lsl #10
    493c:	b0164400 	andslt	r4, r6, r0, lsl #8
    4940:	05000014 	streq	r0, [r0, #-20]	; 0xffffffec
    4944:	0170024f 	cmneq	r0, pc, asr #4
    4948:	16480000 	strbne	r0, [r8], -r0
    494c:	00001273 	andeq	r1, r0, r3, ror r2
    4950:	3f025005 	svccc	0x00025005
    4954:	4c000008 	stcmi	0, cr0, [r0], {8}
    4958:	00121c16 	andseq	r1, r2, r6, lsl ip
    495c:	02530500 	subseq	r0, r3, #0, 10
    4960:	00000025 	andeq	r0, r0, r5, lsr #32
    4964:	138d1650 	orrne	r1, sp, #80, 12	; 0x5000000
    4968:	54050000 	strpl	r0, [r5], #-0
    496c:	00055502 	andeq	r5, r5, r2, lsl #10
    4970:	14165400 	ldrne	r5, [r6], #-1024	; 0xfffffc00
    4974:	05000015 	streq	r0, [r0, #-21]	; 0xffffffeb
    4978:	07fc0277 			; <UNDEFINED> instruction: 0x07fc0277
    497c:	17580000 	ldrbne	r0, [r8, -r0]
    4980:	00001002 	andeq	r1, r0, r2
    4984:	8d027b05 	vstrhi	d7, [r2, #-20]	; 0xffffffec
    4988:	48000002 	stmdami	r0, {r1}
    498c:	12bd1701 	adcsne	r1, sp, #262144	; 0x40000
    4990:	7c050000 	stcvc	0, cr0, [r5], {-0}
    4994:	00024f02 	andeq	r4, r2, r2, lsl #30
    4998:	17014c00 	strne	r4, [r1, -r0, lsl #24]
    499c:	00001260 	andeq	r1, r0, r0, ror #4
    49a0:	50028005 	andpl	r8, r2, r5
    49a4:	dc000008 	stcle	0, cr0, [r0], {8}
    49a8:	13681702 	cmnne	r8, #524288	; 0x80000
    49ac:	85050000 	strhi	r0, [r5, #-0]
    49b0:	00060102 	andeq	r0, r6, r2, lsl #2
    49b4:	1702e000 	strne	lr, [r2, -r0]
    49b8:	0000119c 	muleq	r0, ip, r1
    49bc:	5c028605 	stcpl	6, cr8, [r2], {5}
    49c0:	ec000008 	stc	0, cr0, [r0], {8}
    49c4:	040f0002 	streq	r0, [pc], #-2	; 49cc <_Min_Stack_Size+0x45cc>
    49c8:	0000055b 	andeq	r0, r0, fp, asr r5
    49cc:	b2080104 	andlt	r0, r8, #4, 2
    49d0:	0f000005 	svceq	0x00000005
    49d4:	0003ff04 	andeq	pc, r3, r4, lsl #30
    49d8:	00251300 	eoreq	r1, r5, r0, lsl #6
    49dc:	05860000 	streq	r0, [r6]
    49e0:	1d140000 	ldcne	0, cr0, [r4, #-0]
    49e4:	14000004 	strne	r0, [r0], #-4
    49e8:	00000110 	andeq	r0, r0, r0, lsl r1
    49ec:	00058614 	andeq	r8, r5, r4, lsl r6
    49f0:	00251400 	eoreq	r1, r5, r0, lsl #8
    49f4:	0f000000 	svceq	0x00000000
    49f8:	00058c04 	andeq	r8, r5, r4, lsl #24
    49fc:	055b1800 	ldrbeq	r1, [fp, #-2048]	; 0xfffff800
    4a00:	040f0000 	streq	r0, [pc], #-0	; 4a08 <_Min_Stack_Size+0x4608>
    4a04:	00000568 	andeq	r0, r0, r8, ror #10
    4a08:	00008c13 	andeq	r8, r0, r3, lsl ip
    4a0c:	0005b500 	andeq	fp, r5, r0, lsl #10
    4a10:	041d1400 	ldreq	r1, [sp], #-1024	; 0xfffffc00
    4a14:	10140000 	andsne	r0, r4, r0
    4a18:	14000001 	strne	r0, [r0], #-1
    4a1c:	0000008c 	andeq	r0, r0, ip, lsl #1
    4a20:	00002514 	andeq	r2, r0, r4, lsl r5
    4a24:	040f0000 	streq	r0, [pc], #-0	; 4a2c <_Min_Stack_Size+0x462c>
    4a28:	00000597 	muleq	r0, r7, r5
    4a2c:	00002513 	andeq	r2, r0, r3, lsl r5
    4a30:	0005cf00 	andeq	ip, r5, r0, lsl #30
    4a34:	041d1400 	ldreq	r1, [sp], #-1024	; 0xfffffc00
    4a38:	10140000 	andsne	r0, r4, r0
    4a3c:	00000001 	andeq	r0, r0, r1
    4a40:	05bb040f 	ldreq	r0, [fp, #1039]!	; 0x40f
    4a44:	45080000 	strmi	r0, [r8, #-0]
    4a48:	e5000000 	str	r0, [r0, #-0]
    4a4c:	09000005 	stmdbeq	r0, {r0, r2}
    4a50:	000000d2 	ldrdeq	r0, [r0], -r2
    4a54:	45080002 	strmi	r0, [r8, #-2]
    4a58:	f5000000 			; <UNDEFINED> instruction: 0xf5000000
    4a5c:	09000005 	stmdbeq	r0, {r0, r2}
    4a60:	000000d2 	ldrdeq	r0, [r0], -r2
    4a64:	43050000 	movwmi	r0, #20480	; 0x5000
    4a68:	05000012 	streq	r0, [r0, #-18]	; 0xffffffee
    4a6c:	02d5011d 	sbcseq	r0, r5, #1073741831	; 0x40000007
    4a70:	ed190000 	ldc	0, cr0, [r9, #-0]
    4a74:	0c000011 	stceq	0, cr0, [r0], {17}
    4a78:	36012105 	strcc	r2, [r1], -r5, lsl #2
    4a7c:	16000006 	strne	r0, [r0], -r6
    4a80:	000014c0 	andeq	r1, r0, r0, asr #9
    4a84:	36012305 	strcc	r2, [r1], -r5, lsl #6
    4a88:	00000006 	andeq	r0, r0, r6
    4a8c:	00123c16 	andseq	r3, r2, r6, lsl ip
    4a90:	01240500 			; <UNDEFINED> instruction: 0x01240500
    4a94:	00000025 	andeq	r0, r0, r5, lsr #32
    4a98:	12a61604 	adcne	r1, r6, #4, 12	; 0x400000
    4a9c:	25050000 	strcs	r0, [r5, #-0]
    4aa0:	00063c01 	andeq	r3, r6, r1, lsl #24
    4aa4:	0f000800 	svceq	0x00000800
    4aa8:	00060104 	andeq	r0, r6, r4, lsl #2
    4aac:	f5040f00 			; <UNDEFINED> instruction: 0xf5040f00
    4ab0:	19000005 	stmdbne	r0, {r0, r2}
    4ab4:	00001456 	andeq	r1, r0, r6, asr r4
    4ab8:	013d050e 	teqeq	sp, lr, lsl #10
    4abc:	00000677 	andeq	r0, r0, r7, ror r6
    4ac0:	00145016 	andseq	r5, r4, r6, lsl r0
    4ac4:	013e0500 	teqeq	lr, r0, lsl #10
    4ac8:	00000677 	andeq	r0, r0, r7, ror r6
    4acc:	12ac1600 	adcne	r1, ip, #0, 12
    4ad0:	3f050000 	svccc	0x00050000
    4ad4:	00067701 	andeq	r7, r6, r1, lsl #14
    4ad8:	87160600 	ldrhi	r0, [r6, -r0, lsl #12]
    4adc:	05000014 	streq	r0, [r0, #-20]	; 0xffffffec
    4ae0:	00530140 	subseq	r0, r3, r0, asr #2
    4ae4:	000c0000 	andeq	r0, ip, r0
    4ae8:	00005308 	andeq	r5, r0, r8, lsl #6
    4aec:	00068700 	andeq	r8, r6, r0, lsl #14
    4af0:	00d20900 	sbcseq	r0, r2, r0, lsl #18
    4af4:	00020000 	andeq	r0, r2, r0
    4af8:	5805d01a 	stmdapl	r5, {r1, r3, r4, ip, lr, pc}
    4afc:	00078802 	andeq	r8, r7, r2, lsl #16
    4b00:	13b81600 			; <UNDEFINED> instruction: 0x13b81600
    4b04:	5a050000 	bpl	144b0c <_Min_Stack_Size+0x14470c>
    4b08:	00003702 	andeq	r3, r0, r2, lsl #14
    4b0c:	43160000 	tstmi	r6, #0
    4b10:	05000014 	streq	r0, [r0, #-20]	; 0xffffffec
    4b14:	0555025b 	ldrbeq	r0, [r5, #-603]	; 0xfffffda5
    4b18:	16040000 	strne	r0, [r4], -r0
    4b1c:	000014ff 	strdeq	r1, [r0], -pc	; <UNPREDICTABLE>
    4b20:	88025c05 	stmdahi	r2, {r0, r2, sl, fp, ip, lr}
    4b24:	08000007 	stmdaeq	r0, {r0, r1, r2}
    4b28:	0011cc16 	andseq	ip, r1, r6, lsl ip
    4b2c:	025d0500 	subseq	r0, sp, #0, 10
    4b30:	00000186 	andeq	r0, r0, r6, lsl #3
    4b34:	13a91624 			; <UNDEFINED> instruction: 0x13a91624
    4b38:	5e050000 	cdppl	0, 0, cr0, cr5, cr0, {0}
    4b3c:	00002502 	andeq	r2, r0, r2, lsl #10
    4b40:	bb164800 	bllt	596b48 <_Min_Stack_Size+0x596748>
    4b44:	05000014 	streq	r0, [r0, #-20]	; 0xffffffec
    4b48:	006f025f 	rsbeq	r0, pc, pc, asr r2	; <UNPREDICTABLE>
    4b4c:	16500000 	ldrbne	r0, [r0], -r0
    4b50:	00001204 	andeq	r1, r0, r4, lsl #4
    4b54:	42026005 	andmi	r6, r2, #5
    4b58:	58000006 	stmdapl	r0, {r1, r2}
    4b5c:	0010e716 	andseq	lr, r0, r6, lsl r7
    4b60:	02610500 	rsbeq	r0, r1, #0, 10
    4b64:	000000fa 	strdeq	r0, [r0], -sl
    4b68:	13d71668 	bicsne	r1, r7, #104, 12	; 0x6800000
    4b6c:	62050000 	andvs	r0, r5, #0
    4b70:	0000fa02 	andeq	pc, r0, r2, lsl #20
    4b74:	96167000 	ldrls	r7, [r6], -r0
    4b78:	05000014 	streq	r0, [r0, #-20]	; 0xffffffec
    4b7c:	00fa0263 	rscseq	r0, sl, r3, ror #4
    4b80:	16780000 	ldrbtne	r0, [r8], -r0
    4b84:	000010f4 	strdeq	r1, [r0], -r4
    4b88:	98026405 	stmdals	r2, {r0, r2, sl, sp, lr}
    4b8c:	80000007 	andhi	r0, r0, r7
    4b90:	0011a116 	andseq	sl, r1, r6, lsl r1
    4b94:	02650500 	rsbeq	r0, r5, #0, 10
    4b98:	000007a8 	andeq	r0, r0, r8, lsr #15
    4b9c:	124a1688 	subne	r1, sl, #136, 12	; 0x8800000
    4ba0:	66050000 	strvs	r0, [r5], -r0
    4ba4:	00002502 	andeq	r2, r0, r2, lsl #10
    4ba8:	ec16a000 	ldc	0, cr10, [r6], {-0}
    4bac:	05000013 	streq	r0, [r0, #-19]	; 0xffffffed
    4bb0:	00fa0267 	rscseq	r0, sl, r7, ror #4
    4bb4:	16a40000 	strtne	r0, [r4], r0
    4bb8:	0000137e 	andeq	r1, r0, lr, ror r3
    4bbc:	fa026805 	blx	9ebd8 <_Min_Stack_Size+0x9e7d8>
    4bc0:	ac000000 	stcge	0, cr0, [r0], {-0}
    4bc4:	0011f316 	andseq	pc, r1, r6, lsl r3	; <UNPREDICTABLE>
    4bc8:	02690500 	rsbeq	r0, r9, #0, 10
    4bcc:	000000fa 	strdeq	r0, [r0], -sl
    4bd0:	14e416b4 	strbtne	r1, [r4], #1716	; 0x6b4
    4bd4:	6a050000 	bvs	144bdc <_Min_Stack_Size+0x1447dc>
    4bd8:	0000fa02 	andeq	pc, r0, r2, lsl #20
    4bdc:	ad16bc00 	ldcge	12, cr11, [r6, #-0]
    4be0:	05000011 	streq	r0, [r0, #-17]	; 0xffffffef
    4be4:	00fa026b 	rscseq	r0, sl, fp, ror #4
    4be8:	16c40000 	strbne	r0, [r4], r0
    4bec:	0000135f 	andeq	r1, r0, pc, asr r3
    4bf0:	25026c05 	strcs	r6, [r2, #-3077]	; 0xfffff3fb
    4bf4:	cc000000 	stcgt	0, cr0, [r0], {-0}
    4bf8:	055b0800 	ldrbeq	r0, [fp, #-2048]	; 0xfffff800
    4bfc:	07980000 	ldreq	r0, [r8, r0]
    4c00:	d2090000 	andle	r0, r9, #0
    4c04:	19000000 	stmdbne	r0, {}	; <UNPREDICTABLE>
    4c08:	055b0800 	ldrbeq	r0, [fp, #-2048]	; 0xfffff800
    4c0c:	07a80000 	streq	r0, [r8, r0]!
    4c10:	d2090000 	andle	r0, r9, #0
    4c14:	07000000 	streq	r0, [r0, -r0]
    4c18:	055b0800 	ldrbeq	r0, [fp, #-2048]	; 0xfffff800
    4c1c:	07b80000 	ldreq	r0, [r8, r0]!
    4c20:	d2090000 	andle	r0, r9, #0
    4c24:	17000000 	strne	r0, [r0, -r0]
    4c28:	05f01a00 	ldrbeq	r1, [r0, #2560]!	; 0xa00
    4c2c:	07dc0271 			; <UNDEFINED> instruction: 0x07dc0271
    4c30:	1c160000 	ldcne	0, cr0, [r6], {-0}
    4c34:	05000013 	streq	r0, [r0, #-19]	; 0xffffffed
    4c38:	07dc0274 			; <UNDEFINED> instruction: 0x07dc0274
    4c3c:	16000000 	strne	r0, [r0], -r0
    4c40:	0000126a 	andeq	r1, r0, sl, ror #4
    4c44:	ec027505 	cfstr32	mvfx7, [r2], {5}
    4c48:	78000007 	stmdavc	r0, {r0, r1, r2}
    4c4c:	02cf0800 	sbceq	r0, pc, #0, 16
    4c50:	07ec0000 	strbeq	r0, [ip, r0]!
    4c54:	d2090000 	andle	r0, r9, #0
    4c58:	1d000000 	stcne	0, cr0, [r0, #-0]
    4c5c:	00370800 	eorseq	r0, r7, r0, lsl #16
    4c60:	07fc0000 	ldrbeq	r0, [ip, r0]!
    4c64:	d2090000 	andle	r0, r9, #0
    4c68:	1d000000 	stcne	0, cr0, [r0, #-0]
    4c6c:	05f01b00 	ldrbeq	r1, [r0, #2816]!	; 0xb00
    4c70:	081e0256 	ldmdaeq	lr, {r1, r2, r4, r6, r9}
    4c74:	dd1c0000 	ldcle	0, cr0, [ip, #-0]
    4c78:	05000014 	streq	r0, [r0, #-20]	; 0xffffffec
    4c7c:	0687026d 	streq	r0, [r7], sp, ror #4
    4c80:	cf1c0000 	svcgt	0x001c0000
    4c84:	05000013 	streq	r0, [r0, #-19]	; 0xffffffed
    4c88:	07b80276 			; <UNDEFINED> instruction: 0x07b80276
    4c8c:	08000000 	stmdaeq	r0, {}	; <UNPREDICTABLE>
    4c90:	0000055b 	andeq	r0, r0, fp, asr r5
    4c94:	0000082e 	andeq	r0, r0, lr, lsr #16
    4c98:	0000d209 	andeq	sp, r0, r9, lsl #4
    4c9c:	1d001800 	stcne	8, cr1, [r0, #-0]
    4ca0:	00000839 	andeq	r0, r0, r9, lsr r8
    4ca4:	00041d14 	andeq	r1, r4, r4, lsl sp
    4ca8:	040f0000 	streq	r0, [pc], #-0	; 4cb0 <_Min_Stack_Size+0x48b0>
    4cac:	0000082e 	andeq	r0, r0, lr, lsr #16
    4cb0:	0170040f 	cmneq	r0, pc, lsl #8
    4cb4:	501d0000 	andspl	r0, sp, r0
    4cb8:	14000008 	strne	r0, [r0], #-8
    4cbc:	00000025 	andeq	r0, r0, r5, lsr #32
    4cc0:	56040f00 	strpl	r0, [r4], -r0, lsl #30
    4cc4:	0f000008 	svceq	0x00000008
    4cc8:	00084504 	andeq	r4, r8, r4, lsl #10
    4ccc:	05f50800 	ldrbeq	r0, [r5, #2048]!	; 0x800
    4cd0:	086c0000 	stmdaeq	ip!, {}^	; <UNPREDICTABLE>
    4cd4:	d2090000 	andle	r0, r9, #0
    4cd8:	02000000 	andeq	r0, r0, #0
    4cdc:	0ea91e00 	cdpeq	14, 10, cr1, cr9, cr0, {0}
    4ce0:	06010000 	streq	r0, [r1], -r0
    4ce4:	00088b05 	andeq	r8, r8, r5, lsl #22
    4ce8:	0ffe1f00 	svceq	0x00fe1f00
    4cec:	1f000000 	svcne	0x00000000
    4cf0:	00000f8d 	andeq	r0, r0, sp, lsl #31
    4cf4:	0f701f01 	svceq	0x00701f01
    4cf8:	00020000 	andeq	r0, r2, r0
    4cfc:	000f7920 	andeq	r7, pc, r0, lsr #18
    4d00:	25420100 	strbcs	r0, [r2, #-256]	; 0xffffff00
    4d04:	a4000000 	strge	r0, [r0], #-0
    4d08:	d4080011 	strle	r0, [r8], #-17	; 0xffffffef
    4d0c:	01000000 	mrseq	r0, (UNDEF: 0)
    4d10:	00090b9c 	muleq	r9, ip, fp
    4d14:	04242100 	strteq	r2, [r4], #-256	; 0xffffff00
    4d18:	42010000 	andmi	r0, r1, #0
    4d1c:	00000025 	andeq	r0, r0, r5, lsr #32
    4d20:	000012a9 	andeq	r1, r0, r9, lsr #5
    4d24:	006e6622 	rsbeq	r6, lr, r2, lsr #12
    4d28:	02a34201 	adceq	r4, r3, #268435456	; 0x10000000
    4d2c:	12f90000 	rscsne	r0, r9, #0
    4d30:	61220000 			; <UNDEFINED> instruction: 0x61220000
    4d34:	01006772 	tsteq	r0, r2, ror r7
    4d38:	00011042 	andeq	r1, r1, r2, asr #32
    4d3c:	00135100 	andseq	r5, r3, r0, lsl #2
    4d40:	00642200 	rsbeq	r2, r4, r0, lsl #4
    4d44:	01104201 	tsteq	r0, r1, lsl #4
    4d48:	13c80000 	bicne	r0, r8, #0
    4d4c:	79230000 	stmdbvc	r3!, {}	; <UNPREDICTABLE>
    4d50:	01000013 	tsteq	r0, r3, lsl r0
    4d54:	00090b49 	andeq	r0, r9, r9, asr #22
    4d58:	00141500 	andseq	r1, r4, r0, lsl #10
    4d5c:	00702400 	rsbseq	r2, r0, r0, lsl #8
    4d60:	028d4a01 	addeq	r4, sp, #4096	; 0x1000
    4d64:	142b0000 	strtne	r0, [fp], #-0
    4d68:	f6250000 			; <UNDEFINED> instruction: 0xf6250000
    4d6c:	22080011 	andcs	r0, r8, #17
    4d70:	26000009 	strcs	r0, [r0], -r9
    4d74:	0a035001 	beq	d8d80 <_Min_Stack_Size+0xd8980>
    4d78:	00000190 	muleq	r0, r0, r1
    4d7c:	01ff040f 	mvnseq	r0, pc, lsl #8
    4d80:	f0270000 			; <UNDEFINED> instruction: 0xf0270000
    4d84:	05000012 	streq	r0, [r0, #-18]	; 0xffffffee
    4d88:	091d02fb 	ldmdbeq	sp, {r0, r1, r3, r4, r5, r6, r7, r9}
    4d8c:	1d180000 	ldcne	0, cr0, [r8, #-0]
    4d90:	28000004 	stmdacs	r0, {r2}
    4d94:	0000126c 	andeq	r1, r0, ip, ror #4
    4d98:	01106107 	tsteq	r0, r7, lsl #2
    4d9c:	2c140000 	ldccs	0, cr0, [r4], {-0}
    4da0:	00000000 	andeq	r0, r0, r0
    4da4:	0009a600 	andeq	sl, r9, r0, lsl #12
    4da8:	74000400 	strvc	r0, [r0], #-1024	; 0xfffffc00
    4dac:	04000014 	streq	r0, [r0], #-20	; 0xffffffec
    4db0:	000ee601 	andeq	lr, lr, r1, lsl #12
    4db4:	16930100 	ldrne	r0, [r3], r0, lsl #2
    4db8:	0f990000 	svceq	0x00990000
    4dbc:	03f80000 	mvnseq	r0, #0
    4dc0:	00000000 	andeq	r0, r0, r0
    4dc4:	1af80000 	bne	ffe04dcc <_estack+0xdfe00dcc>
    4dc8:	04020000 	streq	r0, [r2], #-0
    4dcc:	0001bb07 	andeq	fp, r1, r7, lsl #22
    4dd0:	05040300 	streq	r0, [r4, #-768]	; 0xfffffd00
    4dd4:	00746e69 	rsbseq	r6, r4, r9, ror #28
    4dd8:	ab060102 	blge	1851e8 <_Min_Stack_Size+0x184de8>
    4ddc:	02000005 	andeq	r0, r0, #5
    4de0:	05a90801 	streq	r0, [r9, #2049]!	; 0x801
    4de4:	02020000 	andeq	r0, r2, #0
    4de8:	00043305 	andeq	r3, r4, r5, lsl #6
    4dec:	07020200 	streq	r0, [r2, -r0, lsl #4]
    4df0:	0000060b 	andeq	r0, r0, fp, lsl #12
    4df4:	31050402 	tstcc	r5, r2, lsl #8
    4df8:	02000003 	andeq	r0, r0, #3
    4dfc:	01b60704 			; <UNDEFINED> instruction: 0x01b60704
    4e00:	08020000 	stmdaeq	r2, {}	; <UNPREDICTABLE>
    4e04:	00032c05 	andeq	r2, r3, r5, lsl #24
    4e08:	07080200 	streq	r0, [r8, -r0, lsl #4]
    4e0c:	000001b1 			; <UNDEFINED> instruction: 0x000001b1
    4e10:	00122a04 	andseq	r2, r2, r4, lsl #20
    4e14:	2c070200 	sfmcs	f0, 4, [r7], {-0}
    4e18:	04000000 	streq	r0, [r0], #-0
    4e1c:	0000110a 	andeq	r1, r0, sl, lsl #2
    4e20:	004f1003 	subeq	r1, pc, r3
    4e24:	d8040000 	stmdale	r4, {}	; <UNPREDICTABLE>
    4e28:	03000012 	movweq	r0, #18
    4e2c:	00004f27 	andeq	r4, r0, r7, lsr #30
    4e30:	13e50500 	mvnne	r0, #0, 10
    4e34:	61040000 	mrsvs	r0, (UNDEF: 4)
    4e38:	00002501 	andeq	r2, r0, r1, lsl #10
    4e3c:	03040600 	movweq	r0, #17920	; 0x4600
    4e40:	0000b74a 	andeq	fp, r0, sl, asr #14
    4e44:	11110700 	tstne	r1, r0, lsl #14
    4e48:	4c030000 	stcmi	0, cr0, [r3], {-0}
    4e4c:	0000008c 	andeq	r0, r0, ip, lsl #1
    4e50:	00132b07 	andseq	r2, r3, r7, lsl #22
    4e54:	b74d0300 	strblt	r0, [sp, -r0, lsl #6]
    4e58:	00000000 	andeq	r0, r0, r0
    4e5c:	00003a08 	andeq	r3, r0, r8, lsl #20
    4e60:	0000c700 	andeq	ip, r0, r0, lsl #14
    4e64:	00c70900 	sbceq	r0, r7, r0, lsl #18
    4e68:	00030000 	andeq	r0, r3, r0
    4e6c:	20070402 	andcs	r0, r7, r2, lsl #8
    4e70:	0a000004 	beq	4e88 <_Min_Stack_Size+0x4a88>
    4e74:	ef470308 	svc	0x00470308
    4e78:	0b000000 	bleq	4e80 <_Min_Stack_Size+0x4a80>
    4e7c:	000011db 	ldrdeq	r1, [r0], -fp
    4e80:	002c4903 	eoreq	r4, ip, r3, lsl #18
    4e84:	0b000000 	bleq	4e8c <_Min_Stack_Size+0x4a8c>
    4e88:	0000117b 	andeq	r1, r0, fp, ror r1
    4e8c:	00984e03 	addseq	r4, r8, r3, lsl #28
    4e90:	00040000 	andeq	r0, r4, r0
    4e94:	00141e04 	andseq	r1, r4, r4, lsl #28
    4e98:	ce4f0300 	cdpgt	3, 4, cr0, cr15, cr0, {0}
    4e9c:	04000000 	streq	r0, [r0], #-0
    4ea0:	000012e7 	andeq	r1, r0, r7, ror #5
    4ea4:	006b5303 	rsbeq	r5, fp, r3, lsl #6
    4ea8:	040c0000 	streq	r0, [ip], #-0
    4eac:	00146804 	andseq	r6, r4, r4, lsl #16
    4eb0:	56160500 	ldrpl	r0, [r6], -r0, lsl #10
    4eb4:	0d000000 	stceq	0, cr0, [r0, #-0]
    4eb8:	00001429 	andeq	r1, r0, r9, lsr #8
    4ebc:	652d0518 	strvs	r0, [sp, #-1304]!	; 0xfffffae8
    4ec0:	0b000001 	bleq	4ecc <_Min_Stack_Size+0x4acc>
    4ec4:	000014c0 	andeq	r1, r0, r0, asr #9
    4ec8:	01652f05 	cmneq	r5, r5, lsl #30
    4ecc:	0e000000 	cdpeq	0, 0, cr0, cr0, cr0, {0}
    4ed0:	05006b5f 	streq	r6, [r0, #-2911]	; 0xfffff4a1
    4ed4:	00002c30 	andeq	r2, r0, r0, lsr ip
    4ed8:	310b0400 	tstcc	fp, r0, lsl #8
    4edc:	05000014 	streq	r0, [r0, #-20]	; 0xffffffec
    4ee0:	00002c30 	andeq	r2, r0, r0, lsr ip
    4ee4:	b50b0800 	strlt	r0, [fp, #-2048]	; 0xfffff800
    4ee8:	05000014 	streq	r0, [r0, #-20]	; 0xffffffec
    4eec:	00002c30 	andeq	r2, r0, r0, lsr ip
    4ef0:	c50b0c00 	strgt	r0, [fp, #-3072]	; 0xfffff400
    4ef4:	05000013 	streq	r0, [r0, #-19]	; 0xffffffed
    4ef8:	00002c30 	andeq	r2, r0, r0, lsr ip
    4efc:	5f0e1000 	svcpl	0x000e1000
    4f00:	31050078 	tstcc	r5, r8, ror r0
    4f04:	0000016b 	andeq	r0, r0, fp, ror #2
    4f08:	040f0014 	streq	r0, [pc], #-20	; 4f10 <_Min_Stack_Size+0x4b10>
    4f0c:	00000112 	andeq	r0, r0, r2, lsl r1
    4f10:	00010708 	andeq	r0, r1, r8, lsl #14
    4f14:	00017b00 	andeq	r7, r1, r0, lsl #22
    4f18:	00c70900 	sbceq	r0, r7, r0, lsl #18
    4f1c:	00000000 	andeq	r0, r0, r0
    4f20:	0013ca0d 	andseq	ip, r3, sp, lsl #20
    4f24:	35052400 	strcc	r2, [r5, #-1024]	; 0xfffffc00
    4f28:	000001f4 	strdeq	r0, [r0], -r4
    4f2c:	0013030b 	andseq	r0, r3, fp, lsl #6
    4f30:	2c370500 	cfldr32cs	mvfx0, [r7], #-0
    4f34:	00000000 	andeq	r0, r0, r0
    4f38:	0012570b 	andseq	r5, r2, fp, lsl #14
    4f3c:	2c380500 	cfldr32cs	mvfx0, [r8], #-0
    4f40:	04000000 	streq	r0, [r0], #-0
    4f44:	00130c0b 	andseq	r0, r3, fp, lsl #24
    4f48:	2c390500 	cfldr32cs	mvfx0, [r9], #-0
    4f4c:	08000000 	stmdaeq	r0, {}	; <UNPREDICTABLE>
    4f50:	0011e30b 	andseq	lr, r1, fp, lsl #6
    4f54:	2c3a0500 	cfldr32cs	mvfx0, [sl], #-0
    4f58:	0c000000 	stceq	0, cr0, [r0], {-0}
    4f5c:	00147e0b 	andseq	r7, r4, fp, lsl #28
    4f60:	2c3b0500 	cfldr32cs	mvfx0, [fp], #-0
    4f64:	10000000 	andne	r0, r0, r0
    4f68:	0014390b 	andseq	r3, r4, fp, lsl #18
    4f6c:	2c3c0500 	cfldr32cs	mvfx0, [ip], #-0
    4f70:	14000000 	strne	r0, [r0], #-0
    4f74:	00128b0b 	andseq	r8, r2, fp, lsl #22
    4f78:	2c3d0500 	cfldr32cs	mvfx0, [sp], #-0
    4f7c:	18000000 	stmdane	r0, {}	; <UNPREDICTABLE>
    4f80:	00145e0b 	andseq	r5, r4, fp, lsl #28
    4f84:	2c3e0500 	cfldr32cs	mvfx0, [lr], #-0
    4f88:	1c000000 	stcne	0, cr0, [r0], {-0}
    4f8c:	0012b20b 	andseq	fp, r2, fp, lsl #4
    4f90:	2c3f0500 	cfldr32cs	mvfx0, [pc], #-0	; 4f98 <_Min_Stack_Size+0x4b98>
    4f94:	20000000 	andcs	r0, r0, r0
    4f98:	13701000 	cmnne	r0, #0
    4f9c:	01080000 	mrseq	r0, (UNDEF: 8)
    4fa0:	02344805 	eorseq	r4, r4, #327680	; 0x50000
    4fa4:	950b0000 	strls	r0, [fp, #-0]
    4fa8:	05000012 	streq	r0, [r0, #-18]	; 0xffffffee
    4fac:	00023449 	andeq	r3, r2, r9, asr #8
    4fb0:	a40b0000 	strge	r0, [fp], #-0
    4fb4:	05000014 	streq	r0, [r0, #-20]	; 0xffffffec
    4fb8:	0002344a 	andeq	r3, r2, sl, asr #8
    4fbc:	cf118000 	svcgt	0x00118000
    4fc0:	05000012 	streq	r0, [r0, #-18]	; 0xffffffee
    4fc4:	0001074c 	andeq	r0, r1, ip, asr #14
    4fc8:	11010000 	mrsne	r0, (UNDEF: 1)
    4fcc:	0000140c 	andeq	r1, r0, ip, lsl #8
    4fd0:	01074f05 	tsteq	r7, r5, lsl #30
    4fd4:	01040000 	mrseq	r0, (UNDEF: 4)
    4fd8:	01050800 	tsteq	r5, r0, lsl #16
    4fdc:	02440000 	subeq	r0, r4, #0
    4fe0:	c7090000 	strgt	r0, [r9, -r0]
    4fe4:	1f000000 	svcne	0x00000000
    4fe8:	10021000 	andne	r1, r2, r0
    4fec:	01900000 	orrseq	r0, r0, r0
    4ff0:	02825b05 	addeq	r5, r2, #5120	; 0x1400
    4ff4:	c00b0000 	andgt	r0, fp, r0
    4ff8:	05000014 	streq	r0, [r0, #-20]	; 0xffffffec
    4ffc:	0002825c 	andeq	r8, r2, ip, asr r2
    5000:	910b0000 	mrsls	r0, (UNDEF: 11)
    5004:	05000014 	streq	r0, [r0, #-20]	; 0xffffffec
    5008:	00002c5d 	andeq	r2, r0, sp, asr ip
    500c:	7d0b0400 	cfstrsvc	mvf0, [fp, #-0]
    5010:	05000012 	streq	r0, [r0, #-18]	; 0xffffffee
    5014:	0002885f 	andeq	r8, r2, pc, asr r8
    5018:	700b0800 	andvc	r0, fp, r0, lsl #16
    501c:	05000013 	streq	r0, [r0, #-19]	; 0xffffffed
    5020:	0001f460 	andeq	pc, r1, r0, ror #8
    5024:	0f008800 	svceq	0x00008800
    5028:	00024404 	andeq	r4, r2, r4, lsl #8
    502c:	02980800 	addseq	r0, r8, #0, 16
    5030:	02980000 	addseq	r0, r8, #0
    5034:	c7090000 	strgt	r0, [r9, -r0]
    5038:	1f000000 	svcne	0x00000000
    503c:	9e040f00 	cdpls	15, 0, cr0, cr4, cr0, {0}
    5040:	12000002 	andne	r0, r0, #2
    5044:	0011830d 	andseq	r8, r1, sp, lsl #6
    5048:	73050800 	movwvc	r0, #22528	; 0x5800
    504c:	000002c4 	andeq	r0, r0, r4, asr #5
    5050:	00139d0b 	andseq	r9, r3, fp, lsl #26
    5054:	c4740500 	ldrbtgt	r0, [r4], #-1280	; 0xfffffb00
    5058:	00000002 	andeq	r0, r0, r2
    505c:	0014f90b 	andseq	pc, r4, fp, lsl #18
    5060:	2c750500 	cfldr64cs	mvdx0, [r5], #-0
    5064:	04000000 	streq	r0, [r0], #-0
    5068:	3a040f00 	bcc	108c70 <_Min_Stack_Size+0x108870>
    506c:	0d000000 	stceq	0, cr0, [r0, #-0]
    5070:	0000150c 	andeq	r1, r0, ip, lsl #10
    5074:	f4b30568 			; <UNDEFINED> instruction: 0xf4b30568
    5078:	0e000003 	cdpeq	0, 0, cr0, cr0, cr3, {0}
    507c:	0500705f 	streq	r7, [r0, #-95]	; 0xffffffa1
    5080:	0002c4b4 			; <UNDEFINED> instruction: 0x0002c4b4
    5084:	5f0e0000 	svcpl	0x000e0000
    5088:	b5050072 	strlt	r0, [r5, #-114]	; 0xffffff8e
    508c:	0000002c 	andeq	r0, r0, ip, lsr #32
    5090:	775f0e04 	ldrbvc	r0, [pc, -r4, lsl #28]
    5094:	2cb60500 	cfldr32cs	mvfx0, [r6]
    5098:	08000000 	stmdaeq	r0, {}	; <UNPREDICTABLE>
    509c:	0011be0b 	andseq	fp, r1, fp, lsl #28
    50a0:	41b70500 			; <UNDEFINED> instruction: 0x41b70500
    50a4:	0c000000 	stceq	0, cr0, [r0], {-0}
    50a8:	0013a30b 	andseq	sl, r3, fp, lsl #6
    50ac:	41b80500 			; <UNDEFINED> instruction: 0x41b80500
    50b0:	0e000000 	cdpeq	0, 0, cr0, cr0, cr0, {0}
    50b4:	66625f0e 	strbtvs	r5, [r2], -lr, lsl #30
    50b8:	9fb90500 	svcls	0x00b90500
    50bc:	10000002 	andne	r0, r0, r2
    50c0:	00129d0b 	andseq	r9, r2, fp, lsl #26
    50c4:	2cba0500 	cfldr32cs	mvfx0, [sl]
    50c8:	18000000 	stmdane	r0, {}	; <UNPREDICTABLE>
    50cc:	0013950b 	andseq	r9, r3, fp, lsl #10
    50d0:	05c10500 	strbeq	r0, [r1, #1280]	; 0x500
    50d4:	1c000001 	stcne	0, cr0, [r0], {1}
    50d8:	0013160b 	andseq	r1, r3, fp, lsl #12
    50dc:	57c30500 	strbpl	r0, [r3, r0, lsl #10]
    50e0:	20000005 	andcs	r0, r0, r5
    50e4:	0011c50b 	andseq	ip, r1, fp, lsl #10
    50e8:	86c50500 	strbhi	r0, [r5], r0, lsl #10
    50ec:	24000005 	strcs	r0, [r0], #-5
    50f0:	0014700b 	andseq	r7, r4, fp
    50f4:	aac80500 	bge	ff2064fc <_estack+0xdf2024fc>
    50f8:	28000005 	stmdacs	r0, {r0, r2}
    50fc:	0012e00b 	andseq	lr, r2, fp
    5100:	c4c90500 	strbgt	r0, [r9], #1280	; 0x500
    5104:	2c000005 	stccs	0, cr0, [r0], {5}
    5108:	62755f0e 	rsbsvs	r5, r5, #14, 30	; 0x38
    510c:	9fcc0500 	svcls	0x00cc0500
    5110:	30000002 	andcc	r0, r0, r2
    5114:	70755f0e 	rsbsvc	r5, r5, lr, lsl #30
    5118:	c4cd0500 	strbgt	r0, [sp], #1280	; 0x500
    511c:	38000002 	stmdacc	r0, {r1}
    5120:	72755f0e 	rsbsvc	r5, r5, #14, 30	; 0x38
    5124:	2cce0500 	cfstr64cs	mvdx0, [lr], {0}
    5128:	3c000000 	stccc	0, cr0, [r0], {-0}
    512c:	0014f30b 	andseq	pc, r4, fp, lsl #6
    5130:	cad10500 	bgt	ff446538 <_estack+0xdf442538>
    5134:	40000005 	andmi	r0, r0, r5
    5138:	0012240b 	andseq	r2, r2, fp, lsl #8
    513c:	dad20500 	ble	ff486544 <_estack+0xdf482544>
    5140:	43000005 	movwmi	r0, #5
    5144:	626c5f0e 	rsbvs	r5, ip, #14, 30	; 0x38
    5148:	9fd50500 	svcls	0x00d50500
    514c:	44000002 	strmi	r0, [r0], #-2
    5150:	0012c60b 	andseq	ip, r2, fp, lsl #12
    5154:	2cd80500 	cfldr64cs	mvdx0, [r8], {0}
    5158:	4c000000 	stcmi	0, cr0, [r0], {-0}
    515c:	0011940b 	andseq	r9, r1, fp, lsl #8
    5160:	76d90500 	ldrbvc	r0, [r9], r0, lsl #10
    5164:	50000000 	andpl	r0, r0, r0
    5168:	0011040b 	andseq	r0, r1, fp, lsl #8
    516c:	12dc0500 	sbcsne	r0, ip, #0, 10
    5170:	54000004 	strpl	r0, [r0], #-4
    5174:	00170e0b 	andseq	r0, r7, fp, lsl #28
    5178:	fae00500 	blx	ff806580 <_estack+0xdf802580>
    517c:	58000000 	stmdapl	r0, {}	; <UNPREDICTABLE>
    5180:	0012820b 	andseq	r8, r2, fp, lsl #4
    5184:	efe20500 	svc	0x00e20500
    5188:	5c000000 	stcpl	0, cr0, [r0], {-0}
    518c:	0010df0b 	andseq	sp, r0, fp, lsl #30
    5190:	2ce30500 	cfstr64cs	mvdx0, [r3]
    5194:	64000000 	strvs	r0, [r0], #-0
    5198:	002c1300 	eoreq	r1, ip, r0, lsl #6
    519c:	04120000 	ldreq	r0, [r2], #-0
    51a0:	12140000 	andsne	r0, r4, #0
    51a4:	14000004 	strne	r0, [r0], #-4
    51a8:	00000105 	andeq	r0, r0, r5, lsl #2
    51ac:	00054a14 	andeq	r4, r5, r4, lsl sl
    51b0:	002c1400 	eoreq	r1, ip, r0, lsl #8
    51b4:	0f000000 	svceq	0x00000000
    51b8:	00041804 	andeq	r1, r4, r4, lsl #16
    51bc:	14dd1500 	ldrbne	r1, [sp], #1280	; 0x500
    51c0:	04280000 	strteq	r0, [r8], #-0
    51c4:	4a023905 	bmi	935e0 <_Min_Stack_Size+0x931e0>
    51c8:	16000005 	strne	r0, [r0], -r5
    51cc:	00001361 	andeq	r1, r0, r1, ror #6
    51d0:	2c023b05 	stccs	11, cr3, [r2], {5}
    51d4:	00000000 	andeq	r0, r0, r0
    51d8:	0014c616 	andseq	ip, r4, r6, lsl r6
    51dc:	02400500 	subeq	r0, r0, #0, 10
    51e0:	00000631 	andeq	r0, r0, r1, lsr r6
    51e4:	12091604 	andne	r1, r9, #4, 12	; 0x400000
    51e8:	40050000 	andmi	r0, r5, r0
    51ec:	00063102 	andeq	r3, r6, r2, lsl #2
    51f0:	23160800 	tstcs	r6, #0, 16
    51f4:	05000013 	streq	r0, [r0, #-19]	; 0xffffffed
    51f8:	06310240 	ldrteq	r0, [r1], -r0, asr #4
    51fc:	160c0000 	strne	r0, [ip], -r0
    5200:	0000148c 	andeq	r1, r0, ip, lsl #9
    5204:	2c024205 	sfmcs	f4, 4, [r2], {5}
    5208:	10000000 	andne	r0, r0, r0
    520c:	00121116 	andseq	r1, r2, r6, lsl r1
    5210:	02430500 	subeq	r0, r3, #0, 10
    5214:	00000813 	andeq	r0, r0, r3, lsl r8
    5218:	13fa1614 	mvnsne	r1, #20, 12	; 0x1400000
    521c:	45050000 	strmi	r0, [r5, #-0]
    5220:	00002c02 	andeq	r2, r0, r2, lsl #24
    5224:	cd163000 	ldcgt	0, cr3, [r6, #-0]
    5228:	05000014 	streq	r0, [r0, #-20]	; 0xffffffec
    522c:	057b0246 	ldrbeq	r0, [fp, #-582]!	; 0xfffffdba
    5230:	16340000 	ldrtne	r0, [r4], -r0
    5234:	000010d4 	ldrdeq	r1, [r0], -r4
    5238:	2c024805 	stccs	8, cr4, [r2], {5}
    523c:	38000000 	stmdacc	r0, {}	; <UNPREDICTABLE>
    5240:	00141416 	andseq	r1, r4, r6, lsl r4
    5244:	024a0500 	subeq	r0, sl, #0, 10
    5248:	0000082e 	andeq	r0, r0, lr, lsr #16
    524c:	1476163c 	ldrbtne	r1, [r6], #-1596	; 0xfffff9c4
    5250:	4d050000 	stcmi	0, cr0, [r5, #-0]
    5254:	00016502 	andeq	r6, r1, r2, lsl #10
    5258:	8a164000 	bhi	595260 <_Min_Stack_Size+0x594e60>
    525c:	05000011 	streq	r0, [r0, #-17]	; 0xffffffef
    5260:	002c024e 	eoreq	r0, ip, lr, asr #4
    5264:	16440000 	strbne	r0, [r4], -r0
    5268:	000014b0 			; <UNDEFINED> instruction: 0x000014b0
    526c:	65024f05 	strvs	r4, [r2, #-3845]	; 0xfffff0fb
    5270:	48000001 	stmdami	r0, {r0}
    5274:	00127316 	andseq	r7, r2, r6, lsl r3
    5278:	02500500 	subseq	r0, r0, #0, 10
    527c:	00000834 	andeq	r0, r0, r4, lsr r8
    5280:	121c164c 	andsne	r1, ip, #76, 12	; 0x4c00000
    5284:	53050000 	movwpl	r0, #20480	; 0x5000
    5288:	00002c02 	andeq	r2, r0, r2, lsl #24
    528c:	8d165000 	ldchi	0, cr5, [r6, #-0]
    5290:	05000013 	streq	r0, [r0, #-19]	; 0xffffffed
    5294:	054a0254 	strbeq	r0, [sl, #-596]	; 0xfffffdac
    5298:	16540000 	ldrbne	r0, [r4], -r0
    529c:	00001514 	andeq	r1, r0, r4, lsl r5
    52a0:	f1027705 			; <UNDEFINED> instruction: 0xf1027705
    52a4:	58000007 	stmdapl	r0, {r0, r1, r2}
    52a8:	00100217 	andseq	r0, r0, r7, lsl r2
    52ac:	027b0500 	rsbseq	r0, fp, #0, 10
    52b0:	00000282 	andeq	r0, r0, r2, lsl #5
    52b4:	bd170148 	ldflts	f0, [r7, #-288]	; 0xfffffee0
    52b8:	05000012 	streq	r0, [r0, #-18]	; 0xffffffee
    52bc:	0244027c 	subeq	r0, r4, #124, 4	; 0xc0000007
    52c0:	014c0000 	mrseq	r0, (UNDEF: 76)
    52c4:	00126017 	andseq	r6, r2, r7, lsl r0
    52c8:	02800500 	addeq	r0, r0, #0, 10
    52cc:	00000845 	andeq	r0, r0, r5, asr #16
    52d0:	681702dc 	ldmdavs	r7, {r2, r3, r4, r6, r7, r9}
    52d4:	05000013 	streq	r0, [r0, #-19]	; 0xffffffed
    52d8:	05f60285 	ldrbeq	r0, [r6, #645]!	; 0x285
    52dc:	02e00000 	rsceq	r0, r0, #0
    52e0:	00119c17 	andseq	r9, r1, r7, lsl ip
    52e4:	02860500 	addeq	r0, r6, #0, 10
    52e8:	00000851 	andeq	r0, r0, r1, asr r8
    52ec:	0f0002ec 	svceq	0x000002ec
    52f0:	00055004 	andeq	r5, r5, r4
    52f4:	08010200 	stmdaeq	r1, {r9}
    52f8:	000005b2 			; <UNDEFINED> instruction: 0x000005b2
    52fc:	03f4040f 	mvnseq	r0, #251658240	; 0xf000000
    5300:	2c130000 	ldccs	0, cr0, [r3], {-0}
    5304:	7b000000 	blvc	530c <_Min_Stack_Size+0x4f0c>
    5308:	14000005 	strne	r0, [r0], #-5
    530c:	00000412 	andeq	r0, r0, r2, lsl r4
    5310:	00010514 	andeq	r0, r1, r4, lsl r5
    5314:	057b1400 	ldrbeq	r1, [fp, #-1024]!	; 0xfffffc00
    5318:	2c140000 	ldccs	0, cr0, [r4], {-0}
    531c:	00000000 	andeq	r0, r0, r0
    5320:	0581040f 	streq	r0, [r1, #1039]	; 0x40f
    5324:	50180000 	andspl	r0, r8, r0
    5328:	0f000005 	svceq	0x00000005
    532c:	00055d04 	andeq	r5, r5, r4, lsl #26
    5330:	00811300 	addeq	r1, r1, r0, lsl #6
    5334:	05aa0000 	streq	r0, [sl, #0]!
    5338:	12140000 	andsne	r0, r4, #0
    533c:	14000004 	strne	r0, [r0], #-4
    5340:	00000105 	andeq	r0, r0, r5, lsl #2
    5344:	00008114 	andeq	r8, r0, r4, lsl r1
    5348:	002c1400 	eoreq	r1, ip, r0, lsl #8
    534c:	0f000000 	svceq	0x00000000
    5350:	00058c04 	andeq	r8, r5, r4, lsl #24
    5354:	002c1300 	eoreq	r1, ip, r0, lsl #6
    5358:	05c40000 	strbeq	r0, [r4]
    535c:	12140000 	andsne	r0, r4, #0
    5360:	14000004 	strne	r0, [r0], #-4
    5364:	00000105 	andeq	r0, r0, r5, lsl #2
    5368:	b0040f00 	andlt	r0, r4, r0, lsl #30
    536c:	08000005 	stmdaeq	r0, {r0, r2}
    5370:	0000003a 	andeq	r0, r0, sl, lsr r0
    5374:	000005da 	ldrdeq	r0, [r0], -sl
    5378:	0000c709 	andeq	ip, r0, r9, lsl #14
    537c:	08000200 	stmdaeq	r0, {r9}
    5380:	0000003a 	andeq	r0, r0, sl, lsr r0
    5384:	000005ea 	andeq	r0, r0, sl, ror #11
    5388:	0000c709 	andeq	ip, r0, r9, lsl #14
    538c:	05000000 	streq	r0, [r0, #-0]
    5390:	00001243 	andeq	r1, r0, r3, asr #4
    5394:	ca011d05 	bgt	4c7b0 <_Min_Stack_Size+0x4c3b0>
    5398:	19000002 	stmdbne	r0, {r1}
    539c:	000011ed 	andeq	r1, r0, sp, ror #3
    53a0:	0121050c 			; <UNDEFINED> instruction: 0x0121050c
    53a4:	0000062b 	andeq	r0, r0, fp, lsr #12
    53a8:	0014c016 	andseq	ip, r4, r6, lsl r0
    53ac:	01230500 			; <UNDEFINED> instruction: 0x01230500
    53b0:	0000062b 	andeq	r0, r0, fp, lsr #12
    53b4:	123c1600 	eorsne	r1, ip, #0, 12
    53b8:	24050000 	strcs	r0, [r5], #-0
    53bc:	00002c01 	andeq	r2, r0, r1, lsl #24
    53c0:	a6160400 	ldrge	r0, [r6], -r0, lsl #8
    53c4:	05000012 	streq	r0, [r0, #-18]	; 0xffffffee
    53c8:	06310125 	ldrteq	r0, [r1], -r5, lsr #2
    53cc:	00080000 	andeq	r0, r8, r0
    53d0:	05f6040f 	ldrbeq	r0, [r6, #1039]!	; 0x40f
    53d4:	040f0000 	streq	r0, [pc], #-0	; 53dc <_Min_Stack_Size+0x4fdc>
    53d8:	000005ea 	andeq	r0, r0, sl, ror #11
    53dc:	00145619 	andseq	r5, r4, r9, lsl r6
    53e0:	3d050e00 	stccc	14, cr0, [r5, #-0]
    53e4:	00066c01 	andeq	r6, r6, r1, lsl #24
    53e8:	14501600 	ldrbne	r1, [r0], #-1536	; 0xfffffa00
    53ec:	3e050000 	cdpcc	0, 0, cr0, cr5, cr0, {0}
    53f0:	00066c01 	andeq	r6, r6, r1, lsl #24
    53f4:	ac160000 	ldcge	0, cr0, [r6], {-0}
    53f8:	05000012 	streq	r0, [r0, #-18]	; 0xffffffee
    53fc:	066c013f 			; <UNDEFINED> instruction: 0x066c013f
    5400:	16060000 	strne	r0, [r6], -r0
    5404:	00001487 	andeq	r1, r0, r7, lsl #9
    5408:	48014005 	stmdami	r1, {r0, r2, lr}
    540c:	0c000000 	stceq	0, cr0, [r0], {-0}
    5410:	00480800 	subeq	r0, r8, r0, lsl #16
    5414:	067c0000 	ldrbteq	r0, [ip], -r0
    5418:	c7090000 	strgt	r0, [r9, -r0]
    541c:	02000000 	andeq	r0, r0, #0
    5420:	05d01a00 	ldrbeq	r1, [r0, #2560]	; 0xa00
    5424:	077d0258 			; <UNDEFINED> instruction: 0x077d0258
    5428:	b8160000 	ldmdalt	r6, {}	; <UNPREDICTABLE>
    542c:	05000013 	streq	r0, [r0, #-19]	; 0xffffffed
    5430:	0025025a 	eoreq	r0, r5, sl, asr r2
    5434:	16000000 	strne	r0, [r0], -r0
    5438:	00001443 	andeq	r1, r0, r3, asr #8
    543c:	4a025b05 	bmi	9c058 <_Min_Stack_Size+0x9bc58>
    5440:	04000005 	streq	r0, [r0], #-5
    5444:	0014ff16 	andseq	pc, r4, r6, lsl pc	; <UNPREDICTABLE>
    5448:	025c0500 	subseq	r0, ip, #0, 10
    544c:	0000077d 	andeq	r0, r0, sp, ror r7
    5450:	11cc1608 	bicne	r1, ip, r8, lsl #12
    5454:	5d050000 	stcpl	0, cr0, [r5, #-0]
    5458:	00017b02 	andeq	r7, r1, r2, lsl #22
    545c:	a9162400 	ldmdbge	r6, {sl, sp}
    5460:	05000013 	streq	r0, [r0, #-19]	; 0xffffffed
    5464:	002c025e 	eoreq	r0, ip, lr, asr r2
    5468:	16480000 	strbne	r0, [r8], -r0
    546c:	000014bb 			; <UNDEFINED> instruction: 0x000014bb
    5470:	64025f05 	strvs	r5, [r2], #-3845	; 0xfffff0fb
    5474:	50000000 	andpl	r0, r0, r0
    5478:	00120416 	andseq	r0, r2, r6, lsl r4
    547c:	02600500 	rsbeq	r0, r0, #0, 10
    5480:	00000637 	andeq	r0, r0, r7, lsr r6
    5484:	10e71658 	rscne	r1, r7, r8, asr r6
    5488:	61050000 	mrsvs	r0, (UNDEF: 5)
    548c:	0000ef02 	andeq	lr, r0, r2, lsl #30
    5490:	d7166800 	ldrle	r6, [r6, -r0, lsl #16]
    5494:	05000013 	streq	r0, [r0, #-19]	; 0xffffffed
    5498:	00ef0262 	rsceq	r0, pc, r2, ror #4
    549c:	16700000 	ldrbtne	r0, [r0], -r0
    54a0:	00001496 	muleq	r0, r6, r4
    54a4:	ef026305 	svc	0x00026305
    54a8:	78000000 	stmdavc	r0, {}	; <UNPREDICTABLE>
    54ac:	0010f416 	andseq	pc, r0, r6, lsl r4	; <UNPREDICTABLE>
    54b0:	02640500 	rsbeq	r0, r4, #0, 10
    54b4:	0000078d 	andeq	r0, r0, sp, lsl #15
    54b8:	11a11680 			; <UNDEFINED> instruction: 0x11a11680
    54bc:	65050000 	strvs	r0, [r5, #-0]
    54c0:	00079d02 	andeq	r9, r7, r2, lsl #26
    54c4:	4a168800 	bmi	5a74cc <_Min_Stack_Size+0x5a70cc>
    54c8:	05000012 	streq	r0, [r0, #-18]	; 0xffffffee
    54cc:	002c0266 	eoreq	r0, ip, r6, ror #4
    54d0:	16a00000 	strtne	r0, [r0], r0
    54d4:	000013ec 	andeq	r1, r0, ip, ror #7
    54d8:	ef026705 	svc	0x00026705
    54dc:	a4000000 	strge	r0, [r0], #-0
    54e0:	00137e16 	andseq	r7, r3, r6, lsl lr
    54e4:	02680500 	rsbeq	r0, r8, #0, 10
    54e8:	000000ef 	andeq	r0, r0, pc, ror #1
    54ec:	11f316ac 	mvnsne	r1, ip, lsr #13
    54f0:	69050000 	stmdbvs	r5, {}	; <UNPREDICTABLE>
    54f4:	0000ef02 	andeq	lr, r0, r2, lsl #30
    54f8:	e416b400 	ldr	fp, [r6], #-1024	; 0xfffffc00
    54fc:	05000014 	streq	r0, [r0, #-20]	; 0xffffffec
    5500:	00ef026a 	rsceq	r0, pc, sl, ror #4
    5504:	16bc0000 	ldrtne	r0, [ip], r0
    5508:	000011ad 	andeq	r1, r0, sp, lsr #3
    550c:	ef026b05 	svc	0x00026b05
    5510:	c4000000 	strgt	r0, [r0], #-0
    5514:	00135f16 	andseq	r5, r3, r6, lsl pc
    5518:	026c0500 	rsbeq	r0, ip, #0, 10
    551c:	0000002c 	andeq	r0, r0, ip, lsr #32
    5520:	500800cc 	andpl	r0, r8, ip, asr #1
    5524:	8d000005 	stchi	0, cr0, [r0, #-20]	; 0xffffffec
    5528:	09000007 	stmdbeq	r0, {r0, r1, r2}
    552c:	000000c7 	andeq	r0, r0, r7, asr #1
    5530:	50080019 	andpl	r0, r8, r9, lsl r0
    5534:	9d000005 	stcls	0, cr0, [r0, #-20]	; 0xffffffec
    5538:	09000007 	stmdbeq	r0, {r0, r1, r2}
    553c:	000000c7 	andeq	r0, r0, r7, asr #1
    5540:	50080007 	andpl	r0, r8, r7
    5544:	ad000005 	stcge	0, cr0, [r0, #-20]	; 0xffffffec
    5548:	09000007 	stmdbeq	r0, {r0, r1, r2}
    554c:	000000c7 	andeq	r0, r0, r7, asr #1
    5550:	f01a0017 			; <UNDEFINED> instruction: 0xf01a0017
    5554:	d1027105 	tstle	r2, r5, lsl #2
    5558:	16000007 	strne	r0, [r0], -r7
    555c:	0000131c 	andeq	r1, r0, ip, lsl r3
    5560:	d1027405 	tstle	r2, r5, lsl #8
    5564:	00000007 	andeq	r0, r0, r7
    5568:	00126a16 	andseq	r6, r2, r6, lsl sl
    556c:	02750500 	rsbseq	r0, r5, #0, 10
    5570:	000007e1 	andeq	r0, r0, r1, ror #15
    5574:	c4080078 	strgt	r0, [r8], #-120	; 0xffffff88
    5578:	e1000002 	tst	r0, r2
    557c:	09000007 	stmdbeq	r0, {r0, r1, r2}
    5580:	000000c7 	andeq	r0, r0, r7, asr #1
    5584:	2508001d 	strcs	r0, [r8, #-29]	; 0xffffffe3
    5588:	f1000000 	cps	#0
    558c:	09000007 	stmdbeq	r0, {r0, r1, r2}
    5590:	000000c7 	andeq	r0, r0, r7, asr #1
    5594:	f01b001d 			; <UNDEFINED> instruction: 0xf01b001d
    5598:	13025605 	movwne	r5, #9733	; 0x2605
    559c:	1c000008 	stcne	0, cr0, [r0], {8}
    55a0:	000014dd 	ldrdeq	r1, [r0], -sp
    55a4:	7c026d05 	stcvc	13, cr6, [r2], {5}
    55a8:	1c000006 	stcne	0, cr0, [r0], {6}
    55ac:	000013cf 	andeq	r1, r0, pc, asr #7
    55b0:	ad027605 	stcge	6, cr7, [r2, #-20]	; 0xffffffec
    55b4:	00000007 	andeq	r0, r0, r7
    55b8:	00055008 	andeq	r5, r5, r8
    55bc:	00082300 	andeq	r2, r8, r0, lsl #6
    55c0:	00c70900 	sbceq	r0, r7, r0, lsl #18
    55c4:	00180000 	andseq	r0, r8, r0
    55c8:	00082e1d 	andeq	r2, r8, sp, lsl lr
    55cc:	04121400 	ldreq	r1, [r2], #-1024	; 0xfffffc00
    55d0:	0f000000 	svceq	0x00000000
    55d4:	00082304 	andeq	r2, r8, r4, lsl #6
    55d8:	65040f00 	strvs	r0, [r4, #-3840]	; 0xfffff100
    55dc:	1d000001 	stcne	0, cr0, [r0, #-4]
    55e0:	00000845 	andeq	r0, r0, r5, asr #16
    55e4:	00002c14 	andeq	r2, r0, r4, lsl ip
    55e8:	040f0000 	streq	r0, [pc], #-0	; 55f0 <_Min_Stack_Size+0x51f0>
    55ec:	0000084b 	andeq	r0, r0, fp, asr #16
    55f0:	083a040f 	ldmdaeq	sl!, {r0, r1, r2, r3, sl}
    55f4:	ea080000 	b	2055fc <_Min_Stack_Size+0x2051fc>
    55f8:	61000005 	tstvs	r0, r5
    55fc:	09000008 	stmdbeq	r0, {r3}
    5600:	000000c7 	andeq	r0, r0, r7, asr #1
    5604:	ec1e0002 	ldc	0, cr0, [lr], {2}
    5608:	01000016 	tsteq	r0, r6, lsl r0
    560c:	0012782d 	andseq	r7, r2, sp, lsr #16
    5610:	00001808 	andeq	r1, r0, r8, lsl #16
    5614:	919c0100 	orrsls	r0, ip, r0, lsl #2
    5618:	1f000008 	svcne	0x00000008
    561c:	08001280 	stmdaeq	r0, {r7, r9, ip}
    5620:	00000006 	andeq	r0, r0, r6
    5624:	00105f20 	andseq	r5, r0, r0, lsr #30
    5628:	21310100 	teqcs	r1, r0, lsl #2
    562c:	08001286 	stmdaeq	r0, {r1, r2, r7, r9, ip}
    5630:	00000987 	andeq	r0, r0, r7, lsl #19
    5634:	db220000 	blle	88563c <_Min_Stack_Size+0x88523c>
    5638:	01000016 	tsteq	r0, r6, lsl r0
    563c:	00000042 	andeq	r0, r0, r2, asr #32
    5640:	00010800 	andeq	r0, r1, r0, lsl #16
    5644:	539c0100 	orrspl	r0, ip, #0, 2
    5648:	23000009 	movwcs	r0, #9
    564c:	00001714 	andeq	r1, r0, r4, lsl r7
    5650:	002c4201 	eoreq	r4, ip, r1, lsl #4
    5654:	146e0000 	strbtne	r0, [lr], #-0
    5658:	64240000 	strtvs	r0, [r4], #-0
    565c:	05420100 	strbeq	r0, [r2, #-256]	; 0xffffff00
    5660:	8d000001 	stchi	0, cr0, [r0, #-4]
    5664:	25000014 	strcs	r0, [r0, #-20]	; 0xffffffec
    5668:	45010070 	strmi	r0, [r1, #-112]	; 0xffffff90
    566c:	00000282 	andeq	r0, r0, r2, lsl #5
    5670:	000014c4 	andeq	r1, r0, r4, asr #9
    5674:	0016cd26 	andseq	ip, r6, r6, lsr #26
    5678:	53460100 	movtpl	r0, #24832	; 0x6100
    567c:	f8000009 			; <UNDEFINED> instruction: 0xf8000009
    5680:	26000014 			; <UNDEFINED> instruction: 0x26000014
    5684:	00001379 	andeq	r1, r0, r9, ror r3
    5688:	09594701 	ldmdbeq	r9, {r0, r8, r9, sl, lr}^
    568c:	15220000 	strne	r0, [r2, #-0]!
    5690:	6e250000 	cdpvs	0, 2, cr0, cr5, cr0, {0}
    5694:	2c480100 	stfcse	f0, [r8], {-0}
    5698:	62000000 	andvs	r0, r0, #0
    569c:	25000015 	strcs	r0, [r0, #-21]	; 0xffffffeb
    56a0:	49010069 	stmdbmi	r1, {r0, r3, r5, r6}
    56a4:	0000002c 	andeq	r0, r0, ip, lsr #32
    56a8:	000015bd 			; <UNDEFINED> instruction: 0x000015bd
    56ac:	006e6625 	rsbeq	r6, lr, r5, lsr #12
    56b0:	02984a01 	addseq	r4, r8, #4096	; 0x1000
    56b4:	15e30000 	strbne	r0, [r3, #0]!
    56b8:	d3270000 			; <UNDEFINED> instruction: 0xd3270000
    56bc:	01000016 	tsteq	r0, r6, lsl r0
    56c0:	03c82851 	biceq	r2, r8, #5308416	; 0x510000
    56c4:	09420000 	stmdbeq	r2, {}^	; <UNPREDICTABLE>
    56c8:	69250000 	stmdbvs	r5!, {}	; <UNPREDICTABLE>
    56cc:	0100646e 	tsteq	r0, lr, ror #8
    56d0:	00002c5e 	andeq	r2, r0, lr, asr ip
    56d4:	00160c00 	andseq	r0, r6, r0, lsl #24
    56d8:	00002900 	andeq	r2, r0, r0, lsl #18
    56dc:	012a0000 			; <UNDEFINED> instruction: 0x012a0000
    56e0:	44910350 	ldrmi	r0, [r1], #848	; 0x350
    56e4:	2b000006 	blcs	5704 <_Min_Stack_Size+0x5304>
    56e8:	00000000 	andeq	r0, r0, r0
    56ec:	0000099c 	muleq	r0, ip, r9
    56f0:	0250012a 	subseq	r0, r0, #-2147483638	; 0x8000000a
    56f4:	00000077 	andeq	r0, r0, r7, ror r0
    56f8:	0282040f 	addeq	r0, r2, #251658240	; 0xf000000
    56fc:	040f0000 	streq	r0, [pc], #-0	; 5704 <_Min_Stack_Size+0x5304>
    5700:	000001f4 	strdeq	r0, [r0], -r4
    5704:	0017062c 	andseq	r0, r7, ip, lsr #12
    5708:	2c0e0100 	stfcss	f0, [lr], {-0}
    570c:	00000000 	andeq	r0, r0, r0
    5710:	0012f02d 	andseq	pc, r2, sp, lsr #32
    5714:	02fb0500 	rscseq	r0, fp, #0, 10
    5718:	00000977 	andeq	r0, r0, r7, ror r9
    571c:	00041218 	andeq	r1, r4, r8, lsl r2
    5720:	16fa2e00 	ldrbtne	r2, [sl], r0, lsl #28
    5724:	24010000 	strcs	r0, [r1], #-0
    5728:	00000550 	andeq	r0, r0, r0, asr r5
    572c:	0010032f 	andseq	r0, r0, pc, lsr #6
    5730:	2c450600 	mcrrcs	6, 0, r0, r5, cr0
    5734:	9c000000 	stcls	0, cr0, [r0], {-0}
    5738:	14000009 	strne	r0, [r0], #-9
    573c:	00000298 	muleq	r0, r8, r2
    5740:	16c83000 	strbne	r3, [r8], r0
    5744:	56060000 	strpl	r0, [r6], -r0
    5748:	00010514 	andeq	r0, r1, r4, lsl r5
    574c:	Address 0x000000000000574c is out of bounds.


Disassembly of section .debug_abbrev:

00000000 <.debug_abbrev>:
       0:	25011101 	strcs	r1, [r1, #-257]	; 0xfffffeff
       4:	030b130e 	movweq	r1, #45838	; 0xb30e
       8:	550e1b0e 	strpl	r1, [lr, #-2830]	; 0xfffff4f2
       c:	10011117 	andne	r1, r1, r7, lsl r1
      10:	02000017 	andeq	r0, r0, #23
      14:	0b0b0104 	bleq	2c042c <_Min_Stack_Size+0x2c002c>
      18:	0b3b0b3a 	bleq	ec2d08 <_Min_Stack_Size+0xec2908>
      1c:	00001301 	andeq	r1, r0, r1, lsl #6
      20:	03002803 	movweq	r2, #2051	; 0x803
      24:	000d1c0e 	andeq	r1, sp, lr, lsl #24
      28:	00160400 	andseq	r0, r6, r0, lsl #8
      2c:	0b3a0e03 	bleq	e83840 <_Min_Stack_Size+0xe83440>
      30:	13490b3b 	movtne	r0, #39739	; 0x9b3b
      34:	24050000 	strcs	r0, [r5], #-0
      38:	3e0b0b00 	vmlacc.f64	d0, d11, d0
      3c:	000e030b 	andeq	r0, lr, fp, lsl #6
      40:	00240600 	eoreq	r0, r4, r0, lsl #12
      44:	0b3e0b0b 	bleq	f82c78 <_Min_Stack_Size+0xf82878>
      48:	00000803 	andeq	r0, r0, r3, lsl #16
      4c:	49003507 	stmdbmi	r0, {r0, r1, r2, r8, sl, ip, sp}
      50:	08000013 	stmdaeq	r0, {r0, r1, r4}
      54:	13490101 	movtne	r0, #37121	; 0x9101
      58:	00001301 	andeq	r1, r0, r1, lsl #6
      5c:	49002109 	stmdbmi	r0, {r0, r3, r8, sp}
      60:	000b2f13 	andeq	r2, fp, r3, lsl pc
      64:	01130a00 	tsteq	r3, r0, lsl #20
      68:	0b3a0b0b 	bleq	e82c9c <_Min_Stack_Size+0xe8289c>
      6c:	1301053b 	movwne	r0, #5435	; 0x153b
      70:	0d0b0000 	stceq	0, cr0, [fp, #-0]
      74:	3a0e0300 	bcc	380c7c <_Min_Stack_Size+0x38087c>
      78:	49053b0b 	stmdbmi	r5, {r0, r1, r3, r8, r9, fp, ip, sp}
      7c:	000b3813 	andeq	r3, fp, r3, lsl r8
      80:	000d0c00 	andeq	r0, sp, r0, lsl #24
      84:	0b3a0803 	bleq	e82098 <_Min_Stack_Size+0xe81c98>
      88:	1349053b 	movtne	r0, #38203	; 0x953b
      8c:	00000b38 	andeq	r0, r0, r8, lsr fp
      90:	0300160d 	movweq	r1, #1549	; 0x60d
      94:	3b0b3a0e 	blcc	2ce8d4 <_Min_Stack_Size+0x2ce4d4>
      98:	00134905 	andseq	r4, r3, r5, lsl #18
      9c:	000f0e00 	andeq	r0, pc, r0, lsl #28
      a0:	13490b0b 	movtne	r0, #39691	; 0x9b0b
      a4:	130f0000 	movwne	r0, #61440	; 0xf000
      a8:	3a0b0b01 	bcc	2c2cb4 <_Min_Stack_Size+0x2c28b4>
      ac:	010b3b0b 	tsteq	fp, fp, lsl #22
      b0:	10000013 	andne	r0, r0, r3, lsl r0
      b4:	0e03000d 	cdpeq	0, 0, cr0, cr3, cr13, {0}
      b8:	0b3b0b3a 	bleq	ec2da8 <_Min_Stack_Size+0xec29a8>
      bc:	0b381349 	bleq	e04de8 <_Min_Stack_Size+0xe049e8>
      c0:	0d110000 	ldceq	0, cr0, [r1, #-0]
      c4:	3a080300 	bcc	200ccc <_Min_Stack_Size+0x2008cc>
      c8:	490b3b0b 	stmdbmi	fp, {r0, r1, r3, r8, r9, fp, ip, sp}
      cc:	000b3813 	andeq	r3, fp, r3, lsl r8
      d0:	012e1200 			; <UNDEFINED> instruction: 0x012e1200
      d4:	0b3a0e03 	bleq	e838e8 <_Min_Stack_Size+0xe834e8>
      d8:	19270b3b 	stmdbne	r7!, {r0, r1, r3, r4, r5, r8, r9, fp}
      dc:	13010b20 	movwne	r0, #6944	; 0x1b20
      e0:	34130000 	ldrcc	r0, [r3], #-0
      e4:	3a0e0300 	bcc	380cec <_Min_Stack_Size+0x3808ec>
      e8:	490b3b0b 	stmdbmi	fp, {r0, r1, r3, r8, r9, fp, ip, sp}
      ec:	14000013 	strne	r0, [r0], #-19	; 0xffffffed
      f0:	0e03002e 	cdpeq	0, 0, cr0, cr3, cr14, {1}
      f4:	0b3b0b3a 	bleq	ec2de4 <_Min_Stack_Size+0xec29e4>
      f8:	0b201927 	bleq	80659c <_Min_Stack_Size+0x80619c>
      fc:	0b150000 	bleq	540104 <_Min_Stack_Size+0x53fd04>
     100:	16000001 	strne	r0, [r0], -r1
     104:	193f012e 	ldmdbne	pc!, {r1, r2, r3, r5, r8}	; <UNPREDICTABLE>
     108:	0b3a0e03 	bleq	e8391c <_Min_Stack_Size+0xe8351c>
     10c:	19270b3b 	stmdbne	r7!, {r0, r1, r3, r4, r5, r8, r9, fp}
     110:	01111349 	tsteq	r1, r9, asr #6
     114:	18400612 	stmdane	r0, {r1, r4, r9, sl}^
     118:	01194297 			; <UNDEFINED> instruction: 0x01194297
     11c:	17000013 	smladne	r0, r3, r0, r0
     120:	1331011d 	teqne	r1, #1073741831	; 0x40000007
     124:	06120111 			; <UNDEFINED> instruction: 0x06120111
     128:	0b590b58 	bleq	1642e90 <_Min_Stack_Size+0x1642a90>
     12c:	00001301 	andeq	r1, r0, r1, lsl #6
     130:	11010b18 	tstne	r1, r8, lsl fp
     134:	00061201 	andeq	r1, r6, r1, lsl #4
     138:	00341900 	eorseq	r1, r4, r0, lsl #18
     13c:	18021331 	stmdane	r2, {r0, r4, r5, r8, r9, ip}
     140:	891a0000 	ldmdbhi	sl, {}	; <UNPREDICTABLE>
     144:	11010182 	smlabbne	r1, r2, r1, r0
     148:	00133101 	andseq	r3, r3, r1, lsl #2
     14c:	828a1b00 	addhi	r1, sl, #0, 22
     150:	18020001 	stmdane	r2, {r0}
     154:	00184291 	mulseq	r8, r1, r2
     158:	82891c00 	addhi	r1, r9, #0, 24
     15c:	01110101 	tsteq	r1, r1, lsl #2
     160:	13011331 	movwne	r1, #4913	; 0x1331
     164:	0b1d0000 	bleq	74016c <_Min_Stack_Size+0x73fd6c>
     168:	01175501 	tsteq	r7, r1, lsl #10
     16c:	1e000013 	mcrne	0, 0, r0, cr0, cr3, {0}
     170:	00018289 	andeq	r8, r1, r9, lsl #5
     174:	13310111 	teqne	r1, #1073741828	; 0x40000004
     178:	2e1f0000 	cdpcs	0, 1, cr0, cr15, cr0, {0}
     17c:	03193f01 	tsteq	r9, #1, 30
     180:	3b0b3a0e 	blcc	2ce9c0 <_Min_Stack_Size+0x2ce5c0>
     184:	1119270b 	tstne	r9, fp, lsl #14
     188:	40061201 	andmi	r1, r6, r1, lsl #4
     18c:	19429718 	stmdbne	r2, {r3, r4, r8, r9, sl, ip, pc}^
     190:	00001301 	andeq	r1, r0, r1, lsl #6
     194:	03000520 	movweq	r0, #1312	; 0x520
     198:	3b0b3a0e 	blcc	2ce9d8 <_Min_Stack_Size+0x2ce5d8>
     19c:	0213490b 	andseq	r4, r3, #180224	; 0x2c000
     1a0:	21000017 	tstcs	r0, r7, lsl r0
     1a4:	0e030005 	cdpeq	0, 0, cr0, cr3, cr5, {0}
     1a8:	0b3b0b3a 	bleq	ec2e98 <_Min_Stack_Size+0xec2a98>
     1ac:	18021349 	stmdane	r2, {r0, r3, r6, r8, r9, ip}
     1b0:	2e220000 	cdpcs	0, 2, cr0, cr2, cr0, {0}
     1b4:	03193f01 	tsteq	r9, #1, 30
     1b8:	3b0b3a0e 	blcc	2ce9f8 <_Min_Stack_Size+0x2ce5f8>
     1bc:	3c192705 	ldccc	7, cr2, [r9], {5}
     1c0:	00130119 	andseq	r0, r3, r9, lsl r1
     1c4:	00052300 	andeq	r2, r5, r0, lsl #6
     1c8:	00001349 	andeq	r1, r0, r9, asr #6
     1cc:	3f012e24 	svccc	0x00012e24
     1d0:	3a0e0319 	bcc	380e3c <_Min_Stack_Size+0x380a3c>
     1d4:	27053b0b 	strcs	r3, [r5, -fp, lsl #22]
     1d8:	3c134919 	ldccc	9, cr4, [r3], {25}
     1dc:	00130119 	andseq	r0, r3, r9, lsl r1
     1e0:	012e2500 			; <UNDEFINED> instruction: 0x012e2500
     1e4:	0e03193f 	mcreq	9, 0, r1, cr3, cr15, {1}
     1e8:	0b3b0b3a 	bleq	ec2ed8 <_Min_Stack_Size+0xec2ad8>
     1ec:	193c1927 	ldmdbne	ip!, {r0, r1, r2, r5, r8, fp, ip}
     1f0:	00001301 	andeq	r1, r0, r1, lsl #6
     1f4:	3f002e26 	svccc	0x00002e26
     1f8:	3a0e0319 	bcc	380e64 <_Min_Stack_Size+0x380a64>
     1fc:	27053b0b 	strcs	r3, [r5, -fp, lsl #22]
     200:	3c134919 	ldccc	9, cr4, [r3], {25}
     204:	27000019 	smladcs	r0, r9, r0, r0
     208:	193f012e 	ldmdbne	pc!, {r1, r2, r3, r5, r8}	; <UNPREDICTABLE>
     20c:	0b3a0e03 	bleq	e83a20 <_Min_Stack_Size+0xe83620>
     210:	1927053b 	stmdbne	r7!, {r0, r1, r3, r4, r5, r8, sl}
     214:	0000193c 	andeq	r1, r0, ip, lsr r9
     218:	01110100 	tsteq	r1, r0, lsl #2
     21c:	0b130e25 	bleq	4c3ab8 <_Min_Stack_Size+0x4c36b8>
     220:	0e1b0e03 	cdpeq	14, 1, cr0, cr11, cr3, {0}
     224:	01111755 	tsteq	r1, r5, asr r7
     228:	00001710 	andeq	r1, r0, r0, lsl r7
     22c:	0b010402 	bleq	4123c <_Min_Stack_Size+0x40e3c>
     230:	3b0b3a0b 	blcc	2cea64 <_Min_Stack_Size+0x2ce664>
     234:	0013010b 	andseq	r0, r3, fp, lsl #2
     238:	00280300 	eoreq	r0, r8, r0, lsl #6
     23c:	0d1c0e03 	ldceq	14, cr0, [ip, #-12]
     240:	16040000 	strne	r0, [r4], -r0
     244:	3a0e0300 	bcc	380e4c <_Min_Stack_Size+0x380a4c>
     248:	490b3b0b 	stmdbmi	fp, {r0, r1, r3, r8, r9, fp, ip, sp}
     24c:	05000013 	streq	r0, [r0, #-19]	; 0xffffffed
     250:	0b0b0024 	bleq	2c02e8 <_Min_Stack_Size+0x2bfee8>
     254:	0e030b3e 	vmoveq.16	d3[0], r0
     258:	24060000 	strcs	r0, [r6], #-0
     25c:	3e0b0b00 	vmlacc.f64	d0, d11, d0
     260:	0008030b 	andeq	r0, r8, fp, lsl #6
     264:	00260700 	eoreq	r0, r6, r0, lsl #14
     268:	00001349 	andeq	r1, r0, r9, asr #6
     26c:	49003508 	stmdbmi	r0, {r3, r8, sl, ip, sp}
     270:	09000013 	stmdbeq	r0, {r0, r1, r4}
     274:	0b0b0113 	bleq	2c06c8 <_Min_Stack_Size+0x2c02c8>
     278:	053b0b3a 	ldreq	r0, [fp, #-2874]!	; 0xfffff4c6
     27c:	00001301 	andeq	r1, r0, r1, lsl #6
     280:	03000d0a 	movweq	r0, #3338	; 0xd0a
     284:	3b0b3a0e 	blcc	2ceac4 <_Min_Stack_Size+0x2ce6c4>
     288:	38134905 	ldmdacc	r3, {r0, r2, r8, fp, lr}
     28c:	0b00000b 	bleq	2c0 <_Min_Heap_Size+0xc0>
     290:	0803000d 	stmdaeq	r3, {r0, r2, r3}
     294:	053b0b3a 	ldreq	r0, [fp, #-2874]!	; 0xfffff4c6
     298:	0b381349 	bleq	e04fc4 <_Min_Stack_Size+0xe04bc4>
     29c:	160c0000 	strne	r0, [ip], -r0
     2a0:	3a0e0300 	bcc	380ea8 <_Min_Stack_Size+0x380aa8>
     2a4:	49053b0b 	stmdbmi	r5, {r0, r1, r3, r8, r9, fp, ip, sp}
     2a8:	0d000013 	stceq	0, cr0, [r0, #-76]	; 0xffffffb4
     2ac:	193f002e 	ldmdbne	pc!, {r1, r2, r3, r5}	; <UNPREDICTABLE>
     2b0:	0b3a0e03 	bleq	e83ac4 <_Min_Stack_Size+0xe836c4>
     2b4:	19270b3b 	stmdbne	r7!, {r0, r1, r3, r4, r5, r8, r9, fp}
     2b8:	06120111 			; <UNDEFINED> instruction: 0x06120111
     2bc:	42971840 	addsmi	r1, r7, #64, 16	; 0x400000
     2c0:	0e000019 	mcreq	0, 0, r0, cr0, cr9, {0}
     2c4:	193f012e 	ldmdbne	pc!, {r1, r2, r3, r5, r8}	; <UNPREDICTABLE>
     2c8:	0b3a0e03 	bleq	e83adc <_Min_Stack_Size+0xe836dc>
     2cc:	19270b3b 	stmdbne	r7!, {r0, r1, r3, r4, r5, r8, r9, fp}
     2d0:	01111349 	tsteq	r1, r9, asr #6
     2d4:	18400612 	stmdane	r0, {r1, r4, r9, sl}^
     2d8:	01194297 			; <UNDEFINED> instruction: 0x01194297
     2dc:	0f000013 	svceq	0x00000013
     2e0:	00018289 	andeq	r8, r1, r9, lsl #5
     2e4:	13310111 	teqne	r1, #1073741828	; 0x40000004
     2e8:	2e100000 	cdpcs	0, 1, cr0, cr0, cr0, {0}
     2ec:	03193f01 	tsteq	r9, #1, 30
     2f0:	3b0b3a0e 	blcc	2ceb30 <_Min_Stack_Size+0x2ce730>
     2f4:	4919270b 	ldmdbmi	r9, {r0, r1, r3, r8, r9, sl, sp}
     2f8:	12011113 	andne	r1, r1, #-1073741820	; 0xc0000004
     2fc:	96184006 	ldrls	r4, [r8], -r6
     300:	13011942 	movwne	r1, #6466	; 0x1942
     304:	05110000 	ldreq	r0, [r1, #-0]
     308:	3a0e0300 	bcc	380f10 <_Min_Stack_Size+0x380b10>
     30c:	490b3b0b 	stmdbmi	fp, {r0, r1, r3, r8, r9, fp, ip, sp}
     310:	00170213 	andseq	r0, r7, r3, lsl r2
     314:	82891200 	addhi	r1, r9, #0, 4
     318:	01110101 	tsteq	r1, r1, lsl #2
     31c:	00001331 	andeq	r1, r0, r1, lsr r3
     320:	01828a13 	orreq	r8, r2, r3, lsl sl
     324:	91180200 	tstls	r8, r0, lsl #4
     328:	00001842 	andeq	r1, r0, r2, asr #16
     32c:	01828914 	orreq	r8, r2, r4, lsl r9
     330:	31011101 	tstcc	r1, r1, lsl #2
     334:	00130113 	andseq	r0, r3, r3, lsl r1
     338:	002e1500 	eoreq	r1, lr, r0, lsl #10
     33c:	0e03193f 	mcreq	9, 0, r1, cr3, cr15, {1}
     340:	053b0b3a 	ldreq	r0, [fp, #-2874]!	; 0xfffff4c6
     344:	01111927 	tsteq	r1, r7, lsr #18
     348:	18400612 	stmdane	r0, {r1, r4, r9, sl}^
     34c:	00194297 	mulseq	r9, r7, r2
     350:	002e1600 	eoreq	r1, lr, r0, lsl #12
     354:	0e03193f 	mcreq	9, 0, r1, cr3, cr15, {1}
     358:	053b0b3a 	ldreq	r0, [fp, #-2874]!	; 0xfffff4c6
     35c:	13491927 	movtne	r1, #39207	; 0x9927
     360:	06120111 			; <UNDEFINED> instruction: 0x06120111
     364:	42971840 	addsmi	r1, r7, #64, 16	; 0x400000
     368:	17000019 	smladne	r0, r9, r0, r0
     36c:	193f012e 	ldmdbne	pc!, {r1, r2, r3, r5, r8}	; <UNPREDICTABLE>
     370:	0b3a0e03 	bleq	e83b84 <_Min_Stack_Size+0xe83784>
     374:	1927053b 	stmdbne	r7!, {r0, r1, r3, r4, r5, r8, sl}
     378:	06120111 			; <UNDEFINED> instruction: 0x06120111
     37c:	42971840 	addsmi	r1, r7, #64, 16	; 0x400000
     380:	00130119 	andseq	r0, r3, r9, lsl r1
     384:	00051800 	andeq	r1, r5, r0, lsl #16
     388:	0b3a0e03 	bleq	e83b9c <_Min_Stack_Size+0xe8379c>
     38c:	1349053b 	movtne	r0, #38203	; 0x953b
     390:	00001702 	andeq	r1, r0, r2, lsl #14
     394:	03003419 	movweq	r3, #1049	; 0x419
     398:	3b0b3a0e 	blcc	2cebd8 <_Min_Stack_Size+0x2ce7d8>
     39c:	02134905 	andseq	r4, r3, #81920	; 0x14000
     3a0:	1a000017 	bne	404 <_Min_Stack_Size+0x4>
     3a4:	0e030034 	mcreq	0, 0, r0, cr3, cr4, {1}
     3a8:	0b3b0b3a 	bleq	ec3098 <_Min_Stack_Size+0xec2c98>
     3ac:	193f1349 	ldmdbne	pc!, {r0, r3, r6, r8, r9, ip}	; <UNPREDICTABLE>
     3b0:	00001802 	andeq	r1, r0, r2, lsl #16
     3b4:	3f002e1b 	svccc	0x00002e1b
     3b8:	3a0e0319 	bcc	381024 <_Min_Stack_Size+0x380c24>
     3bc:	27053b0b 	strcs	r3, [r5, -fp, lsl #22]
     3c0:	3c134919 	ldccc	9, cr4, [r3], {25}
     3c4:	1c000019 	stcne	0, cr0, [r0], {25}
     3c8:	193f012e 	ldmdbne	pc!, {r1, r2, r3, r5, r8}	; <UNPREDICTABLE>
     3cc:	0b3a0e03 	bleq	e83be0 <_Min_Stack_Size+0xe837e0>
     3d0:	19270b3b 	stmdbne	r7!, {r0, r1, r3, r4, r5, r8, r9, fp}
     3d4:	193c1349 	ldmdbne	ip!, {r0, r3, r6, r8, r9, ip}
     3d8:	00001301 	andeq	r1, r0, r1, lsl #6
     3dc:	4900051d 	stmdbmi	r0, {r0, r2, r3, r4, r8, sl}
     3e0:	1e000013 	mcrne	0, 0, r0, cr0, cr3, {0}
     3e4:	193f012e 	ldmdbne	pc!, {r1, r2, r3, r5, r8}	; <UNPREDICTABLE>
     3e8:	0b3a0e03 	bleq	e83bfc <_Min_Stack_Size+0xe837fc>
     3ec:	19270b3b 	stmdbne	r7!, {r0, r1, r3, r4, r5, r8, r9, fp}
     3f0:	0000193c 	andeq	r1, r0, ip, lsr r9
     3f4:	01110100 	tsteq	r1, r0, lsl #2
     3f8:	0b130e25 	bleq	4c3c94 <_Min_Stack_Size+0x4c3894>
     3fc:	0e1b0e03 	cdpeq	14, 1, cr0, cr11, cr3, {0}
     400:	01111755 	tsteq	r1, r5, asr r7
     404:	00001710 	andeq	r1, r0, r0, lsl r7
     408:	0b002402 	bleq	9418 <_Min_Stack_Size+0x9018>
     40c:	030b3e0b 	movweq	r3, #48651	; 0xbe0b
     410:	0300000e 	movweq	r0, #14
     414:	0e030016 	mcreq	0, 0, r0, cr3, cr6, {0}
     418:	0b3b0b3a 	bleq	ec3108 <_Min_Stack_Size+0xec2d08>
     41c:	00001349 	andeq	r1, r0, r9, asr #6
     420:	0b002404 	bleq	9438 <_Min_Stack_Size+0x9038>
     424:	030b3e0b 	movweq	r3, #48651	; 0xbe0b
     428:	05000008 	streq	r0, [r0, #-8]
     42c:	13490035 	movtne	r0, #36917	; 0x9035
     430:	01060000 	mrseq	r0, (UNDEF: 6)
     434:	01134901 	tsteq	r3, r1, lsl #18
     438:	07000013 	smladeq	r0, r3, r0, r0
     43c:	13490021 	movtne	r0, #36897	; 0x9021
     440:	00000b2f 	andeq	r0, r0, pc, lsr #22
     444:	0b011308 	bleq	4506c <_Min_Stack_Size+0x44c6c>
     448:	3b0b3a0b 	blcc	2cec7c <_Min_Stack_Size+0x2ce87c>
     44c:	00130105 	andseq	r0, r3, r5, lsl #2
     450:	000d0900 	andeq	r0, sp, r0, lsl #18
     454:	0b3a0803 	bleq	e82468 <_Min_Stack_Size+0xe82068>
     458:	1349053b 	movtne	r0, #38203	; 0x953b
     45c:	00000b38 	andeq	r0, r0, r8, lsr fp
     460:	03000d0a 	movweq	r0, #3338	; 0xd0a
     464:	3b0b3a0e 	blcc	2ceca4 <_Min_Stack_Size+0x2ce8a4>
     468:	38134905 	ldmdacc	r3, {r0, r2, r8, fp, lr}
     46c:	0b00000b 	bleq	4a0 <_Min_Stack_Size+0xa0>
     470:	0e030016 	mcreq	0, 0, r0, cr3, cr6, {0}
     474:	053b0b3a 	ldreq	r0, [fp, #-2874]!	; 0xfffff4c6
     478:	00001349 	andeq	r1, r0, r9, asr #6
     47c:	0b01040c 	bleq	414b4 <_Min_Stack_Size+0x410b4>
     480:	3b0b3a0b 	blcc	2cecb4 <_Min_Stack_Size+0x2ce8b4>
     484:	0013010b 	andseq	r0, r3, fp, lsl #2
     488:	00280d00 	eoreq	r0, r8, r0, lsl #26
     48c:	0d1c0e03 	ldceq	14, cr0, [ip, #-12]
     490:	280e0000 	stmdacs	lr, {}	; <UNPREDICTABLE>
     494:	1c080300 	stcne	3, cr0, [r8], {-0}
     498:	0f00000d 	svceq	0x0000000d
     49c:	0b0b000f 	bleq	2c04e0 <_Min_Stack_Size+0x2c00e0>
     4a0:	00001349 	andeq	r1, r0, r9, asr #6
     4a4:	0b011310 	bleq	450ec <_Min_Stack_Size+0x44cec>
     4a8:	3b0b3a0b 	blcc	2cecdc <_Min_Stack_Size+0x2ce8dc>
     4ac:	0013010b 	andseq	r0, r3, fp, lsl #2
     4b0:	000d1100 	andeq	r1, sp, r0, lsl #2
     4b4:	0b3a0803 	bleq	e824c8 <_Min_Stack_Size+0xe820c8>
     4b8:	13490b3b 	movtne	r0, #39739	; 0x9b3b
     4bc:	00000b38 	andeq	r0, r0, r8, lsr fp
     4c0:	03000d12 	movweq	r0, #3346	; 0xd12
     4c4:	3b0b3a0e 	blcc	2ced04 <_Min_Stack_Size+0x2ce904>
     4c8:	3813490b 	ldmdacc	r3, {r0, r1, r3, r8, fp, lr}
     4cc:	1300000b 	movwne	r0, #11
     4d0:	193f012e 	ldmdbne	pc!, {r1, r2, r3, r5, r8}	; <UNPREDICTABLE>
     4d4:	0b3a0e03 	bleq	e83ce8 <_Min_Stack_Size+0xe838e8>
     4d8:	19270b3b 	stmdbne	r7!, {r0, r1, r3, r4, r5, r8, r9, fp}
     4dc:	06120111 			; <UNDEFINED> instruction: 0x06120111
     4e0:	42971840 	addsmi	r1, r7, #64, 16	; 0x400000
     4e4:	00130119 	andseq	r0, r3, r9, lsl r1
     4e8:	00051400 	andeq	r1, r5, r0, lsl #8
     4ec:	0b3a0e03 	bleq	e83d00 <_Min_Stack_Size+0xe83900>
     4f0:	13490b3b 	movtne	r0, #39739	; 0x9b3b
     4f4:	00001702 	andeq	r1, r0, r2, lsl #14
     4f8:	03003415 	movweq	r3, #1045	; 0x415
     4fc:	3b0b3a0e 	blcc	2ced3c <_Min_Stack_Size+0x2ce93c>
     500:	0213490b 	andseq	r4, r3, #180224	; 0x2c000
     504:	16000017 			; <UNDEFINED> instruction: 0x16000017
     508:	0111010b 	tsteq	r1, fp, lsl #2
     50c:	13010612 	movwne	r0, #5650	; 0x1612
     510:	34170000 	ldrcc	r0, [r7], #-0
     514:	3a0e0300 	bcc	38111c <_Min_Stack_Size+0x380d1c>
     518:	49053b0b 	stmdbmi	r5, {r0, r1, r3, r8, r9, fp, ip, sp}
     51c:	00180213 	andseq	r0, r8, r3, lsl r2
     520:	82891800 	addhi	r1, r9, #0, 16
     524:	01110101 	tsteq	r1, r1, lsl #2
     528:	13011331 	movwne	r1, #4913	; 0x1331
     52c:	8a190000 	bhi	640534 <_Min_Stack_Size+0x640134>
     530:	02000182 	andeq	r0, r0, #-2147483616	; 0x80000020
     534:	18429118 	stmdane	r2, {r3, r4, r8, ip, pc}^
     538:	891a0000 	ldmdbhi	sl, {}	; <UNPREDICTABLE>
     53c:	11010182 	smlabbne	r1, r2, r1, r0
     540:	00133101 	andseq	r3, r3, r1, lsl #2
     544:	012e1b00 			; <UNDEFINED> instruction: 0x012e1b00
     548:	0e03193f 	mcreq	9, 0, r1, cr3, cr15, {1}
     54c:	053b0b3a 	ldreq	r0, [fp, #-2874]!	; 0xfffff4c6
     550:	01111927 	tsteq	r1, r7, lsr #18
     554:	18400612 	stmdane	r0, {r1, r4, r9, sl}^
     558:	01194297 			; <UNDEFINED> instruction: 0x01194297
     55c:	1c000013 	stcne	0, cr0, [r0], {19}
     560:	0e030005 	cdpeq	0, 0, cr0, cr3, cr5, {0}
     564:	053b0b3a 	ldreq	r0, [fp, #-2874]!	; 0xfffff4c6
     568:	17021349 	strne	r1, [r2, -r9, asr #6]
     56c:	341d0000 	ldrcc	r0, [sp], #-0
     570:	3a0e0300 	bcc	381178 <_Min_Stack_Size+0x380d78>
     574:	49053b0b 	stmdbmi	r5, {r0, r1, r3, r8, r9, fp, ip, sp}
     578:	00170213 	andseq	r0, r7, r3, lsl r2
     57c:	00341e00 	eorseq	r1, r4, r0, lsl #28
     580:	0b3a0803 	bleq	e82594 <_Min_Stack_Size+0xe82194>
     584:	1349053b 	movtne	r0, #38203	; 0x953b
     588:	00001702 	andeq	r1, r0, r2, lsl #14
     58c:	3f012e1f 	svccc	0x00012e1f
     590:	3a0e0319 	bcc	3811fc <_Min_Stack_Size+0x380dfc>
     594:	27053b0b 	strcs	r3, [r5, -fp, lsl #22]
     598:	11134919 	tstne	r3, r9, lsl r9
     59c:	40061201 	andmi	r1, r6, r1, lsl #4
     5a0:	19429718 	stmdbne	r2, {r3, r4, r8, r9, sl, ip, pc}^
     5a4:	00001301 	andeq	r1, r0, r1, lsl #6
     5a8:	03003420 	movweq	r3, #1056	; 0x420
     5ac:	3b0b3a08 	blcc	2cedd4 <_Min_Stack_Size+0x2ce9d4>
     5b0:	02134905 	andseq	r4, r3, #81920	; 0x14000
     5b4:	21000018 	tstcs	r0, r8, lsl r0
     5b8:	0e030005 	cdpeq	0, 0, cr0, cr3, cr5, {0}
     5bc:	053b0b3a 	ldreq	r0, [fp, #-2874]!	; 0xfffff4c6
     5c0:	18021349 	stmdane	r2, {r0, r3, r6, r8, r9, ip}
     5c4:	89220000 	stmdbhi	r2!, {}	; <UNPREDICTABLE>
     5c8:	11000182 	smlabbne	r0, r2, r1, r0
     5cc:	00133101 	andseq	r3, r3, r1, lsl #2
     5d0:	012e2300 			; <UNDEFINED> instruction: 0x012e2300
     5d4:	0e03193f 	mcreq	9, 0, r1, cr3, cr15, {1}
     5d8:	053b0b3a 	ldreq	r0, [fp, #-2874]!	; 0xfffff4c6
     5dc:	193c1927 	ldmdbne	ip!, {r0, r1, r2, r5, r8, fp, ip}
     5e0:	05240000 	streq	r0, [r4, #-0]!
     5e4:	00134900 	andseq	r4, r3, r0, lsl #18
     5e8:	11010000 	mrsne	r0, (UNDEF: 1)
     5ec:	130e2501 	movwne	r2, #58625	; 0xe501
     5f0:	1b0e030b 	blne	381224 <_Min_Stack_Size+0x380e24>
     5f4:	1117550e 	tstne	r7, lr, lsl #10
     5f8:	00171001 	andseq	r1, r7, r1
     5fc:	00240200 	eoreq	r0, r4, r0, lsl #4
     600:	0b3e0b0b 	bleq	f83234 <_Min_Stack_Size+0xf82e34>
     604:	00000e03 	andeq	r0, r0, r3, lsl #28
     608:	03001603 	movweq	r1, #1539	; 0x603
     60c:	3b0b3a0e 	blcc	2cee4c <_Min_Stack_Size+0x2cea4c>
     610:	0013490b 	andseq	r4, r3, fp, lsl #18
     614:	00240400 	eoreq	r0, r4, r0, lsl #8
     618:	0b3e0b0b 	bleq	f8324c <_Min_Stack_Size+0xf82e4c>
     61c:	00000803 	andeq	r0, r0, r3, lsl #16
     620:	49003505 	stmdbmi	r0, {r0, r2, r8, sl, ip, sp}
     624:	06000013 			; <UNDEFINED> instruction: 0x06000013
     628:	13490101 	movtne	r0, #37121	; 0x9101
     62c:	00001301 	andeq	r1, r0, r1, lsl #6
     630:	49002107 	stmdbmi	r0, {r0, r1, r2, r8, sp}
     634:	000b2f13 	andeq	r2, fp, r3, lsl pc
     638:	01130800 	tsteq	r3, r0, lsl #16
     63c:	0b3a0b0b 	bleq	e83270 <_Min_Stack_Size+0xe82e70>
     640:	1301053b 	movwne	r0, #5435	; 0x153b
     644:	0d090000 	stceq	0, cr0, [r9, #-0]
     648:	3a080300 	bcc	201250 <_Min_Stack_Size+0x200e50>
     64c:	49053b0b 	stmdbmi	r5, {r0, r1, r3, r8, r9, fp, ip, sp}
     650:	000b3813 	andeq	r3, fp, r3, lsl r8
     654:	000d0a00 	andeq	r0, sp, r0, lsl #20
     658:	0b3a0e03 	bleq	e83e6c <_Min_Stack_Size+0xe83a6c>
     65c:	1349053b 	movtne	r0, #38203	; 0x953b
     660:	00000b38 	andeq	r0, r0, r8, lsr fp
     664:	0300160b 	movweq	r1, #1547	; 0x60b
     668:	3b0b3a0e 	blcc	2ceea8 <_Min_Stack_Size+0x2ceaa8>
     66c:	00134905 	andseq	r4, r3, r5, lsl #18
     670:	01040c00 	tsteq	r4, r0, lsl #24
     674:	0b3a0b0b 	bleq	e832a8 <_Min_Stack_Size+0xe82ea8>
     678:	13010b3b 	movwne	r0, #6971	; 0x1b3b
     67c:	280d0000 	stmdacs	sp, {}	; <UNPREDICTABLE>
     680:	1c0e0300 	stcne	3, cr0, [lr], {-0}
     684:	0e00000d 	cdpeq	0, 0, cr0, cr0, cr13, {0}
     688:	08030028 	stmdaeq	r3, {r3, r5}
     68c:	00000d1c 	andeq	r0, r0, ip, lsl sp
     690:	0b000f0f 	bleq	42d4 <_Min_Stack_Size+0x3ed4>
     694:	1000000b 	andne	r0, r0, fp
     698:	0b0b000f 	bleq	2c06dc <_Min_Stack_Size+0x2c02dc>
     69c:	00001349 	andeq	r1, r0, r9, asr #6
     6a0:	0b011311 	bleq	452ec <_Min_Stack_Size+0x44eec>
     6a4:	3b0b3a0b 	blcc	2ceed8 <_Min_Stack_Size+0x2cead8>
     6a8:	0013010b 	andseq	r0, r3, fp, lsl #2
     6ac:	000d1200 	andeq	r1, sp, r0, lsl #4
     6b0:	0b3a0e03 	bleq	e83ec4 <_Min_Stack_Size+0xe83ac4>
     6b4:	13490b3b 	movtne	r0, #39739	; 0x9b3b
     6b8:	00000b38 	andeq	r0, r0, r8, lsr fp
     6bc:	03000d13 	movweq	r0, #3347	; 0xd13
     6c0:	3b0b3a08 	blcc	2ceee8 <_Min_Stack_Size+0x2ceae8>
     6c4:	3813490b 	ldmdacc	r3, {r0, r1, r3, r8, fp, lr}
     6c8:	1400000b 	strne	r0, [r0], #-11
     6cc:	193f002e 	ldmdbne	pc!, {r1, r2, r3, r5}	; <UNPREDICTABLE>
     6d0:	0b3a0e03 	bleq	e83ee4 <_Min_Stack_Size+0xe83ae4>
     6d4:	1927053b 	stmdbne	r7!, {r0, r1, r3, r4, r5, r8, sl}
     6d8:	0b201349 	bleq	805404 <_Min_Stack_Size+0x805004>
     6dc:	2e150000 	cdpcs	0, 1, cr0, cr5, cr0, {0}
     6e0:	03193f00 	tsteq	r9, #0, 30
     6e4:	3b0b3a0e 	blcc	2cef24 <_Min_Stack_Size+0x2ceb24>
     6e8:	1119270b 	tstne	r9, fp, lsl #14
     6ec:	40061201 	andmi	r1, r6, r1, lsl #4
     6f0:	19429718 	stmdbne	r2, {r3, r4, r8, r9, sl, ip, pc}^
     6f4:	2e160000 	cdpcs	0, 1, cr0, cr6, cr0, {0}
     6f8:	03193f01 	tsteq	r9, #1, 30
     6fc:	3b0b3a0e 	blcc	2cef3c <_Min_Stack_Size+0x2ceb3c>
     700:	49192705 	ldmdbmi	r9, {r0, r2, r8, r9, sl, sp}
     704:	12011113 	andne	r1, r1, #-1073741820	; 0xc0000004
     708:	97184006 	ldrls	r4, [r8, -r6]
     70c:	13011942 	movwne	r1, #6466	; 0x1942
     710:	05170000 	ldreq	r0, [r7, #-0]
     714:	3a0e0300 	bcc	38131c <_Min_Stack_Size+0x380f1c>
     718:	49053b0b 	stmdbmi	r5, {r0, r1, r3, r8, r9, fp, ip, sp}
     71c:	00170213 	andseq	r0, r7, r3, lsl r2
     720:	00341800 	eorseq	r1, r4, r0, lsl #16
     724:	0b3a0e03 	bleq	e83f38 <_Min_Stack_Size+0xe83b38>
     728:	1349053b 	movtne	r0, #38203	; 0x953b
     72c:	00001702 	andeq	r1, r0, r2, lsl #14
     730:	55010b19 	strpl	r0, [r1, #-2841]	; 0xfffff4e7
     734:	00130117 	andseq	r0, r3, r7, lsl r1
     738:	00341a00 	eorseq	r1, r4, r0, lsl #20
     73c:	0b3a0e03 	bleq	e83f50 <_Min_Stack_Size+0xe83b50>
     740:	1349053b 	movtne	r0, #38203	; 0x953b
     744:	00001802 	andeq	r1, r0, r2, lsl #16
     748:	0182891b 	orreq	r8, r2, fp, lsl r9
     74c:	31011101 	tstcc	r1, r1, lsl #2
     750:	00130113 	andseq	r0, r3, r3, lsl r1
     754:	828a1c00 	addhi	r1, sl, #0, 24
     758:	18020001 	stmdane	r2, {r0}
     75c:	00184291 	mulseq	r8, r1, r2
     760:	82891d00 	addhi	r1, r9, #0, 26
     764:	01110001 	tsteq	r1, r1
     768:	00001331 	andeq	r1, r0, r1, lsr r3
     76c:	3f012e1e 	svccc	0x00012e1e
     770:	3a0e0319 	bcc	3813dc <_Min_Stack_Size+0x380fdc>
     774:	27053b0b 	strcs	r3, [r5, -fp, lsl #22]
     778:	12011119 	andne	r1, r1, #1073741830	; 0x40000006
     77c:	97184006 	ldrls	r4, [r8, -r6]
     780:	13011942 	movwne	r1, #6466	; 0x1942
     784:	891f0000 	ldmdbhi	pc, {}	; <UNPREDICTABLE>
     788:	11010182 	smlabbne	r1, r2, r1, r0
     78c:	00133101 	andseq	r3, r3, r1, lsl #2
     790:	002e2000 	eoreq	r2, lr, r0
     794:	0e03193f 	mcreq	9, 0, r1, cr3, cr15, {1}
     798:	053b0b3a 	ldreq	r0, [fp, #-2874]!	; 0xfffff4c6
     79c:	01111927 	tsteq	r1, r7, lsr #18
     7a0:	18400612 	stmdane	r0, {r1, r4, r9, sl}^
     7a4:	00194297 	mulseq	r9, r7, r2
     7a8:	012e2100 			; <UNDEFINED> instruction: 0x012e2100
     7ac:	0e03193f 	mcreq	9, 0, r1, cr3, cr15, {1}
     7b0:	053b0b3a 	ldreq	r0, [fp, #-2874]!	; 0xfffff4c6
     7b4:	13491927 	movtne	r1, #39207	; 0x9927
     7b8:	06120111 			; <UNDEFINED> instruction: 0x06120111
     7bc:	42961840 	addsmi	r1, r6, #64, 16	; 0x400000
     7c0:	00130119 	andseq	r0, r3, r9, lsl r1
     7c4:	00262200 	eoreq	r2, r6, r0, lsl #4
     7c8:	00001349 	andeq	r1, r0, r9, asr #6
     7cc:	31002e23 	tstcc	r0, r3, lsr #28
     7d0:	12011113 	andne	r1, r1, #-1073741820	; 0xc0000004
     7d4:	97184006 	ldrls	r4, [r8, -r6]
     7d8:	00001942 	andeq	r1, r0, r2, asr #18
     7dc:	3f002e24 	svccc	0x00002e24
     7e0:	3a0e0319 	bcc	38144c <_Min_Stack_Size+0x38104c>
     7e4:	27053b0b 	strcs	r3, [r5, -fp, lsl #22]
     7e8:	11134919 	tstne	r3, r9, lsl r9
     7ec:	40061201 	andmi	r1, r6, r1, lsl #4
     7f0:	19429718 	stmdbne	r2, {r3, r4, r8, r9, sl, ip, pc}^
     7f4:	34250000 	strtcc	r0, [r5], #-0
     7f8:	3a0e0300 	bcc	381400 <_Min_Stack_Size+0x381000>
     7fc:	490b3b0b 	stmdbmi	fp, {r0, r1, r3, r8, r9, fp, ip, sp}
     800:	3c193f13 	ldccc	15, cr3, [r9], {19}
     804:	26000019 			; <UNDEFINED> instruction: 0x26000019
     808:	193f012e 	ldmdbne	pc!, {r1, r2, r3, r5, r8}	; <UNPREDICTABLE>
     80c:	0b3a0e03 	bleq	e84020 <_Min_Stack_Size+0xe83c20>
     810:	1927053b 	stmdbne	r7!, {r0, r1, r3, r4, r5, r8, sl}
     814:	1301193c 	movwne	r1, #6460	; 0x193c
     818:	05270000 	streq	r0, [r7, #-0]!
     81c:	00134900 	andseq	r4, r3, r0, lsl #18
     820:	002e2800 	eoreq	r2, lr, r0, lsl #16
     824:	0e03193f 	mcreq	9, 0, r1, cr3, cr15, {1}
     828:	053b0b3a 	ldreq	r0, [fp, #-2874]!	; 0xfffff4c6
     82c:	13491927 	movtne	r1, #39207	; 0x9927
     830:	0000193c 	andeq	r1, r0, ip, lsr r9
     834:	3f012e29 	svccc	0x00012e29
     838:	270e0319 	smladcs	lr, r9, r3, r0
     83c:	34134919 	ldrcc	r4, [r3], #-2329	; 0xfffff6e7
     840:	01193c19 	tsteq	r9, r9, lsl ip
     844:	2a000013 	bcs	898 <_Min_Stack_Size+0x498>
     848:	00000026 	andeq	r0, r0, r6, lsr #32
     84c:	3f012e2b 	svccc	0x00012e2b
     850:	3a0e0319 	bcc	3814bc <_Min_Stack_Size+0x3810bc>
     854:	27053b0b 	strcs	r3, [r5, -fp, lsl #22]
     858:	3c134919 	ldccc	9, cr4, [r3], {25}
     85c:	00000019 	andeq	r0, r0, r9, lsl r0
     860:	25011101 	strcs	r1, [r1, #-257]	; 0xfffffeff
     864:	030b130e 	movweq	r1, #45838	; 0xb30e
     868:	550e1b0e 	strpl	r1, [lr, #-2830]	; 0xfffff4f2
     86c:	10011117 	andne	r1, r1, r7, lsl r1
     870:	02000017 	andeq	r0, r0, #23
     874:	0b0b0104 	bleq	2c0c8c <_Min_Stack_Size+0x2c088c>
     878:	0b3b0b3a 	bleq	ec3568 <_Min_Stack_Size+0xec3168>
     87c:	00001301 	andeq	r1, r0, r1, lsl #6
     880:	03002803 	movweq	r2, #2051	; 0x803
     884:	000d1c0e 	andeq	r1, sp, lr, lsl #24
     888:	00160400 	andseq	r0, r6, r0, lsl #8
     88c:	0b3a0e03 	bleq	e840a0 <_Min_Stack_Size+0xe83ca0>
     890:	13490b3b 	movtne	r0, #39739	; 0x9b3b
     894:	24050000 	strcs	r0, [r5], #-0
     898:	3e0b0b00 	vmlacc.f64	d0, d11, d0
     89c:	000e030b 	andeq	r0, lr, fp, lsl #6
     8a0:	00240600 	eoreq	r0, r4, r0, lsl #12
     8a4:	0b3e0b0b 	bleq	f834d8 <_Min_Stack_Size+0xf830d8>
     8a8:	00000803 	andeq	r0, r0, r3, lsl #16
     8ac:	0b011307 	bleq	454d0 <_Min_Stack_Size+0x450d0>
     8b0:	3b0b3a05 	blcc	2cf0cc <_Min_Stack_Size+0x2ceccc>
     8b4:	00130105 	andseq	r0, r3, r5, lsl #2
     8b8:	000d0800 	andeq	r0, sp, r0, lsl #16
     8bc:	0b3a0e03 	bleq	e840d0 <_Min_Stack_Size+0xe83cd0>
     8c0:	1349053b 	movtne	r0, #38203	; 0x953b
     8c4:	00000b38 	andeq	r0, r0, r8, lsr fp
     8c8:	03000d09 	movweq	r0, #3337	; 0xd09
     8cc:	3b0b3a0e 	blcc	2cf10c <_Min_Stack_Size+0x2ced0c>
     8d0:	38134905 	ldmdacc	r3, {r0, r2, r8, fp, lr}
     8d4:	0a000005 	beq	8f0 <_Min_Stack_Size+0x4f0>
     8d8:	0803000d 	stmdaeq	r3, {r0, r2, r3}
     8dc:	053b0b3a 	ldreq	r0, [fp, #-2874]!	; 0xfffff4c6
     8e0:	05381349 	ldreq	r1, [r8, #-841]!	; 0xfffffcb7
     8e4:	010b0000 	mrseq	r0, (UNDEF: 11)
     8e8:	01134901 	tsteq	r3, r1, lsl #18
     8ec:	0c000013 	stceq	0, cr0, [r0], {19}
     8f0:	13490021 	movtne	r0, #36897	; 0x9021
     8f4:	00000b2f 	andeq	r0, r0, pc, lsr #22
     8f8:	4900350d 	stmdbmi	r0, {r0, r2, r3, r8, sl, ip, sp}
     8fc:	0e000013 	mcreq	0, 0, r0, cr0, cr3, {0}
     900:	0e030016 	mcreq	0, 0, r0, cr3, cr6, {0}
     904:	053b0b3a 	ldreq	r0, [fp, #-2874]!	; 0xfffff4c6
     908:	00001349 	andeq	r1, r0, r9, asr #6
     90c:	0b01130f 	bleq	45550 <_Min_Stack_Size+0x45150>
     910:	3b0b3a0b 	blcc	2cf144 <_Min_Stack_Size+0x2ced44>
     914:	00130105 	andseq	r0, r3, r5, lsl #2
     918:	000d1000 	andeq	r1, sp, r0
     91c:	0b3a0803 	bleq	e82930 <_Min_Stack_Size+0xe82530>
     920:	1349053b 	movtne	r0, #38203	; 0x953b
     924:	00000b38 	andeq	r0, r0, r8, lsr fp
     928:	49002611 	stmdbmi	r0, {r0, r4, r9, sl, sp}
     92c:	12000013 	andne	r0, r0, #19
     930:	0b0b000f 	bleq	2c0974 <_Min_Stack_Size+0x2c0574>
     934:	00001349 	andeq	r1, r0, r9, asr #6
     938:	03012e13 	movweq	r2, #7699	; 0x1e13
     93c:	3b0b3a0e 	blcc	2cf17c <_Min_Stack_Size+0x2ced7c>
     940:	20192705 	andscs	r2, r9, r5, lsl #14
     944:	0013010b 	andseq	r0, r3, fp, lsl #2
     948:	00051400 	andeq	r1, r5, r0, lsl #8
     94c:	0b3a0e03 	bleq	e84160 <_Min_Stack_Size+0xe83d60>
     950:	1349053b 	movtne	r0, #38203	; 0x953b
     954:	2e150000 	cdpcs	0, 1, cr0, cr5, cr0, {0}
     958:	3a0e0300 	bcc	381560 <_Min_Stack_Size+0x381160>
     95c:	27053b0b 	strcs	r3, [r5, -fp, lsl #22]
     960:	000b2019 	andeq	r2, fp, r9, lsl r0
     964:	012e1600 			; <UNDEFINED> instruction: 0x012e1600
     968:	0e03193f 	mcreq	9, 0, r1, cr3, cr15, {1}
     96c:	0b3b0b3a 	bleq	ec365c <_Min_Stack_Size+0xec325c>
     970:	01111927 	tsteq	r1, r7, lsr #18
     974:	18400612 	stmdane	r0, {r1, r4, r9, sl}^
     978:	01194297 			; <UNDEFINED> instruction: 0x01194297
     97c:	17000013 	smladne	r0, r3, r0, r0
     980:	0e030005 	cdpeq	0, 0, cr0, cr3, cr5, {0}
     984:	0b3b0b3a 	bleq	ec3674 <_Min_Stack_Size+0xec3274>
     988:	17021349 	strne	r1, [r2, -r9, asr #6]
     98c:	1d180000 	ldcne	0, cr0, [r8, #-0]
     990:	11133101 	tstne	r3, r1, lsl #2
     994:	58061201 	stmdapl	r6, {r0, r9, ip}
     998:	010b590b 	tsteq	fp, fp, lsl #18
     99c:	19000013 	stmdbne	r0, {r0, r1, r4}
     9a0:	13310005 	teqne	r1, #5
     9a4:	00001702 	andeq	r1, r0, r2, lsl #14
     9a8:	11010b1a 	tstne	r1, sl, lsl fp
     9ac:	00061201 	andeq	r1, r6, r1, lsl #4
     9b0:	82891b00 	addhi	r1, r9, #0, 22
     9b4:	01110101 	tsteq	r1, r1, lsl #2
     9b8:	00001331 	andeq	r1, r0, r1, lsr r3
     9bc:	01828a1c 	orreq	r8, r2, ip, lsl sl
     9c0:	91180200 	tstls	r8, r0, lsl #4
     9c4:	00001842 	andeq	r1, r0, r2, asr #16
     9c8:	31011d1d 	tstcc	r1, sp, lsl sp
     9cc:	55015213 	strpl	r5, [r1, #-531]	; 0xfffffded
     9d0:	590b5817 	stmdbpl	fp, {r0, r1, r2, r4, fp, ip, lr}
     9d4:	0013010b 	andseq	r0, r3, fp, lsl #2
     9d8:	011d1e00 	tsteq	sp, r0, lsl #28
     9dc:	01111331 	tsteq	r1, r1, lsr r3
     9e0:	0b580612 	bleq	1602230 <_Min_Stack_Size+0x1601e30>
     9e4:	00000b59 	andeq	r0, r0, r9, asr fp
     9e8:	31001d1f 	tstcc	r0, pc, lsl sp
     9ec:	12011113 	andne	r1, r1, #-1073741820	; 0xc0000004
     9f0:	590b5806 	stmdbpl	fp, {r1, r2, fp, ip, lr}
     9f4:	20000005 	andcs	r0, r0, r5
     9f8:	0e03012e 	adfeqsp	f0, f3, #0.5
     9fc:	053b0b3a 	ldreq	r0, [fp, #-2874]!	; 0xfffff4c6
     a00:	13491927 	movtne	r1, #39207	; 0x9927
     a04:	13010b20 	movwne	r0, #6944	; 0x1b20
     a08:	2e210000 	cdpcs	0, 2, cr0, cr1, cr0, {0}
     a0c:	03193f01 	tsteq	r9, #1, 30
     a10:	3b0b3a0e 	blcc	2cf250 <_Min_Stack_Size+0x2cee50>
     a14:	4919270b 	ldmdbmi	r9, {r0, r1, r3, r8, r9, sl, sp}
     a18:	12011113 	andne	r1, r1, #-1073741820	; 0xc0000004
     a1c:	97184006 	ldrls	r4, [r8, -r6]
     a20:	13011942 	movwne	r1, #6466	; 0x1942
     a24:	1d220000 	stcne	0, cr0, [r2, #-0]
     a28:	52133101 	andspl	r3, r3, #1073741824	; 0x40000000
     a2c:	58175501 	ldmdapl	r7, {r0, r8, sl, ip, lr}
     a30:	0005590b 	andeq	r5, r5, fp, lsl #18
     a34:	010b2300 	mrseq	r2, (UNDEF: 59)
     a38:	00001755 	andeq	r1, r0, r5, asr r7
     a3c:	31011d24 	tstcc	r1, r4, lsr #26
     a40:	55015213 	strpl	r5, [r1, #-531]	; 0xfffffded
     a44:	590b5817 	stmdbpl	fp, {r0, r1, r2, r4, fp, ip, lr}
     a48:	00130105 	andseq	r0, r3, r5, lsl #2
     a4c:	012e2500 			; <UNDEFINED> instruction: 0x012e2500
     a50:	0e03193f 	mcreq	9, 0, r1, cr3, cr15, {1}
     a54:	053b0b3a 	ldreq	r0, [fp, #-2874]!	; 0xfffff4c6
     a58:	13491927 	movtne	r1, #39207	; 0x9927
     a5c:	06120111 			; <UNDEFINED> instruction: 0x06120111
     a60:	42971840 	addsmi	r1, r7, #64, 16	; 0x400000
     a64:	00130119 	andseq	r0, r3, r9, lsl r1
     a68:	00052600 	andeq	r2, r5, r0, lsl #12
     a6c:	0b3a0e03 	bleq	e84280 <_Min_Stack_Size+0xe83e80>
     a70:	1349053b 	movtne	r0, #38203	; 0x953b
     a74:	00001702 	andeq	r1, r0, r2, lsl #14
     a78:	3f012e27 	svccc	0x00012e27
     a7c:	3a0e0319 	bcc	3816e8 <_Min_Stack_Size+0x3812e8>
     a80:	27053b0b 	strcs	r3, [r5, -fp, lsl #22]
     a84:	12011119 	andne	r1, r1, #1073741830	; 0x40000006
     a88:	97184006 	ldrls	r4, [r8, -r6]
     a8c:	13011942 	movwne	r1, #6466	; 0x1942
     a90:	1d280000 	stcne	0, cr0, [r8, #-0]
     a94:	11133101 	tstne	r3, r1, lsl #2
     a98:	58061201 	stmdapl	r6, {r0, r9, ip}
     a9c:	0105590b 	tsteq	r5, fp, lsl #18
     aa0:	29000013 	stmdbcs	r0, {r0, r1, r4}
     aa4:	193f002e 	ldmdbne	pc!, {r1, r2, r3, r5}	; <UNPREDICTABLE>
     aa8:	0b3a0e03 	bleq	e842bc <_Min_Stack_Size+0xe83ebc>
     aac:	1927053b 	stmdbne	r7!, {r0, r1, r3, r4, r5, r8, sl}
     ab0:	06120111 			; <UNDEFINED> instruction: 0x06120111
     ab4:	42971840 	addsmi	r1, r7, #64, 16	; 0x400000
     ab8:	2a000019 	bcs	b24 <_Min_Stack_Size+0x724>
     abc:	00018289 	andeq	r8, r1, r9, lsl #5
     ac0:	13310111 	teqne	r1, #1073741828	; 0x40000004
     ac4:	2e2b0000 	cdpcs	0, 2, cr0, cr11, cr0, {0}
     ac8:	03193f01 	tsteq	r9, #1, 30
     acc:	3b0b3a0e 	blcc	2cf30c <_Min_Stack_Size+0x2cef0c>
     ad0:	3c192705 	ldccc	7, cr2, [r9], {5}
     ad4:	2c000019 	stccs	0, cr0, [r0], {25}
     ad8:	13490005 	movtne	r0, #36869	; 0x9005
     adc:	01000000 	mrseq	r0, (UNDEF: 0)
     ae0:	0e250111 	mcreq	1, 1, r0, cr5, cr1, {0}
     ae4:	0e030b13 	vmoveq.32	d3[0], r0
     ae8:	17550e1b 	smmlane	r5, fp, lr, r0
     aec:	17100111 			; <UNDEFINED> instruction: 0x17100111
     af0:	04020000 	streq	r0, [r2], #-0
     af4:	3a0b0b01 	bcc	2c3700 <_Min_Stack_Size+0x2c3300>
     af8:	010b3b0b 	tsteq	fp, fp, lsl #22
     afc:	03000013 	movweq	r0, #19
     b00:	0e030028 	cdpeq	0, 0, cr0, cr3, cr8, {1}
     b04:	00000d1c 	andeq	r0, r0, ip, lsl sp
     b08:	03001604 	movweq	r1, #1540	; 0x604
     b0c:	3b0b3a0e 	blcc	2cf34c <_Min_Stack_Size+0x2cef4c>
     b10:	0013490b 	andseq	r4, r3, fp, lsl #18
     b14:	00240500 	eoreq	r0, r4, r0, lsl #10
     b18:	0b3e0b0b 	bleq	f8374c <_Min_Stack_Size+0xf8334c>
     b1c:	00000e03 	andeq	r0, r0, r3, lsl #28
     b20:	0b002406 	bleq	9b40 <_Min_Stack_Size+0x9740>
     b24:	030b3e0b 	movweq	r3, #48651	; 0xbe0b
     b28:	07000008 	streq	r0, [r0, -r8]
     b2c:	13490035 	movtne	r0, #36917	; 0x9035
     b30:	01080000 	mrseq	r0, (UNDEF: 8)
     b34:	01134901 	tsteq	r3, r1, lsl #18
     b38:	09000013 	stmdbeq	r0, {r0, r1, r4}
     b3c:	13490021 	movtne	r0, #36897	; 0x9021
     b40:	00000b2f 	andeq	r0, r0, pc, lsr #22
     b44:	0b01130a 	bleq	45774 <_Min_Stack_Size+0x45374>
     b48:	3b0b3a0b 	blcc	2cf37c <_Min_Stack_Size+0x2cef7c>
     b4c:	00130105 	andseq	r0, r3, r5, lsl #2
     b50:	000d0b00 	andeq	r0, sp, r0, lsl #22
     b54:	0b3a0e03 	bleq	e84368 <_Min_Stack_Size+0xe83f68>
     b58:	1349053b 	movtne	r0, #38203	; 0x953b
     b5c:	00000b38 	andeq	r0, r0, r8, lsr fp
     b60:	03000d0c 	movweq	r0, #3340	; 0xd0c
     b64:	3b0b3a08 	blcc	2cf38c <_Min_Stack_Size+0x2cef8c>
     b68:	38134905 	ldmdacc	r3, {r0, r2, r8, fp, lr}
     b6c:	0d00000b 	stceq	0, cr0, [r0, #-44]	; 0xffffffd4
     b70:	0e030016 	mcreq	0, 0, r0, cr3, cr6, {0}
     b74:	053b0b3a 	ldreq	r0, [fp, #-2874]!	; 0xfffff4c6
     b78:	00001349 	andeq	r1, r0, r9, asr #6
     b7c:	0b01130e 	bleq	457bc <_Min_Stack_Size+0x453bc>
     b80:	3b0b3a0b 	blcc	2cf3b4 <_Min_Stack_Size+0x2cefb4>
     b84:	0013010b 	andseq	r0, r3, fp, lsl #2
     b88:	000d0f00 	andeq	r0, sp, r0, lsl #30
     b8c:	0b3a0803 	bleq	e82ba0 <_Min_Stack_Size+0xe827a0>
     b90:	13490b3b 	movtne	r0, #39739	; 0x9b3b
     b94:	00000b38 	andeq	r0, r0, r8, lsr fp
     b98:	03000d10 	movweq	r0, #3344	; 0xd10
     b9c:	3b0b3a0e 	blcc	2cf3dc <_Min_Stack_Size+0x2cefdc>
     ba0:	3813490b 	ldmdacc	r3, {r0, r1, r3, r8, fp, lr}
     ba4:	1100000b 	tstne	r0, fp
     ba8:	193f002e 	ldmdbne	pc!, {r1, r2, r3, r5}	; <UNPREDICTABLE>
     bac:	0b3a0e03 	bleq	e843c0 <_Min_Stack_Size+0xe83fc0>
     bb0:	19270b3b 	stmdbne	r7!, {r0, r1, r3, r4, r5, r8, r9, fp}
     bb4:	01111349 	tsteq	r1, r9, asr #6
     bb8:	18400612 	stmdane	r0, {r1, r4, r9, sl}^
     bbc:	00194297 	mulseq	r9, r7, r2
     bc0:	012e1200 			; <UNDEFINED> instruction: 0x012e1200
     bc4:	0e03193f 	mcreq	9, 0, r1, cr3, cr15, {1}
     bc8:	0b3b0b3a 	bleq	ec38b8 <_Min_Stack_Size+0xec34b8>
     bcc:	01111927 	tsteq	r1, r7, lsr #18
     bd0:	18400612 	stmdane	r0, {r1, r4, r9, sl}^
     bd4:	01194297 			; <UNDEFINED> instruction: 0x01194297
     bd8:	13000013 	movwne	r0, #19
     bdc:	08030005 	stmdaeq	r3, {r0, r2}
     be0:	0b3b0b3a 	bleq	ec38d0 <_Min_Stack_Size+0xec34d0>
     be4:	17021349 	strne	r1, [r2, -r9, asr #6]
     be8:	34140000 	ldrcc	r0, [r4], #-0
     bec:	3a0e0300 	bcc	3817f4 <_Min_Stack_Size+0x3813f4>
     bf0:	490b3b0b 	stmdbmi	fp, {r0, r1, r3, r8, r9, fp, ip, sp}
     bf4:	00180213 	andseq	r0, r8, r3, lsl r2
     bf8:	010b1500 	tsteq	fp, r0, lsl #10
     bfc:	06120111 			; <UNDEFINED> instruction: 0x06120111
     c00:	00001301 	andeq	r1, r0, r1, lsl #6
     c04:	01828916 	orreq	r8, r2, r6, lsl r9
     c08:	31011101 	tstcc	r1, r1, lsl #2
     c0c:	00130113 	andseq	r0, r3, r3, lsl r1
     c10:	828a1700 	addhi	r1, sl, #0, 14
     c14:	18020001 	stmdane	r2, {r0}
     c18:	00184291 	mulseq	r8, r1, r2
     c1c:	82891800 	addhi	r1, r9, #0, 16
     c20:	01110101 	tsteq	r1, r1, lsl #2
     c24:	00001331 	andeq	r1, r0, r1, lsr r3
     c28:	01828919 	orreq	r8, r2, r9, lsl r9
     c2c:	31011100 	mrscc	r1, (UNDEF: 17)
     c30:	1a000013 	bne	c84 <_Min_Stack_Size+0x884>
     c34:	0e030005 	cdpeq	0, 0, cr0, cr3, cr5, {0}
     c38:	0b3b0b3a 	bleq	ec3928 <_Min_Stack_Size+0xec3528>
     c3c:	17021349 	strne	r1, [r2, -r9, asr #6]
     c40:	341b0000 	ldrcc	r0, [fp], #-0
     c44:	3a0e0300 	bcc	38184c <_Min_Stack_Size+0x38144c>
     c48:	49053b0b 	stmdbmi	r5, {r0, r1, r3, r8, r9, fp, ip, sp}
     c4c:	00180213 	andseq	r0, r8, r3, lsl r2
     c50:	010b1c00 	tsteq	fp, r0, lsl #24
     c54:	13011755 	movwne	r1, #5973	; 0x1755
     c58:	2e1d0000 	cdpcs	0, 1, cr0, cr13, cr0, {0}
     c5c:	03193f01 	tsteq	r9, #1, 30
     c60:	3b0b3a0e 	blcc	2cf4a0 <_Min_Stack_Size+0x2cf0a0>
     c64:	49192705 	ldmdbmi	r9, {r0, r2, r8, r9, sl, sp}
     c68:	12011113 	andne	r1, r1, #-1073741820	; 0xc0000004
     c6c:	97184006 	ldrls	r4, [r8, -r6]
     c70:	13011942 	movwne	r1, #6466	; 0x1942
     c74:	051e0000 	ldreq	r0, [lr, #-0]
     c78:	3a0e0300 	bcc	381880 <_Min_Stack_Size+0x381480>
     c7c:	49053b0b 	stmdbmi	r5, {r0, r1, r3, r8, r9, fp, ip, sp}
     c80:	00170213 	andseq	r0, r7, r3, lsl r2
     c84:	000f1f00 	andeq	r1, pc, r0, lsl #30
     c88:	13490b0b 	movtne	r0, #39691	; 0x9b0b
     c8c:	34200000 	strtcc	r0, [r0], #-0
     c90:	3a0e0300 	bcc	381898 <_Min_Stack_Size+0x381498>
     c94:	490b3b0b 	stmdbmi	fp, {r0, r1, r3, r8, r9, fp, ip, sp}
     c98:	02193f13 	andseq	r3, r9, #19, 30	; 0x4c
     c9c:	21000018 	tstcs	r0, r8, lsl r0
     ca0:	13490026 	movtne	r0, #36902	; 0x9026
     ca4:	2e220000 	cdpcs	0, 2, cr0, cr2, cr0, {0}
     ca8:	03193f01 	tsteq	r9, #1, 30
     cac:	3b0b3a0e 	blcc	2cf4ec <_Min_Stack_Size+0x2cf0ec>
     cb0:	3c192705 	ldccc	7, cr2, [r9], {5}
     cb4:	00130119 	andseq	r0, r3, r9, lsl r1
     cb8:	00052300 	andeq	r2, r5, r0, lsl #6
     cbc:	00001349 	andeq	r1, r0, r9, asr #6
     cc0:	3f012e24 	svccc	0x00012e24
     cc4:	3a0e0319 	bcc	381930 <_Min_Stack_Size+0x381530>
     cc8:	270b3b0b 	strcs	r3, [fp, -fp, lsl #22]
     ccc:	01193c19 	tsteq	r9, r9, lsl ip
     cd0:	25000013 	strcs	r0, [r0, #-19]	; 0xffffffed
     cd4:	193f012e 	ldmdbne	pc!, {r1, r2, r3, r5, r8}	; <UNPREDICTABLE>
     cd8:	0b3a0e03 	bleq	e844ec <_Min_Stack_Size+0xe840ec>
     cdc:	1927053b 	stmdbne	r7!, {r0, r1, r3, r4, r5, r8, sl}
     ce0:	193c1349 	ldmdbne	ip!, {r0, r3, r6, r8, r9, ip}
     ce4:	01000000 	mrseq	r0, (UNDEF: 0)
     ce8:	0e250111 	mcreq	1, 1, r0, cr5, cr1, {0}
     cec:	0e030b13 	vmoveq.32	d3[0], r0
     cf0:	17550e1b 	smmlane	r5, fp, lr, r0
     cf4:	17100111 			; <UNDEFINED> instruction: 0x17100111
     cf8:	24020000 	strcs	r0, [r2], #-0
     cfc:	3e0b0b00 	vmlacc.f64	d0, d11, d0
     d00:	000e030b 	andeq	r0, lr, fp, lsl #6
     d04:	00160300 	andseq	r0, r6, r0, lsl #6
     d08:	0b3a0e03 	bleq	e8451c <_Min_Stack_Size+0xe8411c>
     d0c:	13490b3b 	movtne	r0, #39739	; 0x9b3b
     d10:	24040000 	strcs	r0, [r4], #-0
     d14:	3e0b0b00 	vmlacc.f64	d0, d11, d0
     d18:	0008030b 	andeq	r0, r8, fp, lsl #6
     d1c:	00350500 	eorseq	r0, r5, r0, lsl #10
     d20:	00001349 	andeq	r1, r0, r9, asr #6
     d24:	0b011306 	bleq	45944 <_Min_Stack_Size+0x45544>
     d28:	3b0b3a0b 	blcc	2cf55c <_Min_Stack_Size+0x2cf15c>
     d2c:	00130105 	andseq	r0, r3, r5, lsl #2
     d30:	000d0700 	andeq	r0, sp, r0, lsl #14
     d34:	0b3a0803 	bleq	e82d48 <_Min_Stack_Size+0xe82948>
     d38:	1349053b 	movtne	r0, #38203	; 0x953b
     d3c:	00000b38 	andeq	r0, r0, r8, lsr fp
     d40:	03000d08 	movweq	r0, #3336	; 0xd08
     d44:	3b0b3a0e 	blcc	2cf584 <_Min_Stack_Size+0x2cf184>
     d48:	38134905 	ldmdacc	r3, {r0, r2, r8, fp, lr}
     d4c:	0900000b 	stmdbeq	r0, {r0, r1, r3}
     d50:	0e030016 	mcreq	0, 0, r0, cr3, cr6, {0}
     d54:	053b0b3a 	ldreq	r0, [fp, #-2874]!	; 0xfffff4c6
     d58:	00001349 	andeq	r1, r0, r9, asr #6
     d5c:	3f002e0a 	svccc	0x00002e0a
     d60:	3a0e0319 	bcc	3819cc <_Min_Stack_Size+0x3815cc>
     d64:	270b3b0b 	strcs	r3, [fp, -fp, lsl #22]
     d68:	12011119 	andne	r1, r1, #1073741830	; 0x40000006
     d6c:	97184006 	ldrls	r4, [r8, -r6]
     d70:	00001942 	andeq	r1, r0, r2, asr #18
     d74:	3f012e0b 	svccc	0x00012e0b
     d78:	3a0e0319 	bcc	3819e4 <_Min_Stack_Size+0x3815e4>
     d7c:	27053b0b 	strcs	r3, [r5, -fp, lsl #22]
     d80:	12011119 	andne	r1, r1, #1073741830	; 0x40000006
     d84:	96184006 	ldrls	r4, [r8], -r6
     d88:	13011942 	movwne	r1, #6466	; 0x1942
     d8c:	340c0000 	strcc	r0, [ip], #-0
     d90:	3a080300 	bcc	201998 <_Min_Stack_Size+0x201598>
     d94:	49053b0b 	stmdbmi	r5, {r0, r1, r3, r8, r9, fp, ip, sp}
     d98:	00170213 	andseq	r0, r7, r3, lsl r2
     d9c:	00340d00 	eorseq	r0, r4, r0, lsl #26
     da0:	0b3a0e03 	bleq	e845b4 <_Min_Stack_Size+0xe841b4>
     da4:	1349053b 	movtne	r0, #38203	; 0x953b
     da8:	00001702 	andeq	r1, r0, r2, lsl #14
     dac:	0300340e 	movweq	r3, #1038	; 0x40e
     db0:	3b0b3a0e 	blcc	2cf5f0 <_Min_Stack_Size+0x2cf1f0>
     db4:	3f13490b 	svccc	0x0013490b
     db8:	00180219 	andseq	r0, r8, r9, lsl r2
     dbc:	01010f00 	tsteq	r1, r0, lsl #30
     dc0:	13011349 	movwne	r1, #4937	; 0x1349
     dc4:	21100000 	tstcs	r0, r0
     dc8:	2f134900 	svccs	0x00134900
     dcc:	1100000b 	tstne	r0, fp
     dd0:	13490026 	movtne	r0, #36902	; 0x9026
     dd4:	01000000 	mrseq	r0, (UNDEF: 0)
     dd8:	06100011 			; <UNDEFINED> instruction: 0x06100011
     ddc:	08030655 	stmdaeq	r3, {r0, r2, r4, r6, r9, sl}
     de0:	0825081b 	stmdaeq	r5!, {r0, r1, r3, r4, fp}
     de4:	00000513 	andeq	r0, r0, r3, lsl r5
     de8:	00110100 	andseq	r0, r1, r0, lsl #2
     dec:	01110610 	tsteq	r1, r0, lsl r6
     df0:	08030112 	stmdaeq	r3, {r1, r4, r8}
     df4:	0825081b 	stmdaeq	r5!, {r0, r1, r3, r4, fp}
     df8:	00000513 	andeq	r0, r0, r3, lsl r5
     dfc:	00110100 	andseq	r0, r1, r0, lsl #2
     e00:	01110610 	tsteq	r1, r0, lsl r6
     e04:	08030112 	stmdaeq	r3, {r1, r4, r8}
     e08:	0825081b 	stmdaeq	r5!, {r0, r1, r3, r4, fp}
     e0c:	00000513 	andeq	r0, r0, r3, lsl r5
     e10:	01110100 	tsteq	r1, r0, lsl #2
     e14:	0b130e25 	bleq	4c46b0 <_Min_Stack_Size+0x4c42b0>
     e18:	0e1b0e03 	cdpeq	14, 1, cr0, cr11, cr3, {0}
     e1c:	01111755 	tsteq	r1, r5, asr r7
     e20:	00001710 	andeq	r1, r0, r0, lsl r7
     e24:	0b002402 	bleq	9e34 <_Min_Stack_Size+0x9a34>
     e28:	030b3e0b 	movweq	r3, #48651	; 0xbe0b
     e2c:	0300000e 	movweq	r0, #14
     e30:	0b0b0024 	bleq	2c0ec8 <_Min_Stack_Size+0x2c0ac8>
     e34:	08030b3e 	stmdaeq	r3, {r1, r2, r3, r4, r5, r8, r9, fp}
     e38:	0f040000 	svceq	0x00040000
     e3c:	000b0b00 	andeq	r0, fp, r0, lsl #22
     e40:	000f0500 	andeq	r0, pc, r0, lsl #10
     e44:	13490b0b 	movtne	r0, #39691	; 0x9b0b
     e48:	15060000 	strne	r0, [r6, #-0]
     e4c:	00192700 	andseq	r2, r9, r0, lsl #14
     e50:	01040700 	tsteq	r4, r0, lsl #14
     e54:	0b0b0e03 	bleq	2c4668 <_Min_Stack_Size+0x2c4268>
     e58:	0b3b0b3a 	bleq	ec3b48 <_Min_Stack_Size+0xec3748>
     e5c:	00001301 	andeq	r1, r0, r1, lsl #6
     e60:	03002808 	movweq	r2, #2056	; 0x808
     e64:	000d1c0e 	andeq	r1, sp, lr, lsl #24
     e68:	012e0900 			; <UNDEFINED> instruction: 0x012e0900
     e6c:	0e03193f 	mcreq	9, 0, r1, cr3, cr15, {1}
     e70:	0b3b0b3a 	bleq	ec3b60 <_Min_Stack_Size+0xec3760>
     e74:	13491927 	movtne	r1, #39207	; 0x9927
     e78:	06120111 			; <UNDEFINED> instruction: 0x06120111
     e7c:	42971840 	addsmi	r1, r7, #64, 16	; 0x400000
     e80:	00130119 	andseq	r0, r3, r9, lsl r1
     e84:	00050a00 	andeq	r0, r5, r0, lsl #20
     e88:	0b3a0803 	bleq	e82e9c <_Min_Stack_Size+0xe82a9c>
     e8c:	13490b3b 	movtne	r0, #39739	; 0x9b3b
     e90:	00001702 	andeq	r1, r0, r2, lsl #14
     e94:	0182890b 	orreq	r8, r2, fp, lsl #18
     e98:	31011101 	tstcc	r1, r1, lsl #2
     e9c:	0c000013 	stceq	0, cr0, [r0], {19}
     ea0:	0001828a 	andeq	r8, r1, sl, lsl #5
     ea4:	42911802 	addsmi	r1, r1, #131072	; 0x20000
     ea8:	0d000018 	stceq	0, cr0, [r0, #-96]	; 0xffffffa0
     eac:	193f012e 	ldmdbne	pc!, {r1, r2, r3, r5, r8}	; <UNPREDICTABLE>
     eb0:	0b3a0e03 	bleq	e846c4 <_Min_Stack_Size+0xe842c4>
     eb4:	19270b3b 	stmdbne	r7!, {r0, r1, r3, r4, r5, r8, r9, fp}
     eb8:	193c1349 	ldmdbne	ip!, {r0, r3, r6, r8, r9, ip}
     ebc:	050e0000 	streq	r0, [lr, #-0]
     ec0:	00134900 	andseq	r4, r3, r0, lsl #18
     ec4:	11010000 	mrsne	r0, (UNDEF: 1)
     ec8:	130e2501 	movwne	r2, #58625	; 0xe501
     ecc:	1b0e030b 	blne	381b00 <_Min_Stack_Size+0x381700>
     ed0:	1117550e 	tstne	r7, lr, lsl #10
     ed4:	00171001 	andseq	r1, r7, r1
     ed8:	00240200 	eoreq	r0, r4, r0, lsl #4
     edc:	0b3e0b0b 	bleq	f83b10 <_Min_Stack_Size+0xf83710>
     ee0:	00000e03 	andeq	r0, r0, r3, lsl #28
     ee4:	0b002403 	bleq	9ef8 <_Min_Stack_Size+0x9af8>
     ee8:	030b3e0b 	movweq	r3, #48651	; 0xbe0b
     eec:	04000008 	streq	r0, [r0], #-8
     ef0:	0e030016 	mcreq	0, 0, r0, cr3, cr6, {0}
     ef4:	0b3b0b3a 	bleq	ec3be4 <_Min_Stack_Size+0xec37e4>
     ef8:	00001349 	andeq	r1, r0, r9, asr #6
     efc:	3f012e05 	svccc	0x00012e05
     f00:	3a0e0319 	bcc	381b6c <_Min_Stack_Size+0x38176c>
     f04:	270b3b0b 	strcs	r3, [fp, -fp, lsl #22]
     f08:	12011119 	andne	r1, r1, #1073741830	; 0x40000006
     f0c:	96184006 	ldrls	r4, [r8], -r6
     f10:	13011942 	movwne	r1, #6466	; 0x1942
     f14:	34060000 	strcc	r0, [r6], #-0
     f18:	3a0e0300 	bcc	381b20 <_Min_Stack_Size+0x381720>
     f1c:	490b3b0b 	stmdbmi	fp, {r0, r1, r3, r8, r9, fp, ip, sp}
     f20:	00170213 	andseq	r0, r7, r3, lsl r2
     f24:	00340700 	eorseq	r0, r4, r0, lsl #14
     f28:	0b3a0803 	bleq	e82f3c <_Min_Stack_Size+0xe82b3c>
     f2c:	13490b3b 	movtne	r0, #39739	; 0x9b3b
     f30:	00001702 	andeq	r1, r0, r2, lsl #14
     f34:	01828908 	orreq	r8, r2, r8, lsl #18
     f38:	31011100 	mrscc	r1, (UNDEF: 17)
     f3c:	09000013 	stmdbeq	r0, {r0, r1, r4}
     f40:	13490101 	movtne	r0, #37121	; 0x9101
     f44:	00001301 	andeq	r1, r0, r1, lsl #6
     f48:	0000210a 	andeq	r2, r0, sl, lsl #2
     f4c:	000f0b00 	andeq	r0, pc, r0, lsl #22
     f50:	13490b0b 	movtne	r0, #39691	; 0x9b0b
     f54:	150c0000 	strne	r0, [ip, #-0]
     f58:	00192700 	andseq	r2, r9, r0, lsl #14
     f5c:	00340d00 	eorseq	r0, r4, r0, lsl #26
     f60:	0b3a0e03 	bleq	e84774 <_Min_Stack_Size+0xe84374>
     f64:	13490b3b 	movtne	r0, #39739	; 0x9b3b
     f68:	193c193f 	ldmdbne	ip!, {r0, r1, r2, r3, r4, r5, r8, fp, ip}
     f6c:	2e0e0000 	cdpcs	0, 0, cr0, cr14, cr0, {0}
     f70:	03193f00 	tsteq	r9, #0, 30
     f74:	3b0b3a0e 	blcc	2cf7b4 <_Min_Stack_Size+0x2cf3b4>
     f78:	3c19270b 	ldccc	7, cr2, [r9], {11}
     f7c:	00000019 	andeq	r0, r0, r9, lsl r0
     f80:	25011101 	strcs	r1, [r1, #-257]	; 0xfffffeff
     f84:	030b130e 	movweq	r1, #45838	; 0xb30e
     f88:	100e1b0e 	andne	r1, lr, lr, lsl #22
     f8c:	02000017 	andeq	r0, r0, #23
     f90:	0b0b0024 	bleq	2c1028 <_Min_Stack_Size+0x2c0c28>
     f94:	08030b3e 	stmdaeq	r3, {r1, r2, r3, r4, r5, r8, r9, fp}
     f98:	24030000 	strcs	r0, [r3], #-0
     f9c:	3e0b0b00 	vmlacc.f64	d0, d11, d0
     fa0:	000e030b 	andeq	r0, lr, fp, lsl #6
     fa4:	00160400 	andseq	r0, r6, r0, lsl #8
     fa8:	0b3a0e03 	bleq	e847bc <_Min_Stack_Size+0xe843bc>
     fac:	13490b3b 	movtne	r0, #39739	; 0x9b3b
     fb0:	16050000 	strne	r0, [r5], -r0
     fb4:	3a0e0300 	bcc	381bbc <_Min_Stack_Size+0x3817bc>
     fb8:	49053b0b 	stmdbmi	r5, {r0, r1, r3, r8, r9, fp, ip, sp}
     fbc:	06000013 			; <UNDEFINED> instruction: 0x06000013
     fc0:	0b0b0117 	bleq	2c1424 <_Min_Stack_Size+0x2c1024>
     fc4:	0b3b0b3a 	bleq	ec3cb4 <_Min_Stack_Size+0xec38b4>
     fc8:	00001301 	andeq	r1, r0, r1, lsl #6
     fcc:	03000d07 	movweq	r0, #3335	; 0xd07
     fd0:	3b0b3a0e 	blcc	2cf810 <_Min_Stack_Size+0x2cf410>
     fd4:	0013490b 	andseq	r4, r3, fp, lsl #18
     fd8:	01010800 	tsteq	r1, r0, lsl #16
     fdc:	13011349 	movwne	r1, #4937	; 0x1349
     fe0:	21090000 	mrscs	r0, (UNDEF: 9)
     fe4:	2f134900 	svccs	0x00134900
     fe8:	0a00000b 	beq	101c <_Min_Stack_Size+0xc1c>
     fec:	0b0b0113 	bleq	2c1440 <_Min_Stack_Size+0x2c1040>
     ff0:	0b3b0b3a 	bleq	ec3ce0 <_Min_Stack_Size+0xec38e0>
     ff4:	00001301 	andeq	r1, r0, r1, lsl #6
     ff8:	03000d0b 	movweq	r0, #3339	; 0xd0b
     ffc:	3b0b3a0e 	blcc	2cf83c <_Min_Stack_Size+0x2cf43c>
    1000:	3813490b 	ldmdacc	r3, {r0, r1, r3, r8, fp, lr}
    1004:	0c00000b 	stceq	0, cr0, [r0], {11}
    1008:	0b0b000f 	bleq	2c104c <_Min_Stack_Size+0x2c0c4c>
    100c:	130d0000 	movwne	r0, #53248	; 0xd000
    1010:	0b0e0301 	bleq	381c1c <_Min_Stack_Size+0x38181c>
    1014:	3b0b3a0b 	blcc	2cf848 <_Min_Stack_Size+0x2cf448>
    1018:	0013010b 	andseq	r0, r3, fp, lsl #2
    101c:	000d0e00 	andeq	r0, sp, r0, lsl #28
    1020:	0b3a0803 	bleq	e83034 <_Min_Stack_Size+0xe82c34>
    1024:	13490b3b 	movtne	r0, #39739	; 0x9b3b
    1028:	00000b38 	andeq	r0, r0, r8, lsr fp
    102c:	0b000f0f 	bleq	4c70 <_Min_Stack_Size+0x4870>
    1030:	0013490b 	andseq	r4, r3, fp, lsl #18
    1034:	01131000 	tsteq	r3, r0
    1038:	050b0e03 	streq	r0, [fp, #-3587]	; 0xfffff1fd
    103c:	0b3b0b3a 	bleq	ec3d2c <_Min_Stack_Size+0xec392c>
    1040:	00001301 	andeq	r1, r0, r1, lsl #6
    1044:	03000d11 	movweq	r0, #3345	; 0xd11
    1048:	3b0b3a0e 	blcc	2cf888 <_Min_Stack_Size+0x2cf488>
    104c:	3813490b 	ldmdacc	r3, {r0, r1, r3, r8, fp, lr}
    1050:	12000005 	andne	r0, r0, #5
    1054:	19270015 	stmdbne	r7!, {r0, r2, r4}
    1058:	15130000 	ldrne	r0, [r3, #-0]
    105c:	49192701 	ldmdbmi	r9, {r0, r8, r9, sl, sp}
    1060:	00130113 	andseq	r0, r3, r3, lsl r1
    1064:	00051400 	andeq	r1, r5, r0, lsl #8
    1068:	00001349 	andeq	r1, r0, r9, asr #6
    106c:	03011315 	movweq	r1, #4885	; 0x1315
    1070:	3a050b0e 	bcc	143cb0 <_Min_Stack_Size+0x1438b0>
    1074:	01053b0b 	tsteq	r5, fp, lsl #22
    1078:	16000013 			; <UNDEFINED> instruction: 0x16000013
    107c:	0e03000d 	cdpeq	0, 0, cr0, cr3, cr13, {0}
    1080:	053b0b3a 	ldreq	r0, [fp, #-2874]!	; 0xfffff4c6
    1084:	0b381349 	bleq	e05db0 <_Min_Stack_Size+0xe059b0>
    1088:	0d170000 	ldceq	0, cr0, [r7, #-0]
    108c:	3a0e0300 	bcc	381c94 <_Min_Stack_Size+0x381894>
    1090:	49053b0b 	stmdbmi	r5, {r0, r1, r3, r8, r9, fp, ip, sp}
    1094:	00053813 	andeq	r3, r5, r3, lsl r8
    1098:	00261800 	eoreq	r1, r6, r0, lsl #16
    109c:	00001349 	andeq	r1, r0, r9, asr #6
    10a0:	03011319 	movweq	r1, #4889	; 0x1319
    10a4:	3a0b0b0e 	bcc	2c3ce4 <_Min_Stack_Size+0x2c38e4>
    10a8:	01053b0b 	tsteq	r5, fp, lsl #22
    10ac:	1a000013 	bne	1100 <_Min_Stack_Size+0xd00>
    10b0:	0b0b0113 	bleq	2c1504 <_Min_Stack_Size+0x2c1104>
    10b4:	053b0b3a 	ldreq	r0, [fp, #-2874]!	; 0xfffff4c6
    10b8:	00001301 	andeq	r1, r0, r1, lsl #6
    10bc:	0b01171b 	bleq	46d30 <_Min_Stack_Size+0x46930>
    10c0:	3b0b3a0b 	blcc	2cf8f4 <_Min_Stack_Size+0x2cf4f4>
    10c4:	00130105 	andseq	r0, r3, r5, lsl #2
    10c8:	000d1c00 	andeq	r1, sp, r0, lsl #24
    10cc:	0b3a0e03 	bleq	e848e0 <_Min_Stack_Size+0xe844e0>
    10d0:	1349053b 	movtne	r0, #38203	; 0x953b
    10d4:	151d0000 	ldrne	r0, [sp, #-0]
    10d8:	01192701 	tsteq	r9, r1, lsl #14
    10dc:	1e000013 	mcrne	0, 0, r0, cr0, cr3, {0}
    10e0:	0e030034 	mcreq	0, 0, r0, cr3, cr4, {1}
    10e4:	0b3b0b3a 	bleq	ec3dd4 <_Min_Stack_Size+0xec39d4>
    10e8:	18021349 	stmdane	r2, {r0, r3, r6, r8, r9, ip}
    10ec:	341f0000 	ldrcc	r0, [pc], #-0	; 10f4 <_Min_Stack_Size+0xcf4>
    10f0:	3a0e0300 	bcc	381cf8 <_Min_Stack_Size+0x3818f8>
    10f4:	49053b0b 	stmdbmi	r5, {r0, r1, r3, r8, r9, fp, ip, sp}
    10f8:	02193f13 	andseq	r3, r9, #19, 30	; 0x4c
    10fc:	00000018 	andeq	r0, r0, r8, lsl r0
    1100:	25011101 	strcs	r1, [r1, #-257]	; 0xfffffeff
    1104:	030b130e 	movweq	r1, #45838	; 0xb30e
    1108:	550e1b0e 	strpl	r1, [lr, #-2830]	; 0xfffff4f2
    110c:	10011117 	andne	r1, r1, r7, lsl r1
    1110:	02000017 	andeq	r0, r0, #23
    1114:	0b0b0024 	bleq	2c11ac <_Min_Stack_Size+0x2c0dac>
    1118:	0e030b3e 	vmoveq.16	d3[0], r0
    111c:	24030000 	strcs	r0, [r3], #-0
    1120:	3e0b0b00 	vmlacc.f64	d0, d11, d0
    1124:	0008030b 	andeq	r0, r8, fp, lsl #6
    1128:	00160400 	andseq	r0, r6, r0, lsl #8
    112c:	0b3a0e03 	bleq	e84940 <_Min_Stack_Size+0xe84540>
    1130:	13490b3b 	movtne	r0, #39739	; 0x9b3b
    1134:	2e050000 	cdpcs	0, 0, cr0, cr5, cr0, {0}
    1138:	03193f01 	tsteq	r9, #1, 30
    113c:	3b0b3a0e 	blcc	2cf97c <_Min_Stack_Size+0x2cf57c>
    1140:	1119270b 	tstne	r9, fp, lsl #14
    1144:	40061201 	andmi	r1, r6, r1, lsl #4
    1148:	19429618 	stmdbne	r2, {r3, r4, r9, sl, ip, pc}^
    114c:	00001301 	andeq	r1, r0, r1, lsl #6
    1150:	03003406 	movweq	r3, #1030	; 0x406
    1154:	3b0b3a0e 	blcc	2cf994 <_Min_Stack_Size+0x2cf594>
    1158:	0213490b 	andseq	r4, r3, #180224	; 0x2c000
    115c:	07000017 	smladeq	r0, r7, r0, r0
    1160:	08030034 	stmdaeq	r3, {r2, r4, r5}
    1164:	0b3b0b3a 	bleq	ec3e54 <_Min_Stack_Size+0xec3a54>
    1168:	17021349 	strne	r1, [r2, -r9, asr #6]
    116c:	89080000 	stmdbhi	r8, {}	; <UNPREDICTABLE>
    1170:	11000182 	smlabbne	r0, r2, r1, r0
    1174:	00133101 	andseq	r3, r3, r1, lsl #2
    1178:	01010900 	tsteq	r1, r0, lsl #18
    117c:	13011349 	movwne	r1, #4937	; 0x1349
    1180:	210a0000 	mrscs	r0, (UNDEF: 10)
    1184:	0b000000 	bleq	118c <_Min_Stack_Size+0xd8c>
    1188:	0b0b000f 	bleq	2c11cc <_Min_Stack_Size+0x2c0dcc>
    118c:	00001349 	andeq	r1, r0, r9, asr #6
    1190:	2700150c 	strcs	r1, [r0, -ip, lsl #10]
    1194:	0d000019 	stceq	0, cr0, [r0, #-100]	; 0xffffff9c
    1198:	0e030034 	mcreq	0, 0, r0, cr3, cr4, {1}
    119c:	0b3b0b3a 	bleq	ec3e8c <_Min_Stack_Size+0xec3a8c>
    11a0:	193f1349 	ldmdbne	pc!, {r0, r3, r6, r8, r9, ip}	; <UNPREDICTABLE>
    11a4:	0000193c 	andeq	r1, r0, ip, lsr r9
    11a8:	3f002e0e 	svccc	0x00002e0e
    11ac:	3a0e0319 	bcc	381e18 <_Min_Stack_Size+0x381a18>
    11b0:	270b3b0b 	strcs	r3, [fp, -fp, lsl #22]
    11b4:	00193c19 	andseq	r3, r9, r9, lsl ip
    11b8:	11010000 	mrsne	r0, (UNDEF: 1)
    11bc:	130e2501 	movwne	r2, #58625	; 0xe501
    11c0:	1b0e030b 	blne	381df4 <_Min_Stack_Size+0x3819f4>
    11c4:	1117550e 	tstne	r7, lr, lsl #10
    11c8:	00171001 	andseq	r1, r7, r1
    11cc:	00240200 	eoreq	r0, r4, r0, lsl #4
    11d0:	0b3e0b0b 	bleq	f83e04 <_Min_Stack_Size+0xf83a04>
    11d4:	00000803 	andeq	r0, r0, r3, lsl #16
    11d8:	03001603 	movweq	r1, #1539	; 0x603
    11dc:	3b0b3a0e 	blcc	2cfa1c <_Min_Stack_Size+0x2cf61c>
    11e0:	0013490b 	andseq	r4, r3, fp, lsl #18
    11e4:	00240400 	eoreq	r0, r4, r0, lsl #8
    11e8:	0b3e0b0b 	bleq	f83e1c <_Min_Stack_Size+0xf83a1c>
    11ec:	00000e03 	andeq	r0, r0, r3, lsl #28
    11f0:	0b000f05 	bleq	4e0c <_Min_Stack_Size+0x4a0c>
    11f4:	0600000b 	streq	r0, [r0], -fp
    11f8:	0b0b000f 	bleq	2c123c <_Min_Stack_Size+0x2c0e3c>
    11fc:	00001349 	andeq	r1, r0, r9, asr #6
    1200:	49002607 	stmdbmi	r0, {r0, r1, r2, r9, sl, sp}
    1204:	08000013 	stmdaeq	r0, {r0, r1, r4}
    1208:	193f012e 	ldmdbne	pc!, {r1, r2, r3, r5, r8}	; <UNPREDICTABLE>
    120c:	0b3a0e03 	bleq	e84a20 <_Min_Stack_Size+0xe84620>
    1210:	19270b3b 	stmdbne	r7!, {r0, r1, r3, r4, r5, r8, r9, fp}
    1214:	01111349 	tsteq	r1, r9, asr #6
    1218:	18400612 	stmdane	r0, {r1, r4, r9, sl}^
    121c:	01194297 			; <UNDEFINED> instruction: 0x01194297
    1220:	09000013 	stmdbeq	r0, {r0, r1, r4}
    1224:	0e030005 	cdpeq	0, 0, cr0, cr3, cr5, {0}
    1228:	0b3b0b3a 	bleq	ec3f18 <_Min_Stack_Size+0xec3b18>
    122c:	18021349 	stmdane	r2, {r0, r3, r6, r8, r9, ip}
    1230:	050a0000 	streq	r0, [sl, #-0]
    1234:	3a0e0300 	bcc	381e3c <_Min_Stack_Size+0x381a3c>
    1238:	490b3b0b 	stmdbmi	fp, {r0, r1, r3, r8, r9, fp, ip, sp}
    123c:	00170213 	andseq	r0, r7, r3, lsl r2
    1240:	00340b00 	eorseq	r0, r4, r0, lsl #22
    1244:	0b3a0803 	bleq	e83258 <_Min_Stack_Size+0xe82e58>
    1248:	13490b3b 	movtne	r0, #39739	; 0x9b3b
    124c:	00001702 	andeq	r1, r0, r2, lsl #14
    1250:	0300340c 	movweq	r3, #1036	; 0x40c
    1254:	3b0b3a0e 	blcc	2cfa94 <_Min_Stack_Size+0x2cf694>
    1258:	0213490b 	andseq	r4, r3, #180224	; 0x2c000
    125c:	0d000017 	stceq	0, cr0, [r0, #-92]	; 0xffffffa4
    1260:	00000026 	andeq	r0, r0, r6, lsr #32
    1264:	01110100 	tsteq	r1, r0, lsl #2
    1268:	0b130e25 	bleq	4c4b04 <_Min_Stack_Size+0x4c4704>
    126c:	0e1b0e03 	cdpeq	14, 1, cr0, cr11, cr3, {0}
    1270:	01111755 	tsteq	r1, r5, asr r7
    1274:	00001710 	andeq	r1, r0, r0, lsl r7
    1278:	0b002402 	bleq	a288 <_Min_Stack_Size+0x9e88>
    127c:	030b3e0b 	movweq	r3, #48651	; 0xbe0b
    1280:	03000008 	movweq	r0, #8
    1284:	0e030016 	mcreq	0, 0, r0, cr3, cr6, {0}
    1288:	0b3b0b3a 	bleq	ec3f78 <_Min_Stack_Size+0xec3b78>
    128c:	00001349 	andeq	r1, r0, r9, asr #6
    1290:	0b002404 	bleq	a2a8 <_Min_Stack_Size+0x9ea8>
    1294:	030b3e0b 	movweq	r3, #48651	; 0xbe0b
    1298:	0500000e 	streq	r0, [r0, #-14]
    129c:	0e030016 	mcreq	0, 0, r0, cr3, cr6, {0}
    12a0:	053b0b3a 	ldreq	r0, [fp, #-2874]!	; 0xfffff4c6
    12a4:	00001349 	andeq	r1, r0, r9, asr #6
    12a8:	0b011706 	bleq	46ec8 <_Min_Stack_Size+0x46ac8>
    12ac:	3b0b3a0b 	blcc	2cfae0 <_Min_Stack_Size+0x2cf6e0>
    12b0:	0013010b 	andseq	r0, r3, fp, lsl #2
    12b4:	000d0700 	andeq	r0, sp, r0, lsl #14
    12b8:	0b3a0e03 	bleq	e84acc <_Min_Stack_Size+0xe846cc>
    12bc:	13490b3b 	movtne	r0, #39739	; 0x9b3b
    12c0:	01080000 	mrseq	r0, (UNDEF: 8)
    12c4:	01134901 	tsteq	r3, r1, lsl #18
    12c8:	09000013 	stmdbeq	r0, {r0, r1, r4}
    12cc:	13490021 	movtne	r0, #36897	; 0x9021
    12d0:	00000b2f 	andeq	r0, r0, pc, lsr #22
    12d4:	0b01130a 	bleq	45f04 <_Min_Stack_Size+0x45b04>
    12d8:	3b0b3a0b 	blcc	2cfb0c <_Min_Stack_Size+0x2cf70c>
    12dc:	0013010b 	andseq	r0, r3, fp, lsl #2
    12e0:	000d0b00 	andeq	r0, sp, r0, lsl #22
    12e4:	0b3a0e03 	bleq	e84af8 <_Min_Stack_Size+0xe846f8>
    12e8:	13490b3b 	movtne	r0, #39739	; 0x9b3b
    12ec:	00000b38 	andeq	r0, r0, r8, lsr fp
    12f0:	0b000f0c 	bleq	4f28 <_Min_Stack_Size+0x4b28>
    12f4:	0d00000b 	stceq	0, cr0, [r0, #-44]	; 0xffffffd4
    12f8:	0e030113 	mcreq	1, 0, r0, cr3, cr3, {0}
    12fc:	0b3a0b0b 	bleq	e83f30 <_Min_Stack_Size+0xe83b30>
    1300:	13010b3b 	movwne	r0, #6971	; 0x1b3b
    1304:	0d0e0000 	stceq	0, cr0, [lr, #-0]
    1308:	3a080300 	bcc	201f10 <_Min_Stack_Size+0x201b10>
    130c:	490b3b0b 	stmdbmi	fp, {r0, r1, r3, r8, r9, fp, ip, sp}
    1310:	000b3813 	andeq	r3, fp, r3, lsl r8
    1314:	000f0f00 	andeq	r0, pc, r0, lsl #30
    1318:	13490b0b 	movtne	r0, #39691	; 0x9b0b
    131c:	13100000 	tstne	r0, #0
    1320:	0b0e0301 	bleq	381f2c <_Min_Stack_Size+0x381b2c>
    1324:	3b0b3a05 	blcc	2cfb40 <_Min_Stack_Size+0x2cf740>
    1328:	0013010b 	andseq	r0, r3, fp, lsl #2
    132c:	000d1100 	andeq	r1, sp, r0, lsl #2
    1330:	0b3a0e03 	bleq	e84b44 <_Min_Stack_Size+0xe84744>
    1334:	13490b3b 	movtne	r0, #39739	; 0x9b3b
    1338:	00000538 	andeq	r0, r0, r8, lsr r5
    133c:	27001512 	smladcs	r0, r2, r5, r1
    1340:	13000019 	movwne	r0, #25
    1344:	19270115 	stmdbne	r7!, {r0, r2, r4, r8}
    1348:	13011349 	movwne	r1, #4937	; 0x1349
    134c:	05140000 	ldreq	r0, [r4, #-0]
    1350:	00134900 	andseq	r4, r3, r0, lsl #18
    1354:	01131500 	tsteq	r3, r0, lsl #10
    1358:	050b0e03 	streq	r0, [fp, #-3587]	; 0xfffff1fd
    135c:	053b0b3a 	ldreq	r0, [fp, #-2874]!	; 0xfffff4c6
    1360:	00001301 	andeq	r1, r0, r1, lsl #6
    1364:	03000d16 	movweq	r0, #3350	; 0xd16
    1368:	3b0b3a0e 	blcc	2cfba8 <_Min_Stack_Size+0x2cf7a8>
    136c:	38134905 	ldmdacc	r3, {r0, r2, r8, fp, lr}
    1370:	1700000b 	strne	r0, [r0, -fp]
    1374:	0e03000d 	cdpeq	0, 0, cr0, cr3, cr13, {0}
    1378:	053b0b3a 	ldreq	r0, [fp, #-2874]!	; 0xfffff4c6
    137c:	05381349 	ldreq	r1, [r8, #-841]!	; 0xfffffcb7
    1380:	26180000 	ldrcs	r0, [r8], -r0
    1384:	00134900 	andseq	r4, r3, r0, lsl #18
    1388:	01131900 	tsteq	r3, r0, lsl #18
    138c:	0b0b0e03 	bleq	2c4ba0 <_Min_Stack_Size+0x2c47a0>
    1390:	053b0b3a 	ldreq	r0, [fp, #-2874]!	; 0xfffff4c6
    1394:	00001301 	andeq	r1, r0, r1, lsl #6
    1398:	0b01131a 	bleq	46008 <_Min_Stack_Size+0x45c08>
    139c:	3b0b3a0b 	blcc	2cfbd0 <_Min_Stack_Size+0x2cf7d0>
    13a0:	00130105 	andseq	r0, r3, r5, lsl #2
    13a4:	01171b00 	tsteq	r7, r0, lsl #22
    13a8:	0b3a0b0b 	bleq	e83fdc <_Min_Stack_Size+0xe83bdc>
    13ac:	1301053b 	movwne	r0, #5435	; 0x153b
    13b0:	0d1c0000 	ldceq	0, cr0, [ip, #-0]
    13b4:	3a0e0300 	bcc	381fbc <_Min_Stack_Size+0x381bbc>
    13b8:	49053b0b 	stmdbmi	r5, {r0, r1, r3, r8, r9, fp, ip, sp}
    13bc:	1d000013 	stcne	0, cr0, [r0, #-76]	; 0xffffffb4
    13c0:	19270115 	stmdbne	r7!, {r0, r2, r4, r8}
    13c4:	00001301 	andeq	r1, r0, r1, lsl #6
    13c8:	0301041e 	movweq	r0, #5150	; 0x141e
    13cc:	3a0b0b0e 	bcc	2c400c <_Min_Stack_Size+0x2c3c0c>
    13d0:	010b3b0b 	tsteq	fp, fp, lsl #22
    13d4:	1f000013 	svcne	0x00000013
    13d8:	0e030028 	cdpeq	0, 0, cr0, cr3, cr8, {1}
    13dc:	00000d1c 	andeq	r0, r0, ip, lsl sp
    13e0:	3f012e20 	svccc	0x00012e20
    13e4:	3a0e0319 	bcc	382050 <_Min_Stack_Size+0x381c50>
    13e8:	270b3b0b 	strcs	r3, [fp, -fp, lsl #22]
    13ec:	11134919 	tstne	r3, r9, lsl r9
    13f0:	40061201 	andmi	r1, r6, r1, lsl #4
    13f4:	19429718 	stmdbne	r2, {r3, r4, r8, r9, sl, ip, pc}^
    13f8:	00001301 	andeq	r1, r0, r1, lsl #6
    13fc:	03000521 	movweq	r0, #1313	; 0x521
    1400:	3b0b3a0e 	blcc	2cfc40 <_Min_Stack_Size+0x2cf840>
    1404:	0213490b 	andseq	r4, r3, #180224	; 0x2c000
    1408:	22000017 	andcs	r0, r0, #23
    140c:	08030005 	stmdaeq	r3, {r0, r2}
    1410:	0b3b0b3a 	bleq	ec4100 <_Min_Stack_Size+0xec3d00>
    1414:	17021349 	strne	r1, [r2, -r9, asr #6]
    1418:	34230000 	strtcc	r0, [r3], #-0
    141c:	3a0e0300 	bcc	382024 <_Min_Stack_Size+0x381c24>
    1420:	490b3b0b 	stmdbmi	fp, {r0, r1, r3, r8, r9, fp, ip, sp}
    1424:	00170213 	andseq	r0, r7, r3, lsl r2
    1428:	00342400 	eorseq	r2, r4, r0, lsl #8
    142c:	0b3a0803 	bleq	e83440 <_Min_Stack_Size+0xe83040>
    1430:	13490b3b 	movtne	r0, #39739	; 0x9b3b
    1434:	00001702 	andeq	r1, r0, r2, lsl #14
    1438:	01828925 	orreq	r8, r2, r5, lsr #18
    143c:	31011101 	tstcc	r1, r1, lsl #2
    1440:	26000013 			; <UNDEFINED> instruction: 0x26000013
    1444:	0001828a 	andeq	r8, r1, sl, lsl #5
    1448:	42911802 	addsmi	r1, r1, #131072	; 0x20000
    144c:	27000018 	smladcs	r0, r8, r0, r0
    1450:	0e030034 	mcreq	0, 0, r0, cr3, cr4, {1}
    1454:	053b0b3a 	ldreq	r0, [fp, #-2874]!	; 0xfffff4c6
    1458:	193f1349 	ldmdbne	pc!, {r0, r3, r6, r8, r9, ip}	; <UNPREDICTABLE>
    145c:	0000193c 	andeq	r1, r0, ip, lsr r9
    1460:	3f012e28 	svccc	0x00012e28
    1464:	3a0e0319 	bcc	3820d0 <_Min_Stack_Size+0x381cd0>
    1468:	270b3b0b 	strcs	r3, [fp, -fp, lsl #22]
    146c:	3c134919 	ldccc	9, cr4, [r3], {25}
    1470:	00000019 	andeq	r0, r0, r9, lsl r0
    1474:	25011101 	strcs	r1, [r1, #-257]	; 0xfffffeff
    1478:	030b130e 	movweq	r1, #45838	; 0xb30e
    147c:	550e1b0e 	strpl	r1, [lr, #-2830]	; 0xfffff4f2
    1480:	10011117 	andne	r1, r1, r7, lsl r1
    1484:	02000017 	andeq	r0, r0, #23
    1488:	0b0b0024 	bleq	2c1520 <_Min_Stack_Size+0x2c1120>
    148c:	0e030b3e 	vmoveq.16	d3[0], r0
    1490:	24030000 	strcs	r0, [r3], #-0
    1494:	3e0b0b00 	vmlacc.f64	d0, d11, d0
    1498:	0008030b 	andeq	r0, r8, fp, lsl #6
    149c:	00160400 	andseq	r0, r6, r0, lsl #8
    14a0:	0b3a0e03 	bleq	e84cb4 <_Min_Stack_Size+0xe848b4>
    14a4:	13490b3b 	movtne	r0, #39739	; 0x9b3b
    14a8:	16050000 	strne	r0, [r5], -r0
    14ac:	3a0e0300 	bcc	3820b4 <_Min_Stack_Size+0x381cb4>
    14b0:	49053b0b 	stmdbmi	r5, {r0, r1, r3, r8, r9, fp, ip, sp}
    14b4:	06000013 			; <UNDEFINED> instruction: 0x06000013
    14b8:	0b0b0117 	bleq	2c191c <_Min_Stack_Size+0x2c151c>
    14bc:	0b3b0b3a 	bleq	ec41ac <_Min_Stack_Size+0xec3dac>
    14c0:	00001301 	andeq	r1, r0, r1, lsl #6
    14c4:	03000d07 	movweq	r0, #3335	; 0xd07
    14c8:	3b0b3a0e 	blcc	2cfd08 <_Min_Stack_Size+0x2cf908>
    14cc:	0013490b 	andseq	r4, r3, fp, lsl #18
    14d0:	01010800 	tsteq	r1, r0, lsl #16
    14d4:	13011349 	movwne	r1, #4937	; 0x1349
    14d8:	21090000 	mrscs	r0, (UNDEF: 9)
    14dc:	2f134900 	svccs	0x00134900
    14e0:	0a00000b 	beq	1514 <_Min_Stack_Size+0x1114>
    14e4:	0b0b0113 	bleq	2c1938 <_Min_Stack_Size+0x2c1538>
    14e8:	0b3b0b3a 	bleq	ec41d8 <_Min_Stack_Size+0xec3dd8>
    14ec:	00001301 	andeq	r1, r0, r1, lsl #6
    14f0:	03000d0b 	movweq	r0, #3339	; 0xd0b
    14f4:	3b0b3a0e 	blcc	2cfd34 <_Min_Stack_Size+0x2cf934>
    14f8:	3813490b 	ldmdacc	r3, {r0, r1, r3, r8, fp, lr}
    14fc:	0c00000b 	stceq	0, cr0, [r0], {11}
    1500:	0b0b000f 	bleq	2c1544 <_Min_Stack_Size+0x2c1144>
    1504:	130d0000 	movwne	r0, #53248	; 0xd000
    1508:	0b0e0301 	bleq	382114 <_Min_Stack_Size+0x381d14>
    150c:	3b0b3a0b 	blcc	2cfd40 <_Min_Stack_Size+0x2cf940>
    1510:	0013010b 	andseq	r0, r3, fp, lsl #2
    1514:	000d0e00 	andeq	r0, sp, r0, lsl #28
    1518:	0b3a0803 	bleq	e8352c <_Min_Stack_Size+0xe8312c>
    151c:	13490b3b 	movtne	r0, #39739	; 0x9b3b
    1520:	00000b38 	andeq	r0, r0, r8, lsr fp
    1524:	0b000f0f 	bleq	5168 <_Min_Stack_Size+0x4d68>
    1528:	0013490b 	andseq	r4, r3, fp, lsl #18
    152c:	01131000 	tsteq	r3, r0
    1530:	050b0e03 	streq	r0, [fp, #-3587]	; 0xfffff1fd
    1534:	0b3b0b3a 	bleq	ec4224 <_Min_Stack_Size+0xec3e24>
    1538:	00001301 	andeq	r1, r0, r1, lsl #6
    153c:	03000d11 	movweq	r0, #3345	; 0xd11
    1540:	3b0b3a0e 	blcc	2cfd80 <_Min_Stack_Size+0x2cf980>
    1544:	3813490b 	ldmdacc	r3, {r0, r1, r3, r8, fp, lr}
    1548:	12000005 	andne	r0, r0, #5
    154c:	19270015 	stmdbne	r7!, {r0, r2, r4}
    1550:	15130000 	ldrne	r0, [r3, #-0]
    1554:	49192701 	ldmdbmi	r9, {r0, r8, r9, sl, sp}
    1558:	00130113 	andseq	r0, r3, r3, lsl r1
    155c:	00051400 	andeq	r1, r5, r0, lsl #8
    1560:	00001349 	andeq	r1, r0, r9, asr #6
    1564:	03011315 	movweq	r1, #4885	; 0x1315
    1568:	3a050b0e 	bcc	1441a8 <_Min_Stack_Size+0x143da8>
    156c:	01053b0b 	tsteq	r5, fp, lsl #22
    1570:	16000013 			; <UNDEFINED> instruction: 0x16000013
    1574:	0e03000d 	cdpeq	0, 0, cr0, cr3, cr13, {0}
    1578:	053b0b3a 	ldreq	r0, [fp, #-2874]!	; 0xfffff4c6
    157c:	0b381349 	bleq	e062a8 <_Min_Stack_Size+0xe05ea8>
    1580:	0d170000 	ldceq	0, cr0, [r7, #-0]
    1584:	3a0e0300 	bcc	38218c <_Min_Stack_Size+0x381d8c>
    1588:	49053b0b 	stmdbmi	r5, {r0, r1, r3, r8, r9, fp, ip, sp}
    158c:	00053813 	andeq	r3, r5, r3, lsl r8
    1590:	00261800 	eoreq	r1, r6, r0, lsl #16
    1594:	00001349 	andeq	r1, r0, r9, asr #6
    1598:	03011319 	movweq	r1, #4889	; 0x1319
    159c:	3a0b0b0e 	bcc	2c41dc <_Min_Stack_Size+0x2c3ddc>
    15a0:	01053b0b 	tsteq	r5, fp, lsl #22
    15a4:	1a000013 	bne	15f8 <_Min_Stack_Size+0x11f8>
    15a8:	0b0b0113 	bleq	2c19fc <_Min_Stack_Size+0x2c15fc>
    15ac:	053b0b3a 	ldreq	r0, [fp, #-2874]!	; 0xfffff4c6
    15b0:	00001301 	andeq	r1, r0, r1, lsl #6
    15b4:	0b01171b 	bleq	47228 <_Min_Stack_Size+0x46e28>
    15b8:	3b0b3a0b 	blcc	2cfdec <_Min_Stack_Size+0x2cf9ec>
    15bc:	00130105 	andseq	r0, r3, r5, lsl #2
    15c0:	000d1c00 	andeq	r1, sp, r0, lsl #24
    15c4:	0b3a0e03 	bleq	e84dd8 <_Min_Stack_Size+0xe849d8>
    15c8:	1349053b 	movtne	r0, #38203	; 0x953b
    15cc:	151d0000 	ldrne	r0, [sp, #-0]
    15d0:	01192701 	tsteq	r9, r1, lsl #14
    15d4:	1e000013 	mcrne	0, 0, r0, cr0, cr3, {0}
    15d8:	0e03012e 	adfeqsp	f0, f3, #0.5
    15dc:	0b3b0b3a 	bleq	ec42cc <_Min_Stack_Size+0xec3ecc>
    15e0:	01111927 	tsteq	r1, r7, lsr #18
    15e4:	18400612 	stmdane	r0, {r1, r4, r9, sl}^
    15e8:	01194297 			; <UNDEFINED> instruction: 0x01194297
    15ec:	1f000013 	svcne	0x00000013
    15f0:	0111010b 	tsteq	r1, fp, lsl #2
    15f4:	00000612 	andeq	r0, r0, r2, lsl r6
    15f8:	3f002e20 	svccc	0x00002e20
    15fc:	3a0e0319 	bcc	382268 <_Min_Stack_Size+0x381e68>
    1600:	270b3b0b 	strcs	r3, [fp, -fp, lsl #22]
    1604:	00193c19 	andseq	r3, r9, r9, lsl ip
    1608:	82892100 	addhi	r2, r9, #0, 2
    160c:	01110001 	tsteq	r1, r1
    1610:	00001331 	andeq	r1, r0, r1, lsr r3
    1614:	3f012e22 	svccc	0x00012e22
    1618:	3a0e0319 	bcc	382284 <_Min_Stack_Size+0x381e84>
    161c:	270b3b0b 	strcs	r3, [fp, -fp, lsl #22]
    1620:	12011119 	andne	r1, r1, #1073741830	; 0x40000006
    1624:	96184006 	ldrls	r4, [r8], -r6
    1628:	13011942 	movwne	r1, #6466	; 0x1942
    162c:	05230000 	streq	r0, [r3, #-0]!
    1630:	3a0e0300 	bcc	382238 <_Min_Stack_Size+0x381e38>
    1634:	490b3b0b 	stmdbmi	fp, {r0, r1, r3, r8, r9, fp, ip, sp}
    1638:	00170213 	andseq	r0, r7, r3, lsl r2
    163c:	00052400 	andeq	r2, r5, r0, lsl #8
    1640:	0b3a0803 	bleq	e83654 <_Min_Stack_Size+0xe83254>
    1644:	13490b3b 	movtne	r0, #39739	; 0x9b3b
    1648:	00001702 	andeq	r1, r0, r2, lsl #14
    164c:	03003425 	movweq	r3, #1061	; 0x425
    1650:	3b0b3a08 	blcc	2cfe78 <_Min_Stack_Size+0x2cfa78>
    1654:	0213490b 	andseq	r4, r3, #180224	; 0x2c000
    1658:	26000017 			; <UNDEFINED> instruction: 0x26000017
    165c:	0e030034 	mcreq	0, 0, r0, cr3, cr4, {1}
    1660:	0b3b0b3a 	bleq	ec4350 <_Min_Stack_Size+0xec3f50>
    1664:	17021349 	strne	r1, [r2, -r9, asr #6]
    1668:	0a270000 	beq	9c1670 <_Min_Stack_Size+0x9c1270>
    166c:	3a0e0300 	bcc	382274 <_Min_Stack_Size+0x381e74>
    1670:	000b3b0b 	andeq	r3, fp, fp, lsl #22
    1674:	010b2800 	tsteq	fp, r0, lsl #16
    1678:	13011755 	movwne	r1, #5973	; 0x1755
    167c:	89290000 	stmdbhi	r9!, {}	; <UNPREDICTABLE>
    1680:	11010182 	smlabbne	r1, r2, r1, r0
    1684:	2a000001 	bcs	1690 <_Min_Stack_Size+0x1290>
    1688:	0001828a 	andeq	r8, r1, sl, lsl #5
    168c:	42911802 	addsmi	r1, r1, #131072	; 0x20000
    1690:	2b000018 	blcs	16f8 <_Min_Stack_Size+0x12f8>
    1694:	01018289 	smlabbeq	r1, r9, r2, r8
    1698:	13310111 	teqne	r1, #1073741828	; 0x40000004
    169c:	342c0000 	strtcc	r0, [ip], #-0
    16a0:	3a0e0300 	bcc	3822a8 <_Min_Stack_Size+0x381ea8>
    16a4:	490b3b0b 	stmdbmi	fp, {r0, r1, r3, r8, r9, fp, ip, sp}
    16a8:	000b1c13 	andeq	r1, fp, r3, lsl ip
    16ac:	00342d00 	eorseq	r2, r4, r0, lsl #26
    16b0:	0b3a0e03 	bleq	e84ec4 <_Min_Stack_Size+0xe84ac4>
    16b4:	1349053b 	movtne	r0, #38203	; 0x953b
    16b8:	193c193f 	ldmdbne	ip!, {r0, r1, r2, r3, r4, r5, r8, fp, ip}
    16bc:	342e0000 	strtcc	r0, [lr], #-0
    16c0:	3a0e0300 	bcc	3822c8 <_Min_Stack_Size+0x381ec8>
    16c4:	490b3b0b 	stmdbmi	fp, {r0, r1, r3, r8, r9, fp, ip, sp}
    16c8:	3c193f13 	ldccc	15, cr3, [r9], {19}
    16cc:	2f000019 	svccs	0x00000019
    16d0:	193f012e 	ldmdbne	pc!, {r1, r2, r3, r5, r8}	; <UNPREDICTABLE>
    16d4:	0b3a0e03 	bleq	e84ee8 <_Min_Stack_Size+0xe84ae8>
    16d8:	19270b3b 	stmdbne	r7!, {r0, r1, r3, r4, r5, r8, r9, fp}
    16dc:	193c1349 	ldmdbne	ip!, {r0, r3, r6, r8, r9, ip}
    16e0:	00001301 	andeq	r1, r0, r1, lsl #6
    16e4:	3f012e30 	svccc	0x00012e30
    16e8:	3a0e0319 	bcc	382354 <_Min_Stack_Size+0x381f54>
    16ec:	270b3b0b 	strcs	r3, [fp, -fp, lsl #22]
    16f0:	00193c19 	andseq	r3, r9, r9, lsl ip
	...

Disassembly of section .debug_loc:

00000000 <.debug_loc>:
	...
       8:	00500001 	subseq	r0, r0, r1
       c:	00000000 	andeq	r0, r0, r0
      10:	04000000 	streq	r0, [r0], #-0
      14:	5001f300 	andpl	pc, r1, r0, lsl #6
      18:	0000009f 	muleq	r0, pc, r0	; <UNPREDICTABLE>
      1c:	00000000 	andeq	r0, r0, r0
      20:	00033800 	andeq	r3, r3, r0, lsl #16
      24:	00033f08 	andeq	r3, r3, r8, lsl #30
      28:	50000108 	andpl	r0, r0, r8, lsl #2
      2c:	0800033f 	stmdaeq	r0, {r0, r1, r2, r3, r4, r5, r8, r9}
      30:	0800035a 	stmdaeq	r0, {r1, r3, r4, r6, r8, r9}
      34:	5a540001 	bpl	1500040 <_Min_Stack_Size+0x14ffc40>
      38:	5c080003 	stcpl	0, cr0, [r8], {3}
      3c:	04080003 	streq	r0, [r8], #-3
      40:	5001f300 	andpl	pc, r1, r0, lsl #6
      44:	0000009f 	muleq	r0, pc, r0	; <UNPREDICTABLE>
	...
      54:	50000100 	andpl	r0, r0, r0, lsl #2
	...
      60:	6c910002 	ldcvs	0, cr0, [r1], {2}
	...
      74:	00500001 	subseq	r0, r0, r1
      78:	00000000 	andeq	r0, r0, r0
      7c:	01000000 	mrseq	r0, (UNDEF: 0)
      80:	00005500 	andeq	r5, r0, r0, lsl #10
	...
      90:	00010000 	andeq	r0, r1, r0
      94:	00000054 	andeq	r0, r0, r4, asr r0
      98:	00000000 	andeq	r0, r0, r0
      9c:	00038800 	andeq	r8, r3, r0, lsl #16
      a0:	0003b808 	andeq	fp, r3, r8, lsl #16
      a4:	50000108 	andpl	r0, r0, r8, lsl #2
      a8:	080003b8 	stmdaeq	r0, {r3, r4, r5, r7, r8, r9}
      ac:	080005ae 	stmdaeq	r0, {r1, r2, r3, r5, r7, r8, sl}
      b0:	ae540001 	cdpge	0, 5, cr0, cr4, cr1, {0}
      b4:	e8080005 	stmda	r8, {r0, r2}
      b8:	04080005 	streq	r0, [r8], #-5
      bc:	5001f300 	andpl	pc, r1, r0, lsl #6
      c0:	0000009f 	muleq	r0, pc, r0	; <UNPREDICTABLE>
      c4:	00000000 	andeq	r0, r0, r0
      c8:	00038800 	andeq	r8, r3, r0, lsl #16
      cc:	0003ba08 	andeq	fp, r3, r8, lsl #20
      d0:	51000108 	tstpl	r0, r8, lsl #2
      d4:	080003ba 	stmdaeq	r0, {r1, r3, r4, r5, r7, r8, r9}
      d8:	080005ae 	stmdaeq	r0, {r1, r2, r3, r5, r7, r8, sl}
      dc:	ae550001 	cdpge	0, 5, cr0, cr5, cr1, {0}
      e0:	e8080005 	stmda	r8, {r0, r2}
      e4:	04080005 	streq	r0, [r8], #-5
      e8:	5101f300 	mrspl	pc, SP_irq	; <UNPREDICTABLE>
      ec:	0000009f 	muleq	r0, pc, r0	; <UNPREDICTABLE>
      f0:	00000000 	andeq	r0, r0, r0
      f4:	00038800 	andeq	r8, r3, r0, lsl #16
      f8:	00040e08 	andeq	r0, r4, r8, lsl #28
      fc:	30000208 	andcc	r0, r0, r8, lsl #4
     100:	0004109f 	muleq	r4, pc, r0	; <UNPREDICTABLE>
     104:	00041208 	andeq	r1, r4, r8, lsl #4
     108:	53000108 	movwpl	r0, #264	; 0x108
     10c:	08000412 	stmdaeq	r0, {r1, r4, sl}
     110:	080005ac 	stmdaeq	r0, {r2, r3, r5, r7, r8, sl}
     114:	54910002 	ldrpl	r0, [r1], #2
     118:	080005ac 	stmdaeq	r0, {r2, r3, r5, r7, r8, sl}
     11c:	080005e8 	stmdaeq	r0, {r3, r5, r6, r7, r8, sl}
     120:	00510001 	subseq	r0, r1, r1
     124:	00000000 	andeq	r0, r0, r0
     128:	88000000 	stmdahi	r0, {}	; <UNPREDICTABLE>
     12c:	0e080003 	cdpeq	0, 0, cr0, cr8, cr3, {0}
     130:	02080004 	andeq	r0, r8, #4
     134:	289f3000 	ldmcs	pc, {ip, sp}	; <UNPREDICTABLE>
     138:	30080004 	andcc	r0, r8, r4
     13c:	01080004 	tsteq	r8, r4
     140:	04305200 	ldrteq	r5, [r0], #-512	; 0xfffffe00
     144:	05ac0800 	streq	r0, [ip, #2048]!	; 0x800
     148:	00020800 	andeq	r0, r2, r0, lsl #16
     14c:	00005891 	muleq	r0, r1, r8
     150:	00000000 	andeq	r0, r0, r0
     154:	03880000 	orreq	r0, r8, #0
     158:	040e0800 	streq	r0, [lr], #-2048	; 0xfffff800
     15c:	00020800 	andeq	r0, r2, r0, lsl #16
     160:	04829f30 	streq	r9, [r2], #3888	; 0xf30
     164:	048c0800 	streq	r0, [ip], #2048	; 0x800
     168:	00010800 	andeq	r0, r1, r0, lsl #16
     16c:	00048c51 	andeq	r8, r4, r1, asr ip
     170:	00048e08 	andeq	r8, r4, r8, lsl #28
     174:	52000108 	andpl	r0, r0, #8, 2
     178:	080004a2 	stmdaeq	r0, {r1, r5, r7, sl}
     17c:	080004aa 	stmdaeq	r0, {r1, r3, r5, r7, sl}
     180:	aa500001 	bge	140018c <_Min_Stack_Size+0x13ffd8c>
     184:	ae080004 	cdpge	0, 0, cr0, cr8, cr4, {0}
     188:	01080004 	tsteq	r8, r4
     18c:	04ae5300 	strteq	r5, [lr], #768	; 0x300
     190:	04c70800 	strbeq	r0, [r7], #2048	; 0x800
     194:	00020800 	andeq	r0, r2, r0, lsl #16
     198:	04cc0074 	strbeq	r0, [ip], #116	; 0x74
     19c:	04e80800 	strbteq	r0, [r8], #2048	; 0x800
     1a0:	00010800 	andeq	r0, r1, r0, lsl #16
     1a4:	0004ea53 	andeq	lr, r4, r3, asr sl
     1a8:	0004ee08 	andeq	lr, r4, r8, lsl #28
     1ac:	53000108 	movwpl	r0, #264	; 0x108
     1b0:	080004ee 	stmdaeq	r0, {r1, r2, r3, r5, r6, r7, sl}
     1b4:	0800051c 	stmdaeq	r0, {r2, r3, r4, r8, sl}
     1b8:	20560001 	subscs	r0, r6, r1
     1bc:	60080005 	andvs	r0, r8, r5
     1c0:	01080005 	tsteq	r8, r5
     1c4:	05605700 	strbeq	r5, [r0, #-1792]!	; 0xfffff900
     1c8:	05660800 	strbeq	r0, [r6, #-2048]!	; 0xfffff800
     1cc:	00010800 	andeq	r0, r1, r0, lsl #16
     1d0:	00056653 	andeq	r6, r5, r3, asr r6
     1d4:	00056808 	andeq	r6, r5, r8, lsl #16
     1d8:	91000d08 	tstls	r0, r8, lsl #26
     1dc:	25320654 	ldrcs	r0, [r2, #-1620]!	; 0xfffff9ac
     1e0:	88232432 	stmdahi	r3!, {r1, r4, r5, sl, sp}
     1e4:	04808480 	streq	r8, [r0], #1152	; 0x480
     1e8:	08000568 	stmdaeq	r0, {r3, r5, r6, r8, sl}
     1ec:	0800056a 	stmdaeq	r0, {r1, r3, r5, r6, r8, sl}
     1f0:	6a560001 	bvs	15801fc <_Min_Stack_Size+0x157fdfc>
     1f4:	74080005 	strvc	r0, [r8], #-5
     1f8:	06080005 	streq	r0, [r8], -r5
     1fc:	76007000 	strvc	r7, [r0], -r0
     200:	749f1a00 	ldrvc	r1, [pc], #2560	; 208 <_Min_Heap_Size+0x8>
     204:	78080005 	stmdavc	r8, {r0, r2}
     208:	01080005 	tsteq	r8, r5
     20c:	05785300 	ldrbeq	r5, [r8, #-768]!	; 0xfffffd00
     210:	05840800 	streq	r0, [r4, #2048]	; 0x800
     214:	00060800 	andeq	r0, r6, r0, lsl #16
     218:	00760070 	rsbseq	r0, r6, r0, ror r0
     21c:	05849f1a 	streq	r9, [r4, #3866]	; 0xf1a
     220:	05880800 	streq	r0, [r8, #2048]	; 0x800
     224:	00010800 	andeq	r0, r1, r0, lsl #16
     228:	00058853 	andeq	r8, r5, r3, asr r8
     22c:	00059408 	andeq	r9, r5, r8, lsl #8
     230:	70000608 	andvc	r0, r0, r8, lsl #12
     234:	1a007600 	bne	1da3c <_Min_Stack_Size+0x1d63c>
     238:	0005949f 	muleq	r5, pc, r4	; <UNPREDICTABLE>
     23c:	00059808 	andeq	r9, r5, r8, lsl #16
     240:	53000108 	movwpl	r0, #264	; 0x108
     244:	08000598 	stmdaeq	r0, {r3, r4, r7, r8, sl}
     248:	080005a4 	stmdaeq	r0, {r2, r5, r7, r8, sl}
     24c:	00700006 	rsbseq	r0, r0, r6
     250:	9f1a0076 	svcls	0x001a0076
     254:	080005a4 	stmdaeq	r0, {r2, r5, r7, r8, sl}
     258:	080005a6 	stmdaeq	r0, {r1, r2, r5, r7, r8, sl}
     25c:	00530001 	subseq	r0, r3, r1
	...
     26c:	01000000 	mrseq	r0, (UNDEF: 0)
     270:	00005000 	andeq	r5, r0, r0
     274:	00000000 	andeq	r0, r0, r0
     278:	00010000 	andeq	r0, r1, r0
     27c:	00000054 	andeq	r0, r0, r4, asr r0
     280:	00000000 	andeq	r0, r0, r0
     284:	f3000400 	vshl.u8	d0, d0, d0
     288:	009f5001 	addseq	r5, pc, r1
	...
     298:	01000000 	mrseq	r0, (UNDEF: 0)
     29c:	00005100 	andeq	r5, r0, r0, lsl #2
     2a0:	00000000 	andeq	r0, r0, r0
     2a4:	00010000 	andeq	r0, r1, r0
     2a8:	00000055 	andeq	r0, r0, r5, asr r0
     2ac:	00000000 	andeq	r0, r0, r0
     2b0:	f3000400 	vshl.u8	d0, d0, d0
     2b4:	009f5101 	addseq	r5, pc, r1, lsl #2
	...
     2c4:	02000000 	andeq	r0, r0, #0
     2c8:	009f3000 	addseq	r3, pc, r0
     2cc:	00000000 	andeq	r0, r0, r0
     2d0:	01000000 	mrseq	r0, (UNDEF: 0)
     2d4:	00005300 	andeq	r5, r0, r0, lsl #6
	...
     2e4:	00020000 	andeq	r0, r2, r0
     2e8:	00009f30 	andeq	r9, r0, r0, lsr pc
     2ec:	00000000 	andeq	r0, r0, r0
     2f0:	00010000 	andeq	r0, r1, r0
     2f4:	00000052 	andeq	r0, r0, r2, asr r0
     2f8:	00000000 	andeq	r0, r0, r0
     2fc:	7d000200 	sfmvc	f0, 4, [r0, #-0]
	...
     310:	30000200 	andcc	r0, r0, r0, lsl #4
     314:	0000009f 	muleq	r0, pc, r0	; <UNPREDICTABLE>
     318:	00000000 	andeq	r0, r0, r0
     31c:	57000100 	strpl	r0, [r0, -r0, lsl #2]
	...
     328:	00570001 	subseq	r0, r7, r1
     32c:	00000000 	andeq	r0, r0, r0
     330:	01000000 	mrseq	r0, (UNDEF: 0)
     334:	00005c00 	andeq	r5, r0, r0, lsl #24
     338:	00000000 	andeq	r0, r0, r0
     33c:	00010000 	andeq	r0, r1, r0
     340:	00000056 	andeq	r0, r0, r6, asr r0
	...
     350:	50000100 	andpl	r0, r0, r0, lsl #2
	...
     35c:	00550001 	subseq	r0, r5, r1
     360:	00000000 	andeq	r0, r0, r0
     364:	04000000 	streq	r0, [r0], #-0
     368:	5001f300 	andpl	pc, r1, r0, lsl #6
     36c:	0000009f 	muleq	r0, pc, r0	; <UNPREDICTABLE>
	...
     37c:	51000100 	mrspl	r0, (UNDEF: 16)
	...
     388:	01f30004 	mvnseq	r0, r4
     38c:	00009f51 	andeq	r9, r0, r1, asr pc
	...
     39c:	000c0000 	andeq	r0, ip, r0
     3a0:	ff0a0074 			; <UNDEFINED> instruction: 0xff0a0074
     3a4:	00701aff 	ldrshteq	r1, [r0], #-175	; 0xffffff51
     3a8:	9f2e301a 	svcls	0x002e301a
	...
     3b4:	080005e8 	stmdaeq	r0, {r3, r5, r6, r7, r8, sl}
     3b8:	080005f8 	stmdaeq	r0, {r3, r4, r5, r6, r7, r8, sl}
     3bc:	f8500001 			; <UNDEFINED> instruction: 0xf8500001
     3c0:	18080005 	stmdane	r8, {r0, r2}
     3c4:	01080006 	tsteq	r8, r6
     3c8:	06185500 	ldreq	r5, [r8], -r0, lsl #10
     3cc:	06200800 	strteq	r0, [r0], -r0, lsl #16
     3d0:	00040800 	andeq	r0, r4, r0, lsl #16
     3d4:	9f5001f3 	svcls	0x005001f3
	...
     3e0:	080005e8 	stmdaeq	r0, {r3, r5, r6, r7, r8, sl}
     3e4:	080005f6 	stmdaeq	r0, {r1, r2, r4, r5, r6, r7, r8, sl}
     3e8:	f6510001 			; <UNDEFINED> instruction: 0xf6510001
     3ec:	20080005 	andcs	r0, r8, r5
     3f0:	04080006 	streq	r0, [r8], #-6
     3f4:	5101f300 	mrspl	pc, SP_irq	; <UNPREDICTABLE>
     3f8:	0000009f 	muleq	r0, pc, r0	; <UNPREDICTABLE>
     3fc:	00000000 	andeq	r0, r0, r0
     400:	0005e800 	andeq	lr, r5, r0, lsl #16
     404:	0005fd08 	andeq	pc, r5, r8, lsl #26
     408:	52000108 	andpl	r0, r0, #8, 2
     40c:	080005fd 	stmdaeq	r0, {r0, r2, r3, r4, r5, r6, r7, r8, sl}
     410:	08000620 	stmdaeq	r0, {r5, r9, sl}
     414:	01f30004 	mvnseq	r0, r4
     418:	00009f52 	andeq	r9, r0, r2, asr pc
     41c:	00000000 	andeq	r0, r0, r0
     420:	06200000 	strteq	r0, [r0], -r0
     424:	062c0800 	strteq	r0, [ip], -r0, lsl #16
     428:	00010800 	andeq	r0, r1, r0, lsl #16
     42c:	00062c50 	andeq	r2, r6, r0, asr ip
     430:	00063808 	andeq	r3, r6, r8, lsl #16
     434:	54000108 	strpl	r0, [r0], #-264	; 0xfffffef8
     438:	08000638 	stmdaeq	r0, {r3, r4, r5, r9, sl}
     43c:	08000640 	stmdaeq	r0, {r6, r9, sl}
     440:	01f30004 	mvnseq	r0, r4
     444:	00009f50 	andeq	r9, r0, r0, asr pc
     448:	00000000 	andeq	r0, r0, r0
     44c:	06200000 	strteq	r0, [r0], -r0
     450:	062a0800 	strteq	r0, [sl], -r0, lsl #16
     454:	00010800 	andeq	r0, r1, r0, lsl #16
     458:	00062a51 	andeq	r2, r6, r1, asr sl
     45c:	00064008 	andeq	r4, r6, r8
     460:	f3000408 	vshl.u8	d0, d8, d0
     464:	009f5101 	addseq	r5, pc, r1, lsl #2
	...
     474:	01000000 	mrseq	r0, (UNDEF: 0)
     478:	00005000 	andeq	r5, r0, r0
     47c:	00000000 	andeq	r0, r0, r0
     480:	00010000 	andeq	r0, r1, r0
     484:	00000054 	andeq	r0, r0, r4, asr r0
     488:	00000000 	andeq	r0, r0, r0
     48c:	f3000400 	vshl.u8	d0, d0, d0
     490:	009f5001 	addseq	r5, pc, r1
	...
     4a0:	01000000 	mrseq	r0, (UNDEF: 0)
     4a4:	00005100 	andeq	r5, r0, r0, lsl #2
     4a8:	00000000 	andeq	r0, r0, r0
     4ac:	00040000 	andeq	r0, r4, r0
     4b0:	9f5101f3 	svcls	0x005101f3
	...
     4c4:	00500001 	subseq	r0, r0, r1
     4c8:	00000000 	andeq	r0, r0, r0
     4cc:	04000000 	streq	r0, [r0], #-0
     4d0:	5001f300 	andpl	pc, r1, r0, lsl #6
     4d4:	0000009f 	muleq	r0, pc, r0	; <UNPREDICTABLE>
     4d8:	00000000 	andeq	r0, r0, r0
     4dc:	00064000 	andeq	r4, r6, r0
     4e0:	00064e08 	andeq	r4, r6, r8, lsl #28
     4e4:	50000108 	andpl	r0, r0, r8, lsl #2
     4e8:	0800064e 	stmdaeq	r0, {r1, r2, r3, r6, r9, sl}
     4ec:	0800071e 	stmdaeq	r0, {r1, r2, r3, r4, r8, r9, sl}
     4f0:	1e540001 	cdpne	0, 5, cr0, cr4, cr1, {0}
     4f4:	22080007 	andcs	r0, r8, #7
     4f8:	04080007 	streq	r0, [r8], #-7
     4fc:	5001f300 	andpl	pc, r1, r0, lsl #6
     500:	0007229f 	muleq	r7, pc, r2	; <UNPREDICTABLE>
     504:	000a7808 	andeq	r7, sl, r8, lsl #16
     508:	54000108 	strpl	r0, [r0], #-264	; 0xfffffef8
     50c:	08000a78 	stmdaeq	r0, {r3, r4, r5, r6, r9, fp}
     510:	08000a7c 	stmdaeq	r0, {r2, r3, r4, r5, r6, r9, fp}
     514:	01f30004 	mvnseq	r0, r4
     518:	0a7c9f50 	beq	1f28260 <_Min_Stack_Size+0x1f27e60>
     51c:	0b3c0800 	bleq	f02524 <_Min_Stack_Size+0xf02124>
     520:	00010800 	andeq	r0, r1, r0, lsl #16
     524:	000b3c54 	andeq	r3, fp, r4, asr ip
     528:	000b4e08 	andeq	r4, fp, r8, lsl #28
     52c:	f3000408 	vshl.u8	d0, d8, d0
     530:	4e9f5001 	cdpmi	0, 9, cr5, cr15, cr1, {0}
     534:	5a08000b 	bpl	200568 <_Min_Stack_Size+0x200168>
     538:	0108000b 	tsteq	r8, fp
     53c:	0b5a5400 	bleq	1695544 <_Min_Stack_Size+0x1695144>
     540:	0b6c0800 	bleq	1b02548 <_Min_Stack_Size+0x1b02148>
     544:	00040800 	andeq	r0, r4, r0, lsl #16
     548:	9f5001f3 	svcls	0x005001f3
     54c:	08000b6c 	stmdaeq	r0, {r2, r3, r5, r6, r8, r9, fp}
     550:	08000b88 	stmdaeq	r0, {r3, r7, r8, r9, fp}
     554:	88540001 	ldmdahi	r4, {r0}^
     558:	c408000b 	strgt	r0, [r8], #-11
     55c:	0408000b 	streq	r0, [r8], #-11
     560:	5001f300 	andpl	pc, r1, r0, lsl #6
     564:	0000009f 	muleq	r0, pc, r0	; <UNPREDICTABLE>
     568:	00000000 	andeq	r0, r0, r0
     56c:	00064000 	andeq	r4, r6, r0
     570:	00066e08 	andeq	r6, r6, r8, lsl #28
     574:	30000208 	andcc	r0, r0, r8, lsl #4
     578:	0006769f 	muleq	r6, pc, r6	; <UNPREDICTABLE>
     57c:	0006ba08 	andeq	fp, r6, r8, lsl #20
     580:	30000208 	andcc	r0, r0, r8, lsl #4
     584:	0006be9f 	muleq	r6, pc, lr	; <UNPREDICTABLE>
     588:	0006de08 	andeq	sp, r6, r8, lsl #28
     58c:	30000208 	andcc	r0, r0, r8, lsl #4
     590:	0006de9f 	muleq	r6, pc, lr	; <UNPREDICTABLE>
     594:	0006e008 	andeq	lr, r6, r8
     598:	50000108 	andpl	r0, r0, r8, lsl #2
     59c:	080006e0 	stmdaeq	r0, {r5, r6, r7, r9, sl}
     5a0:	0800070e 	stmdaeq	r0, {r1, r2, r3, r8, r9, sl}
     5a4:	9f300002 	svcls	0x00300002
     5a8:	0800070e 	stmdaeq	r0, {r1, r2, r3, r8, r9, sl}
     5ac:	0800071e 	stmdaeq	r0, {r1, r2, r3, r4, r8, r9, sl}
     5b0:	22560001 	subscs	r0, r6, #1
     5b4:	34080007 	strcc	r0, [r8], #-7
     5b8:	01080007 	tsteq	r8, r7
     5bc:	07a65600 	streq	r5, [r6, r0, lsl #12]!
     5c0:	07ca0800 	strbeq	r0, [sl, r0, lsl #16]
     5c4:	00010800 	andeq	r0, r1, r0, lsl #16
     5c8:	0007d656 	andeq	sp, r7, r6, asr r6
     5cc:	0007e808 	andeq	lr, r7, r8, lsl #16
     5d0:	56000108 	strpl	r0, [r0], -r8, lsl #2
     5d4:	0800081c 	stmdaeq	r0, {r2, r3, r4, fp}
     5d8:	0800082e 	stmdaeq	r0, {r1, r2, r3, r5, fp}
     5dc:	3a560001 	bcc	15805e8 <_Min_Stack_Size+0x15801e8>
     5e0:	4c080008 	stcmi	0, cr0, [r8], {8}
     5e4:	01080008 	tsteq	r8, r8
     5e8:	08a25600 	stmiaeq	r2!, {r9, sl, ip, lr}
     5ec:	08b60800 	ldmeq	r6!, {fp}
     5f0:	00020800 	andeq	r0, r2, r0, lsl #16
     5f4:	08d05c91 	ldmeq	r0, {r0, r4, r7, sl, fp, ip, lr}^
     5f8:	08d20800 	ldmeq	r2, {fp}^
     5fc:	00010800 	andeq	r0, r1, r0, lsl #16
     600:	00090c50 	andeq	r0, r9, r0, asr ip
     604:	00092c08 	andeq	r2, r9, r8, lsl #24
     608:	56000108 	strpl	r0, [r0], -r8, lsl #2
     60c:	08000970 	stmdaeq	r0, {r4, r5, r6, r8, fp}
     610:	08000994 	stmdaeq	r0, {r2, r4, r7, r8, fp}
     614:	c2560001 	subsgt	r0, r6, #1
     618:	d4080009 	strle	r0, [r8], #-9
     61c:	01080009 	tsteq	r8, r9
     620:	0a405600 	beq	1015e28 <_Min_Stack_Size+0x1015a28>
     624:	0a520800 	beq	148262c <_Min_Stack_Size+0x148222c>
     628:	00010800 	andeq	r0, r1, r0, lsl #16
     62c:	000a6056 	andeq	r6, sl, r6, asr r0
     630:	000a7208 	andeq	r7, sl, r8, lsl #4
     634:	56000108 	strpl	r0, [r0], -r8, lsl #2
     638:	08000afc 	stmdaeq	r0, {r2, r3, r4, r5, r6, r7, r9, fp}
     63c:	08000b3c 	stmdaeq	r0, {r2, r3, r4, r5, r8, r9, fp}
     640:	3c560001 	mrrccc	0, 0, r0, r6, cr1
     644:	4e08000b 	cdpmi	0, 0, cr0, cr8, cr11, {0}
     648:	0108000b 	tsteq	r8, fp
     64c:	0b5a5400 	bleq	1695654 <_Min_Stack_Size+0x1695254>
     650:	0b6c0800 	bleq	1b02658 <_Min_Stack_Size+0x1b02258>
     654:	00010800 	andeq	r0, r1, r0, lsl #16
     658:	000b7254 	andeq	r7, fp, r4, asr r2
     65c:	000b8808 	andeq	r8, fp, r8, lsl #16
     660:	56000108 	strpl	r0, [r0], -r8, lsl #2
	...
     66c:	0800084c 	stmdaeq	r0, {r2, r3, r6, fp}
     670:	0800087e 	stmdaeq	r0, {r1, r2, r3, r4, r5, r6, fp}
     674:	9f300002 	svcls	0x00300002
     678:	0800087e 	stmdaeq	r0, {r1, r2, r3, r4, r5, r6, fp}
     67c:	0800092c 	stmdaeq	r0, {r2, r3, r5, r8, fp}
     680:	6c570001 	mrrcvs	0, 0, r0, r7, cr1
     684:	8808000b 	stmdahi	r8, {r0, r1, r3}
     688:	0108000b 	tsteq	r8, fp
     68c:	00005700 	andeq	r5, r0, r0, lsl #14
	...
     69c:	00010000 	andeq	r0, r1, r0
     6a0:	00000050 	andeq	r0, r0, r0, asr r0
     6a4:	00000000 	andeq	r0, r0, r0
     6a8:	f3000400 	vshl.u8	d0, d0, d0
     6ac:	009f5001 	addseq	r5, pc, r1
	...
     6bc:	01000000 	mrseq	r0, (UNDEF: 0)
     6c0:	00005100 	andeq	r5, r0, r0, lsl #2
     6c4:	00000000 	andeq	r0, r0, r0
     6c8:	00010000 	andeq	r0, r1, r0
     6cc:	00000056 	andeq	r0, r0, r6, asr r0
     6d0:	00000000 	andeq	r0, r0, r0
     6d4:	f3000400 	vshl.u8	d0, d0, d0
     6d8:	009f5101 	addseq	r5, pc, r1, lsl #2
	...
     6e8:	01000000 	mrseq	r0, (UNDEF: 0)
     6ec:	00005200 	andeq	r5, r0, r0, lsl #4
     6f0:	00000000 	andeq	r0, r0, r0
     6f4:	00010000 	andeq	r0, r1, r0
     6f8:	00000055 	andeq	r0, r0, r5, asr r0
     6fc:	00000000 	andeq	r0, r0, r0
     700:	f3000400 	vshl.u8	d0, d0, d0
     704:	009f5201 	addseq	r5, pc, r1, lsl #4
     708:	00000000 	andeq	r0, r0, r0
     70c:	e2000000 	and	r0, r0, #0
     710:	e808000b 	stmda	r8, {r0, r1, r3}
     714:	0208000b 	andeq	r0, r8, #11
     718:	e89f3000 	ldm	pc, {ip, sp}	; <UNPREDICTABLE>
     71c:	0e08000b 	cdpeq	0, 0, cr0, cr8, cr11, {0}
     720:	0108000c 	tsteq	r8, ip
     724:	0c265300 	stceq	3, cr5, [r6], #-0
     728:	0c280800 	stceq	8, cr0, [r8], #-0
     72c:	00010800 	andeq	r0, r1, r0, lsl #16
     730:	00000053 	andeq	r0, r0, r3, asr r0
     734:	00000000 	andeq	r0, r0, r0
     738:	000be200 	andeq	lr, fp, r0, lsl #4
     73c:	000c0808 	andeq	r0, ip, r8, lsl #16
     740:	30000208 	andcc	r0, r0, r8, lsl #4
     744:	000c089f 	muleq	ip, pc, r8	; <UNPREDICTABLE>
     748:	000c1d08 	andeq	r1, ip, r8, lsl #26
     74c:	51000108 	tstpl	r0, r8, lsl #2
     750:	08000c22 	stmdaeq	r0, {r1, r5, sl, fp}
     754:	08000c26 	stmdaeq	r0, {r1, r2, r5, sl, fp}
     758:	26510001 	ldrbcs	r0, [r1], -r1
     75c:	2808000c 	stmdacs	r8, {r2, r3}
     760:	0208000c 	andeq	r0, r8, #12
     764:	009f3000 	addseq	r3, pc, r0
     768:	00000000 	andeq	r0, r0, r0
     76c:	e2000000 	and	r0, r0, #0
     770:	2008000b 	andcs	r0, r8, fp
     774:	0208000c 	andeq	r0, r8, #12
     778:	209f3000 	addscs	r3, pc, r0
     77c:	2208000c 	andcs	r0, r8, #12
     780:	0108000c 	tsteq	r8, ip
     784:	0c225000 	stceq	0, cr5, [r2], #-0
     788:	0c280800 	stceq	8, cr0, [r8], #-0
     78c:	00020800 	andeq	r0, r2, r0, lsl #16
     790:	00009f30 	andeq	r9, r0, r0, lsr pc
     794:	00000000 	andeq	r0, r0, r0
     798:	0be20000 	bleq	ff8807a0 <_estack+0xdf87c7a0>
     79c:	0bfe0800 	bleq	fff827a4 <_estack+0xdff7e7a4>
     7a0:	00020800 	andeq	r0, r2, r0, lsl #16
     7a4:	0bfe9f30 	bleq	fffa846c <_estack+0xdffa446c>
     7a8:	0c260800 	stceq	8, cr0, [r6], #-0
     7ac:	00010800 	andeq	r0, r1, r0, lsl #16
     7b0:	000c2654 	andeq	r2, ip, r4, asr r6
     7b4:	000c2808 	andeq	r2, ip, r8, lsl #16
     7b8:	30000208 	andcc	r0, r0, r8, lsl #4
     7bc:	0000009f 	muleq	r0, pc, r0	; <UNPREDICTABLE>
     7c0:	00000000 	andeq	r0, r0, r0
     7c4:	000be200 	andeq	lr, fp, r0, lsl #4
     7c8:	000c2808 	andeq	r2, ip, r8, lsl #16
     7cc:	30000208 	andcc	r0, r0, r8, lsl #4
     7d0:	000c289f 	muleq	ip, pc, r8	; <UNPREDICTABLE>
     7d4:	000c3c08 	andeq	r3, ip, r8, lsl #24
     7d8:	50000108 	andpl	r0, r0, r8, lsl #2
	...
     7e4:	08000c3c 	stmdaeq	r0, {r2, r3, r4, r5, sl, fp}
     7e8:	08000c48 	stmdaeq	r0, {r3, r6, sl, fp}
     7ec:	48500001 	ldmdami	r0, {r0}^
     7f0:	0c08000c 	stceq	0, cr0, [r8], {12}
     7f4:	0108000e 	tsteq	r8, lr
     7f8:	0e0c5400 	cfcpyseq	mvf5, mvf12
     7fc:	0e480800 	cdpeq	8, 4, cr0, cr8, cr0, {0}
     800:	00040800 	andeq	r0, r4, r0, lsl #16
     804:	9f5001f3 	svcls	0x005001f3
	...
     810:	08000c3c 	stmdaeq	r0, {r2, r3, r4, r5, sl, fp}
     814:	08000c4a 	stmdaeq	r0, {r1, r3, r6, sl, fp}
     818:	4a510001 	bmi	1440824 <_Min_Stack_Size+0x1440424>
     81c:	0c08000c 	stceq	0, cr0, [r8], {12}
     820:	0108000e 	tsteq	r8, lr
     824:	0e0c5700 	cdpeq	7, 0, cr5, cr12, cr0, {0}
     828:	0e480800 	cdpeq	8, 4, cr0, cr8, cr0, {0}
     82c:	00040800 	andeq	r0, r4, r0, lsl #16
     830:	9f5101f3 	svcls	0x005101f3
	...
     83c:	08000c3c 	stmdaeq	r0, {r2, r3, r4, r5, sl, fp}
     840:	08000c8e 	stmdaeq	r0, {r1, r2, r3, r7, sl, fp}
     844:	9f300002 	svcls	0x00300002
     848:	08000c92 	stmdaeq	r0, {r1, r4, r7, sl, fp}
     84c:	08000cda 	stmdaeq	r0, {r1, r3, r4, r6, r7, sl, fp}
     850:	9f300002 	svcls	0x00300002
     854:	08000ce8 	stmdaeq	r0, {r3, r5, r6, r7, sl, fp}
     858:	08000d36 	stmdaeq	r0, {r1, r2, r4, r5, r8, sl, fp}
     85c:	9f300002 	svcls	0x00300002
     860:	08000d36 	stmdaeq	r0, {r1, r2, r4, r5, r8, sl, fp}
     864:	08000d3a 	stmdaeq	r0, {r1, r3, r4, r5, r8, sl, fp}
     868:	3a500001 	bcc	1400874 <_Min_Stack_Size+0x1400474>
     86c:	5608000d 	strpl	r0, [r8], -sp
     870:	0208000d 	andeq	r0, r8, #13
     874:	56649100 	strbtpl	r9, [r4], -r0, lsl #2
     878:	5a08000d 	bpl	2008b4 <_Min_Stack_Size+0x2004b4>
     87c:	0108000d 	tsteq	r8, sp
     880:	0d5a5000 	ldcleq	0, cr5, [sl, #-0]
     884:	0d740800 	ldcleq	8, cr0, [r4, #-0]
     888:	00020800 	andeq	r0, r2, r0, lsl #16
     88c:	0d746491 	cfldrdeq	mvd6, [r4, #-580]!	; 0xfffffdbc
     890:	0d780800 	ldcleq	8, cr0, [r8, #-0]
     894:	00010800 	andeq	r0, r1, r0, lsl #16
     898:	000d7850 	andeq	r7, sp, r0, asr r8
     89c:	000daa08 	andeq	sl, sp, r8, lsl #20
     8a0:	91000208 	tstls	r0, r8, lsl #4
     8a4:	00000064 	andeq	r0, r0, r4, rrx
	...
     8b4:	50000100 	andpl	r0, r0, r0, lsl #2
	...
     8c0:	00540001 	subseq	r0, r4, r1
     8c4:	00000000 	andeq	r0, r0, r0
     8c8:	04000000 	streq	r0, [r0], #-0
     8cc:	5001f300 	andpl	pc, r1, r0, lsl #6
     8d0:	0000009f 	muleq	r0, pc, r0	; <UNPREDICTABLE>
	...
     8e0:	50000100 	andpl	r0, r0, r0, lsl #2
	...
     8ec:	00540001 	subseq	r0, r4, r1
     8f0:	00000000 	andeq	r0, r0, r0
     8f4:	04000000 	streq	r0, [r0], #-0
     8f8:	5001f300 	andpl	pc, r1, r0, lsl #6
     8fc:	0000009f 	muleq	r0, pc, r0	; <UNPREDICTABLE>
	...
     90c:	51000100 	mrspl	r0, (UNDEF: 16)
	...
     918:	00550001 	subseq	r0, r5, r1
     91c:	00000000 	andeq	r0, r0, r0
     920:	04000000 	streq	r0, [r0], #-0
     924:	5101f300 	mrspl	pc, SP_irq	; <UNPREDICTABLE>
     928:	0000009f 	muleq	r0, pc, r0	; <UNPREDICTABLE>
     92c:	00000000 	andeq	r0, r0, r0
     930:	000e5400 	andeq	r5, lr, r0, lsl #8
     934:	000e6008 	andeq	r6, lr, r8
     938:	50000108 	andpl	r0, r0, r8, lsl #2
     93c:	08000e60 	stmdaeq	r0, {r5, r6, r9, sl, fp}
     940:	08000ecc 	stmdaeq	r0, {r2, r3, r6, r7, r9, sl, fp}
     944:	01f30004 	mvnseq	r0, r4
     948:	00009f50 	andeq	r9, r0, r0, asr pc
     94c:	00000000 	andeq	r0, r0, r0
     950:	0e540000 	cdpeq	0, 5, cr0, cr4, cr0, {0}
     954:	0e620800 	cdpeq	8, 6, cr0, cr2, cr0, {0}
     958:	00010800 	andeq	r0, r1, r0, lsl #16
     95c:	000e6251 	andeq	r6, lr, r1, asr r2
     960:	000e8a08 	andeq	r8, lr, r8, lsl #20
     964:	55000108 	strpl	r0, [r0, #-264]	; 0xfffffef8
     968:	08000e8a 	stmdaeq	r0, {r1, r3, r7, r9, sl, fp}
     96c:	08000e98 	stmdaeq	r0, {r3, r4, r7, r9, sl, fp}
     970:	01f30004 	mvnseq	r0, r4
     974:	0e989f51 	mrceq	15, 4, r9, cr8, cr1, {2}
     978:	0eac0800 	cdpeq	8, 10, cr0, cr12, cr0, {0}
     97c:	00010800 	andeq	r0, r1, r0, lsl #16
     980:	000eac55 	andeq	sl, lr, r5, asr ip
     984:	000ecc08 	andeq	ip, lr, r8, lsl #24
     988:	f3000408 	vshl.u8	d0, d8, d0
     98c:	009f5101 	addseq	r5, pc, r1, lsl #2
     990:	00000000 	andeq	r0, r0, r0
     994:	54000000 	strpl	r0, [r0], #-0
     998:	6508000e 	strvs	r0, [r8, #-14]
     99c:	0108000e 	tsteq	r8, lr
     9a0:	0e655200 	cdpeq	2, 6, cr5, cr5, cr0, {0}
     9a4:	0ecc0800 	cdpeq	8, 12, cr0, cr12, cr0, {0}
     9a8:	00040800 	andeq	r0, r4, r0, lsl #16
     9ac:	9f5201f3 	svcls	0x005201f3
	...
     9b8:	08000e66 	stmdaeq	r0, {r1, r2, r5, r6, r9, sl, fp}
     9bc:	08000e8a 	stmdaeq	r0, {r1, r3, r7, r9, sl, fp}
     9c0:	8a550001 	bhi	15409cc <_Min_Stack_Size+0x15405cc>
     9c4:	9808000e 	stmdals	r8, {r1, r2, r3}
     9c8:	0408000e 	streq	r0, [r8], #-14
     9cc:	5101f300 	mrspl	pc, SP_irq	; <UNPREDICTABLE>
     9d0:	000e989f 	muleq	lr, pc, r8	; <UNPREDICTABLE>
     9d4:	000eac08 	andeq	sl, lr, r8, lsl #24
     9d8:	55000108 	strpl	r0, [r0, #-264]	; 0xfffffef8
     9dc:	08000eac 	stmdaeq	r0, {r2, r3, r5, r7, r9, sl, fp}
     9e0:	08000ecc 	stmdaeq	r0, {r2, r3, r6, r7, r9, sl, fp}
     9e4:	01f30004 	mvnseq	r0, r4
     9e8:	00009f51 	andeq	r9, r0, r1, asr pc
     9ec:	00000000 	andeq	r0, r0, r0
     9f0:	0e660000 	cdpeq	0, 6, cr0, cr6, cr0, {0}
     9f4:	0e820800 	cdpeq	8, 8, cr0, cr2, cr0, {0}
     9f8:	00010800 	andeq	r0, r1, r0, lsl #16
     9fc:	000e9854 	andeq	r9, lr, r4, asr r8
     a00:	000ea608 	andeq	sl, lr, r8, lsl #12
     a04:	54000108 	strpl	r0, [r0], #-264	; 0xfffffef8
	...
     a10:	08000e6c 	stmdaeq	r0, {r2, r3, r5, r6, r9, sl, fp}
     a14:	08000e8a 	stmdaeq	r0, {r1, r3, r7, r9, sl, fp}
     a18:	8a550001 	bhi	1540a24 <_Min_Stack_Size+0x1540624>
     a1c:	9808000e 	stmdals	r8, {r1, r2, r3}
     a20:	0408000e 	streq	r0, [r8], #-14
     a24:	5101f300 	mrspl	pc, SP_irq	; <UNPREDICTABLE>
     a28:	0000009f 	muleq	r0, pc, r0	; <UNPREDICTABLE>
     a2c:	00000000 	andeq	r0, r0, r0
     a30:	000e6c00 	andeq	r6, lr, r0, lsl #24
     a34:	000e8208 	andeq	r8, lr, r8, lsl #4
     a38:	54000108 	strpl	r0, [r0], #-264	; 0xfffffef8
	...
     a44:	08000ecc 	stmdaeq	r0, {r2, r3, r6, r7, r9, sl, fp}
     a48:	08000ed4 	stmdaeq	r0, {r2, r4, r6, r7, r9, sl, fp}
     a4c:	d4500001 	ldrble	r0, [r0], #-1
     a50:	f408000e 	vst4.8	{d0-d3}, [r8], lr
     a54:	0408000e 	streq	r0, [r8], #-14
     a58:	5001f300 	andpl	pc, r1, r0, lsl #6
     a5c:	0000009f 	muleq	r0, pc, r0	; <UNPREDICTABLE>
     a60:	00000000 	andeq	r0, r0, r0
     a64:	000eda00 	andeq	sp, lr, r0, lsl #20
     a68:	000ee808 	andeq	lr, lr, r8, lsl #16
     a6c:	54000108 	strpl	r0, [r0], #-264	; 0xfffffef8
	...
     a80:	00500001 	subseq	r0, r0, r1
     a84:	00000000 	andeq	r0, r0, r0
     a88:	04000000 	streq	r0, [r0], #-0
     a8c:	5001f300 	andpl	pc, r1, r0, lsl #6
     a90:	0000009f 	muleq	r0, pc, r0	; <UNPREDICTABLE>
	...
     aa0:	54000100 	strpl	r0, [r0], #-256	; 0xffffff00
	...
     aac:	08000ef4 	stmdaeq	r0, {r2, r4, r5, r6, r7, r9, sl, fp}
     ab0:	08000efa 	stmdaeq	r0, {r1, r3, r4, r5, r6, r7, r9, sl, fp}
     ab4:	fa500001 	blx	1400ac0 <_Min_Stack_Size+0x14006c0>
     ab8:	0808000e 	stmdaeq	r8, {r1, r2, r3}
     abc:	0308000f 	movweq	r0, #32783	; 0x800f
     ac0:	9f017300 	svcls	0x00017300
     ac4:	08000f08 	stmdaeq	r0, {r3, r8, r9, sl, fp}
     ac8:	08000f12 	stmdaeq	r0, {r1, r4, r8, r9, sl, fp}
     acc:	04720006 	ldrbteq	r0, [r2], #-6
     ad0:	9f012306 	svcls	0x00012306
     ad4:	08000f12 	stmdaeq	r0, {r1, r4, r8, r9, sl, fp}
     ad8:	08000f28 	stmdaeq	r0, {r3, r5, r8, r9, sl, fp}
     adc:	01f30004 	mvnseq	r0, r4
     ae0:	00009f50 	andeq	r9, r0, r0, asr pc
     ae4:	00000000 	andeq	r0, r0, r0
     ae8:	0f060000 	svceq	0x00060000
     aec:	0f1a0800 	svceq	0x001a0800
     af0:	00020800 	andeq	r0, r2, r0, lsl #16
     af4:	00009f33 	andeq	r9, r0, r3, lsr pc
     af8:	00000000 	andeq	r0, r0, r0
     afc:	0f060000 	svceq	0x00060000
     b00:	0f1a0800 	svceq	0x001a0800
     b04:	00030800 	andeq	r0, r3, r0, lsl #16
     b08:	009fff09 	addseq	pc, pc, r9, lsl #30
	...
     b18:	01000000 	mrseq	r0, (UNDEF: 0)
     b1c:	00005000 	andeq	r5, r0, r0
     b20:	00000000 	andeq	r0, r0, r0
     b24:	00040000 	andeq	r0, r4, r0
     b28:	9f5001f3 	svcls	0x005001f3
	...
     b3c:	00500001 	subseq	r0, r0, r1
     b40:	00000000 	andeq	r0, r0, r0
     b44:	04000000 	streq	r0, [r0], #-0
     b48:	5001f300 	andpl	pc, r1, r0, lsl #6
     b4c:	0000009f 	muleq	r0, pc, r0	; <UNPREDICTABLE>
	...
     b5c:	54000100 	strpl	r0, [r0], #-256	; 0xffffff00
	...
     b70:	00500001 	subseq	r0, r0, r1
     b74:	00000000 	andeq	r0, r0, r0
     b78:	04000000 	streq	r0, [r0], #-0
     b7c:	5001f300 	andpl	pc, r1, r0, lsl #6
     b80:	0000009f 	muleq	r0, pc, r0	; <UNPREDICTABLE>
	...
     b90:	54000100 	strpl	r0, [r0], #-256	; 0xffffff00
	...
     ba4:	00500001 	subseq	r0, r0, r1
     ba8:	00000000 	andeq	r0, r0, r0
     bac:	04000000 	streq	r0, [r0], #-0
     bb0:	5001f300 	andpl	pc, r1, r0, lsl #6
     bb4:	0000009f 	muleq	r0, pc, r0	; <UNPREDICTABLE>
	...
     bc4:	54000100 	strpl	r0, [r0], #-256	; 0xffffff00
	...
     bd8:	00500001 	subseq	r0, r0, r1
     bdc:	00000000 	andeq	r0, r0, r0
     be0:	04000000 	streq	r0, [r0], #-0
     be4:	5001f300 	andpl	pc, r1, r0, lsl #6
     be8:	0000009f 	muleq	r0, pc, r0	; <UNPREDICTABLE>
     bec:	00000000 	andeq	r0, r0, r0
     bf0:	50000100 	andpl	r0, r0, r0, lsl #2
	...
     bfc:	01f30004 	mvnseq	r0, r4
     c00:	00009f50 	andeq	r9, r0, r0, asr pc
     c04:	00000000 	andeq	r0, r0, r0
     c08:	0f280000 	svceq	0x00280000
     c0c:	0fa40800 	svceq	0x00a40800
     c10:	00010800 	andeq	r0, r1, r0, lsl #16
     c14:	000fa450 	andeq	sl, pc, r0, asr r4	; <UNPREDICTABLE>
     c18:	000fcc08 	andeq	ip, pc, r8, lsl #24
     c1c:	f3000408 	vshl.u8	d0, d8, d0
     c20:	009f5001 	addseq	r5, pc, r1
	...
     c30:	01000000 	mrseq	r0, (UNDEF: 0)
     c34:	00005000 	andeq	r5, r0, r0
     c38:	00000000 	andeq	r0, r0, r0
     c3c:	00040000 	andeq	r0, r4, r0
     c40:	9f5001f3 	svcls	0x005001f3
	...
     c54:	00500001 	subseq	r0, r0, r1
     c58:	00000000 	andeq	r0, r0, r0
     c5c:	04000000 	streq	r0, [r0], #-0
     c60:	5001f300 	andpl	pc, r1, r0, lsl #6
     c64:	0000009f 	muleq	r0, pc, r0	; <UNPREDICTABLE>
     c68:	00000000 	andeq	r0, r0, r0
     c6c:	000fcc00 	andeq	ip, pc, r0, lsl #24
     c70:	000fd408 	andeq	sp, pc, r8, lsl #8
     c74:	50000108 	andpl	r0, r0, r8, lsl #2
     c78:	08000fd4 	stmdaeq	r0, {r2, r4, r6, r7, r8, r9, sl, fp}
     c7c:	08000fe8 	stmdaeq	r0, {r3, r5, r6, r7, r8, r9, sl, fp}
     c80:	01f30004 	mvnseq	r0, r4
     c84:	00009f50 	andeq	r9, r0, r0, asr pc
	...
     c94:	00010000 	andeq	r0, r1, r0
     c98:	00000050 	andeq	r0, r0, r0, asr r0
     c9c:	00000000 	andeq	r0, r0, r0
     ca0:	f3000400 	vshl.u8	d0, d0, d0
     ca4:	009f5001 	addseq	r5, pc, r1
     ca8:	00000000 	andeq	r0, r0, r0
     cac:	01000000 	mrseq	r0, (UNDEF: 0)
     cb0:	00005000 	andeq	r5, r0, r0
     cb4:	00000000 	andeq	r0, r0, r0
     cb8:	00040000 	andeq	r0, r4, r0
     cbc:	9f5001f3 	svcls	0x005001f3
	...
     cd0:	00510001 	subseq	r0, r1, r1
     cd4:	00000000 	andeq	r0, r0, r0
     cd8:	04000000 	streq	r0, [r0], #-0
     cdc:	5101f300 	mrspl	pc, SP_irq	; <UNPREDICTABLE>
     ce0:	0000009f 	muleq	r0, pc, r0	; <UNPREDICTABLE>
     ce4:	00000000 	andeq	r0, r0, r0
     ce8:	51000100 	mrspl	r0, (UNDEF: 16)
	...
     cf4:	01f30004 	mvnseq	r0, r4
     cf8:	00009f51 	andeq	r9, r0, r1, asr pc
	...
     d08:	00010000 	andeq	r0, r1, r0
     d0c:	00000050 	andeq	r0, r0, r0, asr r0
     d10:	00000000 	andeq	r0, r0, r0
     d14:	f3000400 	vshl.u8	d0, d0, d0
     d18:	009f5001 	addseq	r5, pc, r1
	...
     d28:	02000000 	andeq	r0, r0, #0
     d2c:	009f3000 	addseq	r3, pc, r0
     d30:	00000000 	andeq	r0, r0, r0
     d34:	05000000 	streq	r0, [r0, #-0]
     d38:	3c007200 	sfmcc	f7, 4, [r0], {-0}
     d3c:	00009f1a 	andeq	r9, r0, sl, lsl pc
     d40:	00000000 	andeq	r0, r0, r0
     d44:	00010000 	andeq	r0, r1, r0
     d48:	00000053 	andeq	r0, r0, r3, asr r0
     d4c:	00000000 	andeq	r0, r0, r0
     d50:	72000500 	andvc	r0, r0, #0, 10
     d54:	9f1a3c00 	svcls	0x001a3c00
	...
     d60:	00530001 	subseq	r0, r3, r1
     d64:	00000000 	andeq	r0, r0, r0
     d68:	05000000 	streq	r0, [r0, #-0]
     d6c:	3c007200 	sfmcc	f7, 4, [r0], {-0}
     d70:	00009f1a 	andeq	r9, r0, sl, lsl pc
     d74:	00000000 	andeq	r0, r0, r0
     d78:	00130000 	andseq	r0, r3, r0
     d7c:	f0080073 			; <UNDEFINED> instruction: 0xf0080073
     d80:	0325341a 			; <UNDEFINED> instruction: 0x0325341a
     d84:	08001334 	stmdaeq	r0, {r2, r4, r5, r8, r9, ip}
     d88:	08019422 	stmdaeq	r1, {r1, r5, sl, ip, pc}
     d8c:	009f1aff 			; <UNDEFINED> instruction: 0x009f1aff
	...
     d9c:	02000000 	andeq	r0, r0, #0
     da0:	009f3000 	addseq	r3, pc, r0
     da4:	00000000 	andeq	r0, r0, r0
     da8:	07000000 	streq	r0, [r0, -r0]
     dac:	4e007400 	cfcpysmi	mvf7, mvf0
     db0:	9f1a2441 	svcls	0x001a2441
	...
     dbc:	00540001 	subseq	r0, r4, r1
	...
     dcc:	02000000 	andeq	r0, r0, #0
     dd0:	009f3000 	addseq	r3, pc, r0
     dd4:	00000000 	andeq	r0, r0, r0
     dd8:	01000000 	mrseq	r0, (UNDEF: 0)
     ddc:	00005200 	andeq	r5, r0, r0, lsl #4
	...
     dec:	00020000 	andeq	r0, r2, r0
     df0:	00009f30 	andeq	r9, r0, r0, lsr pc
     df4:	00000000 	andeq	r0, r0, r0
     df8:	00010000 	andeq	r0, r1, r0
     dfc:	00000051 	andeq	r0, r0, r1, asr r0
     e00:	00000000 	andeq	r0, r0, r0
     e04:	00109c00 	andseq	r9, r0, r0, lsl #24
     e08:	0010a408 	andseq	sl, r0, r8, lsl #8
     e0c:	50000108 	andpl	r0, r0, r8, lsl #2
     e10:	080010a4 	stmdaeq	r0, {r2, r5, r7, ip}
     e14:	080010a9 	stmdaeq	r0, {r0, r3, r5, r7, ip}
     e18:	a9510001 	ldmdbge	r1, {r0}^
     e1c:	ac080010 	stcge	0, cr0, [r8], {16}
     e20:	04080010 	streq	r0, [r8], #-16
     e24:	5001f300 	andpl	pc, r1, r0, lsl #6
     e28:	0000009f 	muleq	r0, pc, r0	; <UNPREDICTABLE>
     e2c:	00000000 	andeq	r0, r0, r0
     e30:	0010b600 	andseq	fp, r0, r0, lsl #12
     e34:	0010c008 	andseq	ip, r0, r8
     e38:	54000108 	strpl	r0, [r0], #-264	; 0xfffffef8
	...
     e44:	080010b6 	stmdaeq	r0, {r1, r2, r4, r5, r7, ip}
     e48:	080010c4 	stmdaeq	r0, {r2, r6, r7, ip}
     e4c:	c4540001 	ldrbgt	r0, [r4], #-1
     e50:	c6080010 			; <UNDEFINED> instruction: 0xc6080010
     e54:	03080010 	movweq	r0, #32784	; 0x8010
     e58:	9f017400 	svcls	0x00017400
     e5c:	080010c6 	stmdaeq	r0, {r1, r2, r6, r7, ip}
     e60:	080010d0 	stmdaeq	r0, {r4, r6, r7, ip}
     e64:	00540001 	subseq	r0, r4, r1
     e68:	00000000 	andeq	r0, r0, r0
     e6c:	ec000000 	stc	0, cr0, [r0], {-0}
     e70:	02080010 	andeq	r0, r8, #16
     e74:	01080011 	tsteq	r8, r1, lsl r0
     e78:	11085500 	tstne	r8, r0, lsl #10
     e7c:	11160800 	tstne	r6, r0, lsl #16
     e80:	00010800 	andeq	r0, r1, r0, lsl #16
     e84:	00000055 	andeq	r0, r0, r5, asr r0
     e88:	00000000 	andeq	r0, r0, r0
     e8c:	0010ec00 	andseq	lr, r0, r0, lsl #24
     e90:	0010ee08 	andseq	lr, r0, r8, lsl #28
     e94:	30000208 	andcc	r0, r0, r8, lsl #4
     e98:	0010ee9f 	mulseq	r0, pc, lr	; <UNPREDICTABLE>
     e9c:	0010f408 	andseq	pc, r0, r8, lsl #8
     ea0:	54000108 	strpl	r0, [r0], #-264	; 0xfffffef8
     ea4:	080010f4 	stmdaeq	r0, {r2, r4, r5, r6, r7, ip}
     ea8:	080010f6 	stmdaeq	r0, {r1, r2, r4, r5, r6, r7, ip}
     eac:	7f740003 	svcvc	0x00740003
     eb0:	0010f69f 	mulseq	r0, pc, r6	; <UNPREDICTABLE>
     eb4:	0010fa08 	andseq	pc, r0, r8, lsl #20
     eb8:	54000108 	strpl	r0, [r0], #-264	; 0xfffffef8
     ebc:	08001108 	stmdaeq	r0, {r3, r8, ip}
     ec0:	0800110a 	stmdaeq	r0, {r1, r3, r8, ip}
     ec4:	9f300002 	svcls	0x00300002
     ec8:	0800110a 	stmdaeq	r0, {r1, r3, r8, ip}
     ecc:	08001110 	stmdaeq	r0, {r4, r8, ip}
     ed0:	10540001 	subsne	r0, r4, r1
     ed4:	12080011 	andne	r0, r8, #17
     ed8:	03080011 	movweq	r0, #32785	; 0x8011
     edc:	9f7f7400 	svcls	0x007f7400
     ee0:	08001112 	stmdaeq	r0, {r1, r4, r8, ip}
     ee4:	08001116 	stmdaeq	r0, {r1, r2, r4, r8, ip}
     ee8:	00540001 	subseq	r0, r4, r1
     eec:	00000000 	andeq	r0, r0, r0
     ef0:	28000000 	stmdacs	r0, {}	; <UNPREDICTABLE>
     ef4:	46080011 			; <UNDEFINED> instruction: 0x46080011
     ef8:	01080011 	tsteq	r8, r1, lsl r0
     efc:	11465100 	mrsne	r5, (UNDEF: 86)
     f00:	11940800 	orrsne	r0, r4, r0, lsl #16
     f04:	00040800 	andeq	r0, r4, r0, lsl #16
     f08:	9f5101f3 	svcls	0x005101f3
     f0c:	08001194 	stmdaeq	r0, {r2, r4, r7, r8, ip}
     f10:	08001196 	stmdaeq	r0, {r1, r2, r4, r7, r8, ip}
     f14:	96510001 	ldrbls	r0, [r1], -r1
     f18:	9c080011 	stcls	0, cr0, [r8], {17}
     f1c:	04080011 	streq	r0, [r8], #-17	; 0xffffffef
     f20:	5101f300 	mrspl	pc, SP_irq	; <UNPREDICTABLE>
     f24:	00119c9f 	mulseq	r1, pc, ip	; <UNPREDICTABLE>
     f28:	0011a008 	andseq	sl, r1, r8
     f2c:	51000108 	tstpl	r0, r8, lsl #2
     f30:	080011a0 	stmdaeq	r0, {r5, r7, r8, ip}
     f34:	080011a4 	stmdaeq	r0, {r2, r5, r7, r8, ip}
     f38:	01f30004 	mvnseq	r0, r4
     f3c:	00009f51 	andeq	r9, r0, r1, asr pc
     f40:	00000000 	andeq	r0, r0, r0
     f44:	11280000 			; <UNDEFINED> instruction: 0x11280000
     f48:	11460800 	cmpne	r6, r0, lsl #16
     f4c:	00010800 	andeq	r0, r1, r0, lsl #16
     f50:	00114652 	andseq	r4, r1, r2, asr r6
     f54:	00115608 	andseq	r5, r1, r8, lsl #12
     f58:	71000908 	tstvc	r0, r8, lsl #18
     f5c:	1c007300 	stcne	3, cr7, [r0], {-0}
     f60:	9f220072 	svcls	0x00220072
     f64:	08001156 	stmdaeq	r0, {r1, r2, r4, r6, r8, ip}
     f68:	08001158 	stmdaeq	r0, {r3, r4, r6, r8, ip}
     f6c:	0071000b 	rsbseq	r0, r1, fp
     f70:	73220072 			; <UNDEFINED> instruction: 0x73220072
     f74:	10231c00 	eorne	r1, r3, r0, lsl #24
     f78:	0011649f 	mulseq	r1, pc, r4	; <UNPREDICTABLE>
     f7c:	00116c08 	andseq	r6, r1, r8, lsl #24
     f80:	53000108 	movwpl	r0, #264	; 0x108
     f84:	0800116c 	stmdaeq	r0, {r2, r3, r5, r6, r8, ip}
     f88:	0800116e 	stmdaeq	r0, {r1, r2, r3, r5, r6, r8, ip}
     f8c:	04740003 	ldrbteq	r0, [r4], #-3
     f90:	00116e9f 	mulseq	r1, pc, lr	; <UNPREDICTABLE>
     f94:	00117208 	andseq	r7, r1, r8, lsl #4
     f98:	72000508 	andvc	r0, r0, #8, 10	; 0x2000000
     f9c:	9f1a3f00 	svcls	0x001a3f00
     fa0:	08001172 	stmdaeq	r0, {r1, r4, r5, r6, r8, ip}
     fa4:	08001176 	stmdaeq	r0, {r1, r2, r4, r5, r6, r8, ip}
     fa8:	00720008 	rsbseq	r0, r2, r8
     fac:	00731a3f 	rsbseq	r1, r3, pc, lsr sl
     fb0:	11769f1c 	cmnne	r6, ip, lsl pc
     fb4:	11780800 	cmnne	r8, r0, lsl #16
     fb8:	000a0800 	andeq	r0, sl, r0, lsl #16
     fbc:	1a3f0072 	bne	fc118c <_Min_Stack_Size+0xfc0d8c>
     fc0:	341c0073 	ldrcc	r0, [ip], #-115	; 0xffffff8d
     fc4:	11789f1c 	cmnne	r8, ip, lsl pc
     fc8:	11820800 	orrne	r0, r2, r0, lsl #16
     fcc:	00080800 	andeq	r0, r8, r0, lsl #16
     fd0:	1a3f0072 	bne	fc11a0 <_Min_Stack_Size+0xfc0da0>
     fd4:	9f1c0073 	svcls	0x001c0073
     fd8:	08001184 	stmdaeq	r0, {r2, r7, r8, ip}
     fdc:	08001186 	stmdaeq	r0, {r1, r2, r7, r8, ip}
     fe0:	7f720003 	svcvc	0x00720003
     fe4:	0011889f 	mulseq	r1, pc, r8	; <UNPREDICTABLE>
     fe8:	00118c08 	andseq	r8, r1, r8, lsl #24
     fec:	73000708 	movwvc	r0, #1800	; 0x708
     ff0:	00722000 	rsbseq	r2, r2, r0
     ff4:	118c9f22 	orrne	r9, ip, r2, lsr #30
     ff8:	118e0800 	orrne	r0, lr, r0, lsl #16
     ffc:	00080800 	andeq	r0, r8, r0, lsl #16
    1000:	00730072 	rsbseq	r0, r3, r2, ror r0
    1004:	9f1c321c 	svcls	0x001c321c
    1008:	0800118e 	stmdaeq	r0, {r1, r2, r3, r7, r8, ip}
    100c:	08001192 	stmdaeq	r0, {r1, r4, r7, r8, ip}
    1010:	00730007 	rsbseq	r0, r3, r7
    1014:	22007220 	andcs	r7, r0, #32, 4
    1018:	0011949f 	mulseq	r1, pc, r4	; <UNPREDICTABLE>
    101c:	00119608 	andseq	r9, r1, r8, lsl #12
    1020:	52000108 	andpl	r0, r0, #8, 2
    1024:	08001196 	stmdaeq	r0, {r1, r2, r4, r7, r8, ip}
    1028:	0800119c 	stmdaeq	r0, {r2, r3, r4, r7, r8, ip}
    102c:	7f720003 	svcvc	0x00720003
    1030:	00119c9f 	mulseq	r1, pc, ip	; <UNPREDICTABLE>
    1034:	00119e08 	andseq	r9, r1, r8, lsl #28
    1038:	52000108 	andpl	r0, r0, #8, 2
    103c:	0800119e 	stmdaeq	r0, {r1, r2, r3, r4, r7, r8, ip}
    1040:	080011a0 	stmdaeq	r0, {r5, r7, r8, ip}
    1044:	7f720003 	svcvc	0x00720003
    1048:	0011a09f 	mulseq	r1, pc, r0	; <UNPREDICTABLE>
    104c:	0011a408 	andseq	sl, r1, r8, lsl #8
    1050:	53000108 	movwpl	r0, #264	; 0x108
	...
    105c:	08001128 	stmdaeq	r0, {r3, r5, r8, ip}
    1060:	08001184 	stmdaeq	r0, {r2, r7, r8, ip}
    1064:	84500001 	ldrbhi	r0, [r0], #-1
    1068:	88080011 	stmdahi	r8, {r0, r4}
    106c:	01080011 	tsteq	r8, r1, lsl r0
    1070:	11885500 	orrne	r5, r8, r0, lsl #10
    1074:	118e0800 	orrne	r0, lr, r0, lsl #16
    1078:	00080800 	andeq	r0, r8, r0, lsl #16
    107c:	00730075 	rsbseq	r0, r3, r5, ror r0
    1080:	9f012322 	svcls	0x00012322
    1084:	0800118e 	stmdaeq	r0, {r1, r2, r3, r7, r8, ip}
    1088:	08001192 	stmdaeq	r0, {r1, r4, r7, r8, ip}
    108c:	00750006 	rsbseq	r0, r5, r6
    1090:	9f220073 	svcls	0x00220073
    1094:	08001194 	stmdaeq	r0, {r2, r4, r7, r8, ip}
    1098:	08001196 	stmdaeq	r0, {r1, r2, r4, r7, r8, ip}
    109c:	96500001 	ldrbls	r0, [r0], -r1
    10a0:	9c080011 	stcls	0, cr0, [r8], {17}
    10a4:	01080011 	tsteq	r8, r1, lsl r0
    10a8:	119c5500 	orrsne	r5, ip, r0, lsl #10
    10ac:	119e0800 	orrsne	r0, lr, r0, lsl #16
    10b0:	00010800 	andeq	r0, r1, r0, lsl #16
    10b4:	00119e50 	andseq	r9, r1, r0, asr lr
    10b8:	0011a008 	andseq	sl, r1, r8
    10bc:	55000108 	strpl	r0, [r0, #-264]	; 0xfffffef8
    10c0:	080011a0 	stmdaeq	r0, {r5, r7, r8, ip}
    10c4:	080011a2 	stmdaeq	r0, {r1, r5, r7, r8, ip}
    10c8:	a2500001 	subsge	r0, r0, #1
    10cc:	a4080011 	strge	r0, [r8], #-17	; 0xffffffef
    10d0:	01080011 	tsteq	r8, r1, lsl r0
    10d4:	00005500 	andeq	r5, r0, r0, lsl #10
    10d8:	00000000 	andeq	r0, r0, r0
    10dc:	11280000 			; <UNDEFINED> instruction: 0x11280000
    10e0:	11460800 	cmpne	r6, r0, lsl #16
    10e4:	00010800 	andeq	r0, r1, r0, lsl #16
    10e8:	00114651 	andseq	r4, r1, r1, asr r6
    10ec:	00118408 	andseq	r8, r1, r8, lsl #8
    10f0:	f3000408 	vshl.u8	d0, d8, d0
    10f4:	849f5101 	ldrhi	r5, [pc], #257	; 10fc <_Min_Stack_Size+0xcfc>
    10f8:	88080011 	stmdahi	r8, {r0, r4}
    10fc:	01080011 	tsteq	r8, r1, lsl r0
    1100:	11885100 	orrne	r5, r8, r0, lsl #2
    1104:	118e0800 	orrne	r0, lr, r0, lsl #16
    1108:	00080800 	andeq	r0, r8, r0, lsl #16
    110c:	00730071 	rsbseq	r0, r3, r1, ror r0
    1110:	9f012322 	svcls	0x00012322
    1114:	0800118e 	stmdaeq	r0, {r1, r2, r3, r7, r8, ip}
    1118:	08001192 	stmdaeq	r0, {r1, r4, r7, r8, ip}
    111c:	00710006 	rsbseq	r0, r1, r6
    1120:	9f220073 	svcls	0x00220073
    1124:	08001194 	stmdaeq	r0, {r2, r4, r7, r8, ip}
    1128:	080011a0 	stmdaeq	r0, {r5, r7, r8, ip}
    112c:	a0510001 	subsge	r0, r1, r1
    1130:	a2080011 	andge	r0, r8, #17
    1134:	04080011 	streq	r0, [r8], #-17	; 0xffffffef
    1138:	5101f300 	mrspl	pc, SP_irq	; <UNPREDICTABLE>
    113c:	0011a29f 	mulseq	r1, pc, r2	; <UNPREDICTABLE>
    1140:	0011a408 	andseq	sl, r1, r8, lsl #8
    1144:	51000108 	tstpl	r0, r8, lsl #2
	...
    1150:	08001146 	stmdaeq	r0, {r1, r2, r6, r8, ip}
    1154:	0800114a 	stmdaeq	r0, {r1, r3, r6, r8, ip}
    1158:	0070000b 	rsbseq	r0, r0, fp
    115c:	731c0071 	tstvc	ip, #113	; 0x71
    1160:	04232200 	strteq	r2, [r3], #-512	; 0xfffffe00
    1164:	00114a9f 	mulseq	r1, pc, sl	; <UNPREDICTABLE>
    1168:	00114e08 	andseq	r4, r1, r8, lsl #28
    116c:	70000b08 	andvc	r0, r0, r8, lsl #22
    1170:	1c007100 	stfnes	f7, [r0], {-0}
    1174:	23220073 			; <UNDEFINED> instruction: 0x23220073
    1178:	114e9f08 	cmpne	lr, r8, lsl #30
    117c:	11520800 	cmpne	r2, r0, lsl #16
    1180:	000b0800 	andeq	r0, fp, r0, lsl #16
    1184:	00710070 	rsbseq	r0, r1, r0, ror r0
    1188:	2200731c 	andcs	r7, r0, #28, 6	; 0x70000000
    118c:	529f0c23 	addspl	r0, pc, #8960	; 0x2300
    1190:	56080011 			; <UNDEFINED> instruction: 0x56080011
    1194:	0b080011 	bleq	2011e0 <_Min_Stack_Size+0x200de0>
    1198:	71007000 	mrsvc	r7, (UNDEF: 0)
    119c:	00731c00 	rsbseq	r1, r3, r0, lsl #24
    11a0:	9f102322 	svcls	0x00102322
    11a4:	08001156 	stmdaeq	r0, {r1, r2, r4, r6, r8, ip}
    11a8:	08001160 	stmdaeq	r0, {r5, r6, r8, ip}
    11ac:	00700009 	rsbseq	r0, r0, r9
    11b0:	731c0071 	tstvc	ip, #113	; 0x71
    11b4:	649f2200 	ldrvs	r2, [pc], #512	; 11bc <_Min_Stack_Size+0xdbc>
    11b8:	72080011 	andvc	r0, r8, #17
    11bc:	01080011 	tsteq	r8, r1, lsl r0
    11c0:	11725500 	cmnne	r2, r0, lsl #10
    11c4:	11780800 	cmnne	r8, r0, lsl #16
    11c8:	00080800 	andeq	r0, r8, r0, lsl #16
    11cc:	00730075 	rsbseq	r0, r3, r5, ror r0
    11d0:	9f042322 	svcls	0x00042322
    11d4:	08001178 	stmdaeq	r0, {r3, r4, r5, r6, r8, ip}
    11d8:	0800117e 	stmdaeq	r0, {r1, r2, r3, r4, r5, r6, r8, ip}
    11dc:	00750006 	rsbseq	r0, r5, r6
    11e0:	9f220073 	svcls	0x00220073
    11e4:	0800117e 	stmdaeq	r0, {r1, r2, r3, r4, r5, r6, r8, ip}
    11e8:	08001182 	stmdaeq	r0, {r1, r7, r8, ip}
    11ec:	7072000f 	rsbsvc	r0, r2, pc
    11f0:	01232534 			; <UNDEFINED> instruction: 0x01232534
    11f4:	00702434 	rsbseq	r2, r0, r4, lsr r4
    11f8:	22007322 	andcs	r7, r0, #-2013265920	; 0x88000000
    11fc:	0011a09f 	mulseq	r1, pc, r0	; <UNPREDICTABLE>
    1200:	0011a408 	andseq	sl, r1, r8, lsl #8
    1204:	55000108 	strpl	r0, [r0, #-264]	; 0xfffffef8
	...
    1210:	08001146 	stmdaeq	r0, {r1, r2, r6, r8, ip}
    1214:	0800114a 	stmdaeq	r0, {r1, r3, r6, r8, ip}
    1218:	04730003 	ldrbteq	r0, [r3], #-3
    121c:	00114a9f 	mulseq	r1, pc, sl	; <UNPREDICTABLE>
    1220:	00114e08 	andseq	r4, r1, r8, lsl #28
    1224:	73000308 	movwvc	r0, #776	; 0x308
    1228:	114e9f08 	cmpne	lr, r8, lsl #30
    122c:	11520800 	cmpne	r2, r0, lsl #16
    1230:	00030800 	andeq	r0, r3, r0, lsl #16
    1234:	529f0c73 	addspl	r0, pc, #29440	; 0x7300
    1238:	56080011 			; <UNDEFINED> instruction: 0x56080011
    123c:	03080011 	movweq	r0, #32785	; 0x8011
    1240:	9f107300 	svcls	0x00107300
    1244:	08001156 	stmdaeq	r0, {r1, r2, r4, r6, r8, ip}
    1248:	08001160 	stmdaeq	r0, {r5, r6, r8, ip}
    124c:	64530001 	ldrbvs	r0, [r3], #-1
    1250:	72080011 	andvc	r0, r8, #17
    1254:	01080011 	tsteq	r8, r1, lsl r0
    1258:	11725100 	cmnne	r2, r0, lsl #2
    125c:	11780800 	cmnne	r8, r0, lsl #16
    1260:	00080800 	andeq	r0, r8, r0, lsl #16
    1264:	00730071 	rsbseq	r0, r3, r1, ror r0
    1268:	9f042322 	svcls	0x00042322
    126c:	08001178 	stmdaeq	r0, {r3, r4, r5, r6, r8, ip}
    1270:	08001180 	stmdaeq	r0, {r7, r8, ip}
    1274:	00710006 	rsbseq	r0, r1, r6
    1278:	9f220073 	svcls	0x00220073
    127c:	08001180 	stmdaeq	r0, {r7, r8, ip}
    1280:	08001182 	stmdaeq	r0, {r1, r7, r8, ip}
    1284:	70720010 	rsbsvc	r0, r2, r0, lsl r0
    1288:	01232534 			; <UNDEFINED> instruction: 0x01232534
    128c:	01f32434 	mvnseq	r2, r4, lsr r4
    1290:	00732251 	rsbseq	r2, r3, r1, asr r2
    1294:	11a09f22 	lsrne	r9, r2, #30
    1298:	11a40800 			; <UNDEFINED> instruction: 0x11a40800
    129c:	00010800 	andeq	r0, r1, r0, lsl #16
    12a0:	00000051 	andeq	r0, r0, r1, asr r0
    12a4:	00000000 	andeq	r0, r0, r0
    12a8:	0011a400 	andseq	sl, r1, r0, lsl #8
    12ac:	0011be08 	andseq	fp, r1, r8, lsl #28
    12b0:	50000108 	andpl	r0, r0, r8, lsl #2
    12b4:	080011be 	stmdaeq	r0, {r1, r2, r3, r4, r5, r7, r8, ip}
    12b8:	080011d2 	stmdaeq	r0, {r1, r4, r6, r7, r8, ip}
    12bc:	d2550001 	subsle	r0, r5, #1
    12c0:	e8080011 	stmda	r8, {r0, r4}
    12c4:	04080011 	streq	r0, [r8], #-17	; 0xffffffef
    12c8:	5001f300 	andpl	pc, r1, r0, lsl #6
    12cc:	0011e89f 	mulseq	r1, pc, r8	; <UNPREDICTABLE>
    12d0:	00125208 	andseq	r5, r2, r8, lsl #4
    12d4:	55000108 	strpl	r0, [r0, #-264]	; 0xfffffef8
    12d8:	08001252 	stmdaeq	r0, {r1, r4, r6, r9, ip}
    12dc:	0800125e 	stmdaeq	r0, {r1, r2, r3, r4, r6, r9, ip}
    12e0:	01f30004 	mvnseq	r0, r4
    12e4:	125e9f50 	subsne	r9, lr, #80, 30	; 0x140
    12e8:	12780800 	rsbsne	r0, r8, #0, 16
    12ec:	00010800 	andeq	r0, r1, r0, lsl #16
    12f0:	00000055 	andeq	r0, r0, r5, asr r0
    12f4:	00000000 	andeq	r0, r0, r0
    12f8:	0011a400 	andseq	sl, r1, r0, lsl #8
    12fc:	0011d208 	andseq	sp, r1, r8, lsl #4
    1300:	51000108 	tstpl	r0, r8, lsl #2
    1304:	080011d2 	stmdaeq	r0, {r1, r4, r6, r7, r8, ip}
    1308:	080011dc 	stmdaeq	r0, {r2, r3, r4, r6, r7, r8, ip}
    130c:	dc560001 	mrrcle	0, 0, r0, r6, cr1
    1310:	e8080011 	stmda	r8, {r0, r4}
    1314:	04080011 	streq	r0, [r8], #-17	; 0xffffffef
    1318:	5101f300 	mrspl	pc, SP_irq	; <UNPREDICTABLE>
    131c:	0011e89f 	mulseq	r1, pc, r8	; <UNPREDICTABLE>
    1320:	0011f508 	andseq	pc, r1, r8, lsl #10
    1324:	51000108 	tstpl	r0, r8, lsl #2
    1328:	080011f5 	stmdaeq	r0, {r0, r2, r4, r5, r6, r7, r8, ip}
    132c:	0800125e 	stmdaeq	r0, {r1, r2, r3, r4, r6, r9, ip}
    1330:	5e560001 	cdppl	0, 5, cr0, cr6, cr1, {0}
    1334:	68080012 	stmdavs	r8, {r1, r4}
    1338:	01080012 	tsteq	r8, r2, lsl r0
    133c:	12685100 	rsbne	r5, r8, #0, 2
    1340:	12780800 	rsbsne	r0, r8, #0, 16
    1344:	00010800 	andeq	r0, r1, r0, lsl #16
    1348:	00000056 	andeq	r0, r0, r6, asr r0
    134c:	00000000 	andeq	r0, r0, r0
    1350:	0011a400 	andseq	sl, r1, r0, lsl #8
    1354:	0011d208 	andseq	sp, r1, r8, lsl #4
    1358:	52000108 	andpl	r0, r0, #8, 2
    135c:	080011d2 	stmdaeq	r0, {r1, r4, r6, r7, r8, ip}
    1360:	080011e8 	stmdaeq	r0, {r3, r5, r6, r7, r8, ip}
    1364:	01f30004 	mvnseq	r0, r4
    1368:	11e89f52 	mvnne	r9, r2, asr pc
    136c:	11f50800 	mvnsne	r0, r0, lsl #16
    1370:	00010800 	andeq	r0, r1, r0, lsl #16
    1374:	0011f552 	andseq	pc, r1, r2, asr r5	; <UNPREDICTABLE>
    1378:	00122a08 	andseq	r2, r2, r8, lsl #20
    137c:	58000108 	stmdapl	r0, {r3, r8}
    1380:	0800122a 	stmdaeq	r0, {r1, r3, r5, r9, ip}
    1384:	08001230 	stmdaeq	r0, {r4, r5, r9, ip}
    1388:	00770005 	rsbseq	r0, r7, r5
    138c:	30220071 	eorcc	r0, r2, r1, ror r0
    1390:	40080012 	andmi	r0, r8, r2, lsl r0
    1394:	03080012 	movweq	r0, #32786	; 0x8012
    1398:	01887700 	orreq	r7, r8, r0, lsl #14
    139c:	08001240 	stmdaeq	r0, {r6, r9, ip}
    13a0:	0800125e 	stmdaeq	r0, {r1, r2, r3, r4, r6, r9, ip}
    13a4:	01f30004 	mvnseq	r0, r4
    13a8:	125e9f52 	subsne	r9, lr, #328	; 0x148
    13ac:	12680800 	rsbne	r0, r8, #0, 16
    13b0:	00010800 	andeq	r0, r1, r0, lsl #16
    13b4:	00126852 	andseq	r6, r2, r2, asr r8
    13b8:	00127808 	andseq	r7, r2, r8, lsl #16
    13bc:	58000108 	stmdapl	r0, {r3, r8}
	...
    13c8:	080011a4 	stmdaeq	r0, {r2, r5, r7, r8, ip}
    13cc:	080011b2 	stmdaeq	r0, {r1, r4, r5, r7, r8, ip}
    13d0:	b2530001 	subslt	r0, r3, #1
    13d4:	dc080011 	stcle	0, cr0, [r8], {17}
    13d8:	01080011 	tsteq	r8, r1, lsl r0
    13dc:	11dc5b00 	bicsne	r5, ip, r0, lsl #22
    13e0:	11e80800 	mvnne	r0, r0, lsl #16
    13e4:	00040800 	andeq	r0, r4, r0, lsl #16
    13e8:	9f5301f3 	svcls	0x005301f3
    13ec:	080011e8 	stmdaeq	r0, {r3, r5, r6, r7, r8, ip}
    13f0:	0800124e 	stmdaeq	r0, {r1, r2, r3, r6, r9, ip}
    13f4:	4e5b0001 	cdpmi	0, 5, cr0, cr11, cr1, {0}
    13f8:	5e080012 	mcrpl	0, 0, r0, cr8, cr2, {0}
    13fc:	01080012 	tsteq	r8, r2, lsl r0
    1400:	125e5700 	subsne	r5, lr, #0, 14
    1404:	12780800 	rsbsne	r0, r8, #0, 16
    1408:	00010800 	andeq	r0, r1, r0, lsl #16
    140c:	0000005b 	andeq	r0, r0, fp, asr r0
    1410:	00000000 	andeq	r0, r0, r0
    1414:	00121600 	andseq	r1, r2, r0, lsl #12
    1418:	00125e08 	andseq	r5, r2, r8, lsl #28
    141c:	70000408 	andvc	r0, r0, r8, lsl #8
    1420:	009f0188 	addseq	r0, pc, r8, lsl #3
    1424:	00000000 	andeq	r0, r0, r0
    1428:	be000000 	cdplt	0, 0, cr0, cr0, cr0, {0}
    142c:	dc080011 	stcle	0, cr0, [r8], {17}
    1430:	01080011 	tsteq	r8, r1, lsl r0
    1434:	11e85000 	mvnne	r5, r0
    1438:	11f00800 	mvnsne	r0, r0, lsl #16
    143c:	00010800 	andeq	r0, r1, r0, lsl #16
    1440:	0011f650 	andseq	pc, r1, r0, asr r6	; <UNPREDICTABLE>
    1444:	00126008 	andseq	r6, r2, r8
    1448:	50000108 	andpl	r0, r0, r8, lsl #2
    144c:	08001260 	stmdaeq	r0, {r5, r6, r9, ip}
    1450:	08001264 	stmdaeq	r0, {r2, r5, r6, r9, ip}
    1454:	00740005 	rsbseq	r0, r4, r5
    1458:	64220073 	strtvs	r0, [r2], #-115	; 0xffffff8d
    145c:	6a080012 	bvs	2014ac <_Min_Stack_Size+0x2010ac>
    1460:	01080012 	tsteq	r8, r2, lsl r0
    1464:	00005000 	andeq	r5, r0, r0
	...
    1474:	00010000 	andeq	r0, r1, r0
    1478:	00000050 	andeq	r0, r0, r0, asr r0
    147c:	00000000 	andeq	r0, r0, r0
    1480:	91000200 	mrsls	r0, R8_usr
    1484:	00000044 	andeq	r0, r0, r4, asr #32
	...
    1494:	51000100 	mrspl	r0, (UNDEF: 16)
	...
    14a0:	00560001 	subseq	r0, r6, r1
    14a4:	00000000 	andeq	r0, r0, r0
    14a8:	04000000 	streq	r0, [r0], #-0
    14ac:	5101f300 	mrspl	pc, SP_irq	; <UNPREDICTABLE>
    14b0:	0000009f 	muleq	r0, pc, r0	; <UNPREDICTABLE>
    14b4:	00000000 	andeq	r0, r0, r0
    14b8:	56000100 	strpl	r0, [r0], -r0, lsl #2
	...
    14cc:	00570001 	subseq	r0, r7, r1
    14d0:	00000000 	andeq	r0, r0, r0
    14d4:	01000000 	mrseq	r0, (UNDEF: 0)
    14d8:	00005700 	andeq	r5, r0, r0, lsl #14
    14dc:	00000000 	andeq	r0, r0, r0
    14e0:	00010000 	andeq	r0, r1, r0
    14e4:	00000053 	andeq	r0, r0, r3, asr r0
    14e8:	00000000 	andeq	r0, r0, r0
    14ec:	57000100 	strpl	r0, [r0, -r0, lsl #2]
	...
    1500:	50910002 	addspl	r0, r1, r2
	...
    150c:	00580001 	subseq	r0, r8, r1
    1510:	00000000 	andeq	r0, r0, r0
    1514:	01000000 	mrseq	r0, (UNDEF: 0)
    1518:	00005800 	andeq	r5, r0, r0, lsl #16
	...
    1528:	00040000 	andeq	r0, r4, r0
    152c:	9f018877 	svcls	0x00018877
	...
    1538:	88770004 	ldmdahi	r7!, {r2}^
    153c:	00009f01 	andeq	r9, r0, r1, lsl #30
    1540:	00000000 	andeq	r0, r0, r0
    1544:	00040000 	andeq	r0, r4, r0
    1548:	9f018878 	svcls	0x00018878
	...
    1554:	88770004 	ldmdahi	r7!, {r2}^
    1558:	00009f01 	andeq	r9, r0, r1, lsl #30
	...
    1568:	00030000 	andeq	r0, r3, r0
    156c:	009f7f74 	addseq	r7, pc, r4, ror pc	; <UNPREDICTABLE>
    1570:	00000000 	andeq	r0, r0, r0
    1574:	01000000 	mrseq	r0, (UNDEF: 0)
    1578:	00005400 	andeq	r5, r0, r0, lsl #8
    157c:	00000000 	andeq	r0, r0, r0
    1580:	00030000 	andeq	r0, r3, r0
    1584:	009f7f74 	addseq	r7, pc, r4, ror pc	; <UNPREDICTABLE>
    1588:	00000000 	andeq	r0, r0, r0
    158c:	01000000 	mrseq	r0, (UNDEF: 0)
    1590:	00005400 	andeq	r5, r0, r0, lsl #8
    1594:	00000000 	andeq	r0, r0, r0
    1598:	00030000 	andeq	r0, r3, r0
    159c:	009f7f74 	addseq	r7, pc, r4, ror pc	; <UNPREDICTABLE>
    15a0:	00000000 	andeq	r0, r0, r0
    15a4:	01000000 	mrseq	r0, (UNDEF: 0)
    15a8:	00005400 	andeq	r5, r0, r0, lsl #8
    15ac:	00000000 	andeq	r0, r0, r0
    15b0:	00010000 	andeq	r0, r1, r0
    15b4:	00000054 	andeq	r0, r0, r4, asr r0
	...
    15c4:	31000500 	tstcc	r0, r0, lsl #10
    15c8:	9f240074 	svcls	0x00240074
	...
    15d4:	74310005 	ldrtvc	r0, [r1], #-5
    15d8:	009f2400 	addseq	r2, pc, r0, lsl #8
	...
    15e8:	01000000 	mrseq	r0, (UNDEF: 0)
    15ec:	00005200 	andeq	r5, r0, r0, lsl #4
    15f0:	00000000 	andeq	r0, r0, r0
    15f4:	00010000 	andeq	r0, r1, r0
    15f8:	00000052 	andeq	r0, r0, r2, asr r0
    15fc:	00000000 	andeq	r0, r0, r0
    1600:	52000100 	andpl	r0, r0, #0, 2
	...
    1614:	00530001 	subseq	r0, r3, r1
    1618:	00000000 	andeq	r0, r0, r0
    161c:	01000000 	mrseq	r0, (UNDEF: 0)
    1620:	00005900 	andeq	r5, r0, r0, lsl #18
    1624:	00000000 	andeq	r0, r0, r0
    1628:	00010000 	andeq	r0, r1, r0
    162c:	00000059 	andeq	r0, r0, r9, asr r0
    1630:	00000000 	andeq	r0, r0, r0
    1634:	59000100 	stmdbpl	r0, {r8}
	...

Disassembly of section .debug_aranges:

00000000 <.debug_aranges>:
   0:	0000002c 	andeq	r0, r0, ip, lsr #32
   4:	00000002 	andeq	r0, r0, r2
   8:	00040000 	andeq	r0, r4, r0
   c:	00000000 	andeq	r0, r0, r0
  10:	08000298 	stmdaeq	r0, {r3, r4, r7, r9}
  14:	0000009c 	muleq	r0, ip, r0
  18:	00000000 	andeq	r0, r0, r0
  1c:	0000000e 	andeq	r0, r0, lr
  20:	08000334 	stmdaeq	r0, {r2, r4, r5, r8, r9}
  24:	00000002 	andeq	r0, r0, r2
	...
  30:	000000b4 	strheq	r0, [r0], -r4
  34:	07ee0002 	strbeq	r0, [lr, r2]!
  38:	00040000 	andeq	r0, r4, r0
  3c:	00000000 	andeq	r0, r0, r0
  40:	08000336 	stmdaeq	r0, {r1, r2, r4, r5, r8, r9}
  44:	00000002 	andeq	r0, r0, r2
  48:	00000000 	andeq	r0, r0, r0
  4c:	00000002 	andeq	r0, r0, r2
  50:	00000000 	andeq	r0, r0, r0
  54:	00000024 	andeq	r0, r0, r4, lsr #32
  58:	08000338 	stmdaeq	r0, {r3, r4, r5, r8, r9}
  5c:	00000024 	andeq	r0, r0, r4, lsr #32
  60:	0800035c 	stmdaeq	r0, {r2, r3, r4, r6, r8, r9}
  64:	00000020 	andeq	r0, r0, r0, lsr #32
  68:	00000000 	andeq	r0, r0, r0
  6c:	00000010 	andeq	r0, r0, r0, lsl r0
  70:	0800037c 	stmdaeq	r0, {r2, r3, r4, r5, r6, r8, r9}
  74:	0000000c 	andeq	r0, r0, ip
  78:	00000000 	andeq	r0, r0, r0
  7c:	00000020 	andeq	r0, r0, r0, lsr #32
  80:	00000000 	andeq	r0, r0, r0
  84:	00000010 	andeq	r0, r0, r0, lsl r0
  88:	00000000 	andeq	r0, r0, r0
  8c:	00000010 	andeq	r0, r0, r0, lsl r0
  90:	00000000 	andeq	r0, r0, r0
  94:	00000008 	andeq	r0, r0, r8
  98:	00000000 	andeq	r0, r0, r0
  9c:	0000000c 	andeq	r0, r0, ip
  a0:	00000000 	andeq	r0, r0, r0
  a4:	00000010 	andeq	r0, r0, r0, lsl r0
  a8:	00000000 	andeq	r0, r0, r0
  ac:	0000000c 	andeq	r0, r0, ip
  b0:	00000000 	andeq	r0, r0, r0
  b4:	0000000c 	andeq	r0, r0, ip
  b8:	00000000 	andeq	r0, r0, r0
  bc:	0000000c 	andeq	r0, r0, ip
  c0:	00000000 	andeq	r0, r0, r0
  c4:	00000010 	andeq	r0, r0, r0, lsl r0
  c8:	00000000 	andeq	r0, r0, r0
  cc:	00000010 	andeq	r0, r0, r0, lsl r0
  d0:	00000000 	andeq	r0, r0, r0
  d4:	00000010 	andeq	r0, r0, r0, lsl r0
  d8:	00000000 	andeq	r0, r0, r0
  dc:	00000010 	andeq	r0, r0, r0, lsl r0
	...
  e8:	00000054 	andeq	r0, r0, r4, asr r0
  ec:	0e1e0002 	cdpeq	0, 1, cr0, cr14, cr2, {0}
  f0:	00040000 	andeq	r0, r4, r0
  f4:	00000000 	andeq	r0, r0, r0
  f8:	08000388 	stmdaeq	r0, {r3, r7, r8, r9}
  fc:	00000260 	andeq	r0, r0, r0, ror #4
 100:	00000000 	andeq	r0, r0, r0
 104:	00000138 	andeq	r0, r0, r8, lsr r1
 108:	00000000 	andeq	r0, r0, r0
 10c:	00000024 	andeq	r0, r0, r4, lsr #32
 110:	080005e8 	stmdaeq	r0, {r3, r5, r6, r7, r8, sl}
 114:	00000038 	andeq	r0, r0, r8, lsr r0
 118:	08000620 	stmdaeq	r0, {r5, r9, sl}
 11c:	00000020 	andeq	r0, r0, r0, lsr #32
 120:	00000000 	andeq	r0, r0, r0
 124:	00000058 	andeq	r0, r0, r8, asr r0
 128:	00000000 	andeq	r0, r0, r0
 12c:	00000002 	andeq	r0, r0, r2
 130:	00000000 	andeq	r0, r0, r0
 134:	00000018 	andeq	r0, r0, r8, lsl r0
	...
 140:	0000007c 	andeq	r0, r0, ip, ror r0
 144:	15e60002 	strbne	r0, [r6, #2]!
 148:	00040000 	andeq	r0, r4, r0
	...
 154:	0000004c 	andeq	r0, r0, ip, asr #32
 158:	08000640 	stmdaeq	r0, {r6, r9, sl}
 15c:	00000584 	andeq	r0, r0, r4, lsl #11
 160:	00000000 	andeq	r0, r0, r0
 164:	000000b0 	strheq	r0, [r0], -r0	; <UNPREDICTABLE>
 168:	00000000 	andeq	r0, r0, r0
 16c:	00000014 	andeq	r0, r0, r4, lsl r0
 170:	00000000 	andeq	r0, r0, r0
 174:	00000014 	andeq	r0, r0, r4, lsl r0
 178:	08000bc4 	stmdaeq	r0, {r2, r6, r7, r8, r9, fp}
 17c:	00000078 	andeq	r0, r0, r8, ror r0
 180:	08000c3c 	stmdaeq	r0, {r2, r3, r4, r5, sl, fp}
 184:	0000020c 	andeq	r0, r0, ip, lsl #4
 188:	08000e48 	stmdaeq	r0, {r3, r6, r9, sl, fp}
 18c:	0000000c 	andeq	r0, r0, ip
 190:	00000000 	andeq	r0, r0, r0
 194:	00000024 	andeq	r0, r0, r4, lsr #32
 198:	00000000 	andeq	r0, r0, r0
 19c:	000000c0 	andeq	r0, r0, r0, asr #1
 1a0:	00000000 	andeq	r0, r0, r0
 1a4:	00000060 	andeq	r0, r0, r0, rrx
 1a8:	00000000 	andeq	r0, r0, r0
 1ac:	00000002 	andeq	r0, r0, r2
 1b0:	00000000 	andeq	r0, r0, r0
 1b4:	00000020 	andeq	r0, r0, r0, lsr #32
	...
 1c0:	00000074 	andeq	r0, r0, r4, ror r0
 1c4:	22e30002 	rsccs	r0, r3, #2
 1c8:	00040000 	andeq	r0, r4, r0
 1cc:	00000000 	andeq	r0, r0, r0
 1d0:	08000e54 	stmdaeq	r0, {r2, r4, r6, r9, sl, fp}
 1d4:	00000078 	andeq	r0, r0, r8, ror r0
 1d8:	08000ecc 	stmdaeq	r0, {r2, r3, r6, r7, r9, sl, fp}
 1dc:	00000028 	andeq	r0, r0, r8, lsr #32
 1e0:	00000000 	andeq	r0, r0, r0
 1e4:	00000028 	andeq	r0, r0, r8, lsr #32
 1e8:	00000000 	andeq	r0, r0, r0
 1ec:	0000001c 	andeq	r0, r0, ip, lsl r0
 1f0:	08000ef4 	stmdaeq	r0, {r2, r4, r5, r6, r7, r9, sl, fp}
 1f4:	00000034 	andeq	r0, r0, r4, lsr r0
 1f8:	00000000 	andeq	r0, r0, r0
 1fc:	00000038 	andeq	r0, r0, r8, lsr r0
 200:	00000000 	andeq	r0, r0, r0
 204:	00000028 	andeq	r0, r0, r8, lsr #32
 208:	00000000 	andeq	r0, r0, r0
 20c:	0000002c 	andeq	r0, r0, ip, lsr #32
 210:	00000000 	andeq	r0, r0, r0
 214:	0000002c 	andeq	r0, r0, ip, lsr #32
 218:	00000000 	andeq	r0, r0, r0
 21c:	00000030 	andeq	r0, r0, r0, lsr r0
 220:	00000000 	andeq	r0, r0, r0
 224:	00000002 	andeq	r0, r0, r2
 228:	00000000 	andeq	r0, r0, r0
 22c:	00000008 	andeq	r0, r0, r8
	...
 238:	0000004c 	andeq	r0, r0, ip, asr #32
 23c:	2b840002 	blcs	fe10024c <_estack+0xde0fc24c>
 240:	00040000 	andeq	r0, r4, r0
	...
 24c:	00000008 	andeq	r0, r0, r8
 250:	08000f28 	stmdaeq	r0, {r3, r5, r8, r9, sl, fp}
 254:	000000a4 	andeq	r0, r0, r4, lsr #1
 258:	00000000 	andeq	r0, r0, r0
 25c:	00000020 	andeq	r0, r0, r0, lsr #32
 260:	00000000 	andeq	r0, r0, r0
 264:	00000020 	andeq	r0, r0, r0, lsr #32
 268:	08000fcc 	stmdaeq	r0, {r2, r3, r6, r7, r8, r9, sl, fp}
 26c:	0000001c 	andeq	r0, r0, ip, lsl r0
 270:	00000000 	andeq	r0, r0, r0
 274:	00000084 	andeq	r0, r0, r4, lsl #1
 278:	00000000 	andeq	r0, r0, r0
 27c:	00000014 	andeq	r0, r0, r4, lsl r0
	...
 288:	00000024 	andeq	r0, r0, r4, lsr #32
 28c:	33700002 	cmncc	r0, #2
 290:	00040000 	andeq	r0, r4, r0
 294:	00000000 	andeq	r0, r0, r0
 298:	08000fe8 	stmdaeq	r0, {r3, r5, r6, r7, r8, r9, sl, fp}
 29c:	00000060 	andeq	r0, r0, r0, rrx
 2a0:	00000000 	andeq	r0, r0, r0
 2a4:	00000074 	andeq	r0, r0, r4, ror r0
	...
 2b0:	00000024 	andeq	r0, r0, r4, lsr #32
 2b4:	35a40002 	strcc	r0, [r4, #2]!
 2b8:	00040000 	andeq	r0, r4, r0
 2bc:	00000000 	andeq	r0, r0, r0
 2c0:	08001048 	stmdaeq	r0, {r3, r6, ip}
 2c4:	00000050 	andeq	r0, r0, r0, asr r0
 2c8:	08001098 	stmdaeq	r0, {r3, r4, r7, ip}
 2cc:	00000002 	andeq	r0, r0, r2
	...
 2d8:	0000001c 	andeq	r0, r0, ip, lsl r0
 2dc:	363c0002 	ldrtcc	r0, [ip], -r2
 2e0:	00040000 	andeq	r0, r4, r0
 2e4:	00000000 	andeq	r0, r0, r0
 2e8:	08000174 	stmdaeq	r0, {r2, r4, r5, r6, r8}
 2ec:	0000011e 	andeq	r0, r0, lr, lsl r1
	...
 2f8:	0000001c 	andeq	r0, r0, ip, lsl r0
 2fc:	36f50002 	ldrbtcc	r0, [r5], r2
 300:	00040000 	andeq	r0, r4, r0
 304:	00000000 	andeq	r0, r0, r0
 308:	08000294 	stmdaeq	r0, {r2, r4, r7, r9}
 30c:	00000002 	andeq	r0, r0, r2
	...
 318:	0000001c 	andeq	r0, r0, ip, lsl r0
 31c:	37ae0002 	strcc	r0, [lr, r2]!
 320:	00040000 	andeq	r0, r4, r0
 324:	00000000 	andeq	r0, r0, r0
 328:	0800109c 	stmdaeq	r0, {r2, r3, r4, r7, ip}
 32c:	00000010 	andeq	r0, r0, r0, lsl r0
	...
 338:	0000001c 	andeq	r0, r0, ip, lsl r0
 33c:	38b80002 	ldmcc	r8!, {r1}
 340:	00040000 	andeq	r0, r4, r0
 344:	00000000 	andeq	r0, r0, r0
 348:	080010ac 	stmdaeq	r0, {r2, r3, r5, r7, ip}
 34c:	00000034 	andeq	r0, r0, r4, lsr r0
	...
 358:	00000014 	andeq	r0, r0, r4, lsl r0
 35c:	39a70002 	stmibcc	r7!, {r1}
 360:	00040000 	andeq	r0, r4, r0
	...
 370:	0000001c 	andeq	r0, r0, ip, lsl r0
 374:	423b0002 	eorsmi	r0, fp, #2
 378:	00040000 	andeq	r0, r4, r0
 37c:	00000000 	andeq	r0, r0, r0
 380:	080010e0 	stmdaeq	r0, {r5, r6, r7, ip}
 384:	00000048 	andeq	r0, r0, r8, asr #32
	...
 390:	0000001c 	andeq	r0, r0, ip, lsl r0
 394:	43400002 	movtmi	r0, #2
 398:	00040000 	andeq	r0, r4, r0
 39c:	00000000 	andeq	r0, r0, r0
 3a0:	08001128 	stmdaeq	r0, {r3, r5, r8, ip}
 3a4:	0000007c 	andeq	r0, r0, ip, ror r0
	...
 3b0:	0000001c 	andeq	r0, r0, ip, lsl r0
 3b4:	44710002 	ldrbtmi	r0, [r1], #-2
 3b8:	00040000 	andeq	r0, r4, r0
 3bc:	00000000 	andeq	r0, r0, r0
 3c0:	080011a4 	stmdaeq	r0, {r2, r5, r7, r8, ip}
 3c4:	000000d4 	ldrdeq	r0, [r0], -r4
	...
 3d0:	00000024 	andeq	r0, r0, r4, lsr #32
 3d4:	4da50002 	stcmi	0, cr0, [r5, #8]!
 3d8:	00040000 	andeq	r0, r4, r0
 3dc:	00000000 	andeq	r0, r0, r0
 3e0:	08001278 	stmdaeq	r0, {r3, r4, r5, r6, r9, ip}
 3e4:	00000018 	andeq	r0, r0, r8, lsl r0
 3e8:	00000000 	andeq	r0, r0, r0
 3ec:	00000108 	andeq	r0, r0, r8, lsl #2
	...

Disassembly of section .debug_ranges:

00000000 <.debug_ranges>:
   0:	080002f4 	stmdaeq	r0, {r2, r4, r5, r6, r7, r9}
   4:	08000302 	stmdaeq	r0, {r1, r8, r9}
   8:	08000306 	stmdaeq	r0, {r1, r2, r8, r9}
   c:	0800030c 	stmdaeq	r0, {r2, r3, r8, r9}
	...
  18:	08000298 	stmdaeq	r0, {r3, r4, r7, r9}
  1c:	08000334 	stmdaeq	r0, {r2, r4, r5, r8, r9}
  20:	00000001 	andeq	r0, r0, r1
  24:	00000001 	andeq	r0, r0, r1
  28:	08000334 	stmdaeq	r0, {r2, r4, r5, r8, r9}
  2c:	08000336 	stmdaeq	r0, {r1, r2, r4, r5, r8, r9}
	...
  38:	08000336 	stmdaeq	r0, {r1, r2, r4, r5, r8, r9}
  3c:	08000338 	stmdaeq	r0, {r3, r4, r5, r8, r9}
  40:	00000001 	andeq	r0, r0, r1
  44:	00000001 	andeq	r0, r0, r1
  48:	00000001 	andeq	r0, r0, r1
  4c:	00000001 	andeq	r0, r0, r1
  50:	08000338 	stmdaeq	r0, {r3, r4, r5, r8, r9}
  54:	0800035c 	stmdaeq	r0, {r2, r3, r4, r6, r8, r9}
  58:	0800035c 	stmdaeq	r0, {r2, r3, r4, r6, r8, r9}
  5c:	0800037c 	stmdaeq	r0, {r2, r3, r4, r5, r6, r8, r9}
  60:	00000001 	andeq	r0, r0, r1
  64:	00000001 	andeq	r0, r0, r1
  68:	0800037c 	stmdaeq	r0, {r2, r3, r4, r5, r6, r8, r9}
  6c:	08000388 	stmdaeq	r0, {r3, r7, r8, r9}
  70:	00000001 	andeq	r0, r0, r1
  74:	00000001 	andeq	r0, r0, r1
  78:	00000001 	andeq	r0, r0, r1
  7c:	00000001 	andeq	r0, r0, r1
  80:	00000001 	andeq	r0, r0, r1
  84:	00000001 	andeq	r0, r0, r1
  88:	00000001 	andeq	r0, r0, r1
  8c:	00000001 	andeq	r0, r0, r1
  90:	00000001 	andeq	r0, r0, r1
  94:	00000001 	andeq	r0, r0, r1
  98:	00000001 	andeq	r0, r0, r1
  9c:	00000001 	andeq	r0, r0, r1
  a0:	00000001 	andeq	r0, r0, r1
  a4:	00000001 	andeq	r0, r0, r1
  a8:	00000001 	andeq	r0, r0, r1
  ac:	00000001 	andeq	r0, r0, r1
  b0:	00000001 	andeq	r0, r0, r1
  b4:	00000001 	andeq	r0, r0, r1
  b8:	00000001 	andeq	r0, r0, r1
  bc:	00000001 	andeq	r0, r0, r1
  c0:	00000001 	andeq	r0, r0, r1
  c4:	00000001 	andeq	r0, r0, r1
  c8:	00000001 	andeq	r0, r0, r1
  cc:	00000001 	andeq	r0, r0, r1
  d0:	00000001 	andeq	r0, r0, r1
  d4:	00000001 	andeq	r0, r0, r1
	...
  e0:	08000388 	stmdaeq	r0, {r3, r7, r8, r9}
  e4:	080005e8 	stmdaeq	r0, {r3, r5, r6, r7, r8, sl}
  e8:	00000001 	andeq	r0, r0, r1
  ec:	00000001 	andeq	r0, r0, r1
  f0:	00000001 	andeq	r0, r0, r1
  f4:	00000001 	andeq	r0, r0, r1
  f8:	080005e8 	stmdaeq	r0, {r3, r5, r6, r7, r8, sl}
  fc:	08000620 	stmdaeq	r0, {r5, r9, sl}
 100:	08000620 	stmdaeq	r0, {r5, r9, sl}
 104:	08000640 	stmdaeq	r0, {r6, r9, sl}
 108:	00000001 	andeq	r0, r0, r1
 10c:	00000001 	andeq	r0, r0, r1
 110:	00000001 	andeq	r0, r0, r1
 114:	00000001 	andeq	r0, r0, r1
 118:	00000001 	andeq	r0, r0, r1
 11c:	00000001 	andeq	r0, r0, r1
	...
 128:	0800084c 	stmdaeq	r0, {r2, r3, r6, fp}
 12c:	0800092c 	stmdaeq	r0, {r2, r3, r5, r8, fp}
 130:	08000b6c 	stmdaeq	r0, {r2, r3, r5, r6, r8, r9, fp}
 134:	08000b88 	stmdaeq	r0, {r3, r7, r8, r9, fp}
	...
 140:	0800086e 	stmdaeq	r0, {r1, r2, r3, r5, r6, fp}
 144:	08000870 	stmdaeq	r0, {r4, r5, r6, fp}
 148:	08000872 	stmdaeq	r0, {r1, r4, r5, r6, fp}
 14c:	0800087e 	stmdaeq	r0, {r1, r2, r3, r4, r5, r6, fp}
	...
 158:	00000001 	andeq	r0, r0, r1
 15c:	00000001 	andeq	r0, r0, r1
 160:	00000001 	andeq	r0, r0, r1
 164:	00000001 	andeq	r0, r0, r1
 168:	00000001 	andeq	r0, r0, r1
 16c:	00000001 	andeq	r0, r0, r1
 170:	00000001 	andeq	r0, r0, r1
 174:	00000001 	andeq	r0, r0, r1
 178:	00000001 	andeq	r0, r0, r1
 17c:	00000001 	andeq	r0, r0, r1
	...
 188:	00000001 	andeq	r0, r0, r1
 18c:	00000001 	andeq	r0, r0, r1
 190:	08000640 	stmdaeq	r0, {r6, r9, sl}
 194:	08000bc4 	stmdaeq	r0, {r2, r6, r7, r8, r9, fp}
 198:	00000001 	andeq	r0, r0, r1
 19c:	00000001 	andeq	r0, r0, r1
 1a0:	00000001 	andeq	r0, r0, r1
 1a4:	00000001 	andeq	r0, r0, r1
 1a8:	00000001 	andeq	r0, r0, r1
 1ac:	00000001 	andeq	r0, r0, r1
 1b0:	08000bc4 	stmdaeq	r0, {r2, r6, r7, r8, r9, fp}
 1b4:	08000c3c 	stmdaeq	r0, {r2, r3, r4, r5, sl, fp}
 1b8:	08000c3c 	stmdaeq	r0, {r2, r3, r4, r5, sl, fp}
 1bc:	08000e48 	stmdaeq	r0, {r3, r6, r9, sl, fp}
 1c0:	08000e48 	stmdaeq	r0, {r3, r6, r9, sl, fp}
 1c4:	08000e54 	stmdaeq	r0, {r2, r4, r6, r9, sl, fp}
 1c8:	00000001 	andeq	r0, r0, r1
 1cc:	00000001 	andeq	r0, r0, r1
 1d0:	00000001 	andeq	r0, r0, r1
 1d4:	00000001 	andeq	r0, r0, r1
 1d8:	00000001 	andeq	r0, r0, r1
 1dc:	00000001 	andeq	r0, r0, r1
 1e0:	00000001 	andeq	r0, r0, r1
 1e4:	00000001 	andeq	r0, r0, r1
 1e8:	00000001 	andeq	r0, r0, r1
 1ec:	00000001 	andeq	r0, r0, r1
	...
 1f8:	08000eda 	stmdaeq	r0, {r1, r3, r4, r6, r7, r9, sl, fp}
 1fc:	08000ee6 	stmdaeq	r0, {r1, r2, r5, r6, r7, r9, sl, fp}
 200:	08000ee6 	stmdaeq	r0, {r1, r2, r5, r6, r7, r9, sl, fp}
 204:	08000ee8 	stmdaeq	r0, {r3, r5, r6, r7, r9, sl, fp}
	...
 210:	00000001 	andeq	r0, r0, r1
 214:	00000001 	andeq	r0, r0, r1
 218:	00000001 	andeq	r0, r0, r1
 21c:	00000001 	andeq	r0, r0, r1
	...
 228:	08000efe 	stmdaeq	r0, {r1, r2, r3, r4, r5, r6, r7, r9, sl, fp}
 22c:	08000f00 	stmdaeq	r0, {r8, r9, sl, fp}
 230:	08000f02 	stmdaeq	r0, {r1, r8, r9, sl, fp}
 234:	08000f04 	stmdaeq	r0, {r2, r8, r9, sl, fp}
 238:	08000f06 	stmdaeq	r0, {r1, r2, r8, r9, sl, fp}
 23c:	08000f12 	stmdaeq	r0, {r1, r4, r8, r9, sl, fp}
	...
 248:	00000001 	andeq	r0, r0, r1
 24c:	00000001 	andeq	r0, r0, r1
 250:	00000001 	andeq	r0, r0, r1
 254:	00000001 	andeq	r0, r0, r1
	...
 260:	00000001 	andeq	r0, r0, r1
 264:	00000001 	andeq	r0, r0, r1
 268:	00000001 	andeq	r0, r0, r1
 26c:	00000001 	andeq	r0, r0, r1
	...
 278:	08000e54 	stmdaeq	r0, {r2, r4, r6, r9, sl, fp}
 27c:	08000ecc 	stmdaeq	r0, {r2, r3, r6, r7, r9, sl, fp}
 280:	08000ecc 	stmdaeq	r0, {r2, r3, r6, r7, r9, sl, fp}
 284:	08000ef4 	stmdaeq	r0, {r2, r4, r5, r6, r7, r9, sl, fp}
 288:	00000001 	andeq	r0, r0, r1
 28c:	00000001 	andeq	r0, r0, r1
 290:	00000001 	andeq	r0, r0, r1
 294:	00000001 	andeq	r0, r0, r1
 298:	08000ef4 	stmdaeq	r0, {r2, r4, r5, r6, r7, r9, sl, fp}
 29c:	08000f28 	stmdaeq	r0, {r3, r5, r8, r9, sl, fp}
 2a0:	00000001 	andeq	r0, r0, r1
 2a4:	00000001 	andeq	r0, r0, r1
 2a8:	00000001 	andeq	r0, r0, r1
 2ac:	00000001 	andeq	r0, r0, r1
 2b0:	00000001 	andeq	r0, r0, r1
 2b4:	00000001 	andeq	r0, r0, r1
 2b8:	00000001 	andeq	r0, r0, r1
 2bc:	00000001 	andeq	r0, r0, r1
 2c0:	00000001 	andeq	r0, r0, r1
 2c4:	00000001 	andeq	r0, r0, r1
 2c8:	00000001 	andeq	r0, r0, r1
 2cc:	00000001 	andeq	r0, r0, r1
 2d0:	00000001 	andeq	r0, r0, r1
 2d4:	00000001 	andeq	r0, r0, r1
	...
 2e0:	00000001 	andeq	r0, r0, r1
 2e4:	00000001 	andeq	r0, r0, r1
 2e8:	00000001 	andeq	r0, r0, r1
 2ec:	00000001 	andeq	r0, r0, r1
 2f0:	00000001 	andeq	r0, r0, r1
 2f4:	00000001 	andeq	r0, r0, r1
	...
 300:	00000001 	andeq	r0, r0, r1
 304:	00000001 	andeq	r0, r0, r1
 308:	08000f28 	stmdaeq	r0, {r3, r5, r8, r9, sl, fp}
 30c:	08000fcc 	stmdaeq	r0, {r2, r3, r6, r7, r8, r9, sl, fp}
 310:	00000001 	andeq	r0, r0, r1
 314:	00000001 	andeq	r0, r0, r1
 318:	00000001 	andeq	r0, r0, r1
 31c:	00000001 	andeq	r0, r0, r1
 320:	08000fcc 	stmdaeq	r0, {r2, r3, r6, r7, r8, r9, sl, fp}
 324:	08000fe8 	stmdaeq	r0, {r3, r5, r6, r7, r8, r9, sl, fp}
 328:	00000001 	andeq	r0, r0, r1
 32c:	00000001 	andeq	r0, r0, r1
 330:	00000001 	andeq	r0, r0, r1
 334:	00000001 	andeq	r0, r0, r1
	...
 340:	08000fe8 	stmdaeq	r0, {r3, r5, r6, r7, r8, r9, sl, fp}
 344:	08001048 	stmdaeq	r0, {r3, r6, ip}
 348:	00000001 	andeq	r0, r0, r1
 34c:	00000001 	andeq	r0, r0, r1
	...
 358:	ffffffff 			; <UNDEFINED> instruction: 0xffffffff
 35c:	00000000 	andeq	r0, r0, r0
 360:	08001048 	stmdaeq	r0, {r3, r6, ip}
 364:	08001098 	stmdaeq	r0, {r3, r4, r7, ip}
 368:	08001098 	stmdaeq	r0, {r3, r4, r7, ip}
 36c:	0800109a 	stmdaeq	r0, {r1, r3, r4, r7, ip}
	...
 378:	0800109c 	stmdaeq	r0, {r2, r3, r4, r7, ip}
 37c:	080010ac 	stmdaeq	r0, {r2, r3, r5, r7, ip}
	...
 388:	080010ac 	stmdaeq	r0, {r2, r3, r5, r7, ip}
 38c:	080010e0 	stmdaeq	r0, {r5, r6, r7, ip}
	...
 398:	080010e0 	stmdaeq	r0, {r5, r6, r7, ip}
 39c:	08001128 	stmdaeq	r0, {r3, r5, r8, ip}
	...
 3a8:	08001128 	stmdaeq	r0, {r3, r5, r8, ip}
 3ac:	080011a4 	stmdaeq	r0, {r2, r5, r7, r8, ip}
	...
 3b8:	080011a4 	stmdaeq	r0, {r2, r5, r7, r8, ip}
 3bc:	08001278 	stmdaeq	r0, {r3, r4, r5, r6, r9, ip}
	...
 3c8:	00000001 	andeq	r0, r0, r1
 3cc:	00000001 	andeq	r0, r0, r1
 3d0:	00000001 	andeq	r0, r0, r1
 3d4:	00000001 	andeq	r0, r0, r1
 3d8:	00000001 	andeq	r0, r0, r1
 3dc:	00000001 	andeq	r0, r0, r1
 3e0:	00000001 	andeq	r0, r0, r1
 3e4:	00000001 	andeq	r0, r0, r1
 3e8:	00000001 	andeq	r0, r0, r1
 3ec:	00000001 	andeq	r0, r0, r1
	...
 3f8:	08001278 	stmdaeq	r0, {r3, r4, r5, r6, r9, ip}
 3fc:	08001290 	stmdaeq	r0, {r4, r7, r9, ip}
 400:	00000001 	andeq	r0, r0, r1
 404:	00000001 	andeq	r0, r0, r1
	...

Disassembly of section .debug_line:

00000000 <.debug_line>:
       0:	000001c4 	andeq	r0, r0, r4, asr #3
       4:	014e0002 	cmpeq	lr, r2
       8:	01020000 	mrseq	r0, (UNDEF: 2)
       c:	000d0efb 	strdeq	r0, [sp], -fp
      10:	01010101 	tsteq	r1, r1, lsl #2
      14:	01000000 	mrseq	r0, (UNDEF: 0)
      18:	73010000 	movwvc	r0, #4096	; 0x1000
      1c:	6c006372 	stcvs	3, cr6, [r0], {114}	; 0x72
      20:	632f6269 			; <UNDEFINED> instruction: 0x632f6269
      24:	7369736d 	cmnvc	r9, #-1275068415	; 0xb4000001
      28:	7665442f 	strbtvc	r4, [r5], -pc, lsr #8
      2c:	2f656369 	svccs	0x00656369
      30:	532f5453 			; <UNDEFINED> instruction: 0x532f5453
      34:	32334d54 	eorscc	r4, r3, #84, 26	; 0x1500
      38:	78783046 	ldmdavc	r8!, {r1, r2, r6, ip, sp}^
      3c:	636e492f 	cmnvs	lr, #770048	; 0xbc000
      40:	6564756c 	strbvs	r7, [r4, #-1388]!	; 0xfffffa94
      44:	73752f00 	cmnvc	r5, #0, 30
      48:	6e692f72 	mcrvs	15, 3, r2, cr9, cr2, {3}
      4c:	64756c63 	ldrbtvs	r6, [r5], #-3171	; 0xfffff39d
      50:	656e2f65 	strbvs	r2, [lr, #-3941]!	; 0xfffff09b
      54:	62696c77 	rsbvs	r6, r9, #30464	; 0x7700
      58:	63616d2f 	cmnvs	r1, #3008	; 0xbc0
      5c:	656e6968 	strbvs	r6, [lr, #-2408]!	; 0xfffff698
      60:	73752f00 	cmnvc	r5, #0, 30
      64:	6e692f72 	mcrvs	15, 3, r2, cr9, cr2, {3}
      68:	64756c63 	ldrbtvs	r6, [r5], #-3171	; 0xfffff39d
      6c:	656e2f65 	strbvs	r2, [lr, #-3941]!	; 0xfffff09b
      70:	62696c77 	rsbvs	r6, r9, #30464	; 0x7700
      74:	7379732f 	cmnvc	r9, #-1140850688	; 0xbc000000
      78:	62696c00 	rsbvs	r6, r9, #0, 24
      7c:	6c61682f 	stclvs	8, cr6, [r1], #-188	; 0xffffff44
      80:	636e492f 	cmnvs	lr, #770048	; 0xbc000
      84:	62696c00 	rsbvs	r6, r9, #0, 24
      88:	7073622f 	rsbsvc	r6, r3, pc, lsr #4
      8c:	616d0000 	cmnvs	sp, r0
      90:	632e6e69 			; <UNDEFINED> instruction: 0x632e6e69
      94:	00000100 	andeq	r0, r0, r0, lsl #2
      98:	336d7473 	cmncc	sp, #1929379840	; 0x73000000
      9c:	37306632 			; <UNDEFINED> instruction: 0x37306632
      a0:	2e627832 	mcrcs	8, 3, r7, cr2, cr2, {1}
      a4:	00020068 	andeq	r0, r2, r8, rrx
      a8:	65645f00 	strbvs	r5, [r4, #-3840]!	; 0xfffff100
      ac:	6c756166 	ldfvse	f6, [r5], #-408	; 0xfffffe68
      b0:	79745f74 	ldmdbvc	r4!, {r2, r4, r5, r6, r8, r9, sl, fp, ip, lr}^
      b4:	2e736570 	mrccs	5, 3, r6, cr3, cr0, {3}
      b8:	00030068 	andeq	r0, r3, r8, rrx
      bc:	74735f00 	ldrbtvc	r5, [r3], #-3840	; 0xfffff100
      c0:	746e6964 	strbtvc	r6, [lr], #-2404	; 0xfffff69c
      c4:	0400682e 	streq	r6, [r0], #-2094	; 0xfffff7d2
      c8:	74730000 	ldrbtvc	r0, [r3], #-0
      cc:	6632336d 	ldrtvs	r3, [r2], -sp, ror #6
      d0:	5f787830 	svcpl	0x00787830
      d4:	5f6c6168 	svcpl	0x006c6168
      d8:	2e666564 	cdpcs	5, 6, cr6, cr6, cr4, {3}
      dc:	00050068 	andeq	r0, r5, r8, rrx
      e0:	6d747300 	ldclvs	3, cr7, [r4, #-0]
      e4:	30663233 	rsbcc	r3, r6, r3, lsr r2
      e8:	685f7878 	ldmdavs	pc, {r3, r4, r5, r6, fp, ip, sp, lr}^	; <UNPREDICTABLE>
      ec:	725f6c61 	subsvc	r6, pc, #24832	; 0x6100
      f0:	682e6363 	stmdavs	lr!, {r0, r1, r5, r6, r8, r9, sp, lr}
      f4:	00000500 	andeq	r0, r0, r0, lsl #10
      f8:	336d7473 	cmncc	sp, #1929379840	; 0x73000000
      fc:	78306632 	ldmdavc	r0!, {r1, r4, r5, r9, sl, sp, lr}
     100:	61685f78 	smcvs	34296	; 0x85f8
     104:	70675f6c 	rsbvc	r5, r7, ip, ror #30
     108:	682e6f69 	stmdavs	lr!, {r0, r3, r5, r6, r8, r9, sl, fp, sp, lr}
     10c:	00000500 	andeq	r0, r0, r0, lsl #10
     110:	336d7473 	cmncc	sp, #1929379840	; 0x73000000
     114:	37306632 			; <UNDEFINED> instruction: 0x37306632
     118:	645f6232 	ldrbvs	r6, [pc], #-562	; 120 <_Min_Heap_Size-0xe0>
     11c:	6f637369 	svcvs	0x00637369
     120:	79726576 	ldmdbvc	r2!, {r1, r2, r4, r5, r6, r8, sl, sp, lr}^
     124:	0600682e 	streq	r6, [r0], -lr, lsr #16
     128:	74730000 	ldrbtvc	r0, [r3], #-0
     12c:	6632336d 	ldrtvs	r3, [r2], -sp, ror #6
     130:	5f787830 	svcpl	0x00787830
     134:	5f6c6168 	svcpl	0x006c6168
     138:	74726f63 	ldrbtvc	r6, [r2], #-3939	; 0xfffff09d
     13c:	682e7865 	stmdavs	lr!, {r0, r2, r5, r6, fp, ip, sp, lr}
     140:	00000500 	andeq	r0, r0, r0, lsl #10
     144:	336d7473 	cmncc	sp, #1929379840	; 0x73000000
     148:	78306632 	ldmdavc	r0!, {r1, r4, r5, r9, sl, sp, lr}
     14c:	61685f78 	smcvs	34296	; 0x85f8
     150:	00682e6c 	rsbeq	r2, r8, ip, ror #28
     154:	00000005 	andeq	r0, r0, r5
     158:	98020500 	stmdals	r2, {r8, sl}
     15c:	03080002 	movweq	r0, #32770	; 0x8002
     160:	0a03013f 	beq	c0664 <_Min_Stack_Size+0xc0264>
     164:	033d312e 	teqeq	sp, #-2147483637	; 0x8000000b
     168:	2c313c23 	ldccs	12, cr3, [r1], #-140	; 0xffffff74
     16c:	21222121 			; <UNDEFINED> instruction: 0x21222121
     170:	2122211b 			; <UNDEFINED> instruction: 0x2122211b
     174:	4a170321 	bmi	5c0e00 <_Min_Stack_Size+0x5c0a00>
     178:	224a6f03 	subcs	r6, sl, #3, 30
     17c:	212a2121 			; <UNDEFINED> instruction: 0x212a2121
     180:	4a0d0323 	bmi	340e14 <_Min_Stack_Size+0x340a14>
     184:	784a1103 	stmdavc	sl, {r0, r1, r8, ip}^
     188:	207a0322 	rsbscs	r0, sl, r2, lsr #6
     18c:	222b233f 	eorcs	r2, fp, #-67108864	; 0xfc000000
     190:	00593121 	subseq	r3, r9, r1, lsr #2
     194:	03010402 	movweq	r0, #5122	; 0x1402
     198:	023c7fb0 	eorseq	r7, ip, #176, 30	; 0x2c0
     19c:	01010005 	tsteq	r1, r5
     1a0:	00020500 	andeq	r0, r2, r0, lsl #10
     1a4:	03000000 	movweq	r0, #0
     1a8:	210101b1 			; <UNDEFINED> instruction: 0x210101b1
     1ac:	01023e31 	tsteq	r2, r1, lsr lr
     1b0:	00010100 	andeq	r0, r1, r0, lsl #2
     1b4:	03340205 	teqeq	r4, #1342177280	; 0x50000000
     1b8:	c3030800 	movwgt	r0, #14336	; 0x3800
     1bc:	02000101 	andeq	r0, r0, #1073741824	; 0x40000000
     1c0:	02190104 	andseq	r0, r9, #4, 2
     1c4:	01010001 	tsteq	r1, r1
     1c8:	000002d2 	ldrdeq	r0, [r0], -r2
     1cc:	01320002 	teqeq	r2, r2
     1d0:	01020000 	mrseq	r0, (UNDEF: 2)
     1d4:	000d0efb 	strdeq	r0, [sp], -fp
     1d8:	01010101 	tsteq	r1, r1, lsl #2
     1dc:	01000000 	mrseq	r0, (UNDEF: 0)
     1e0:	6c010000 	stcvs	0, cr0, [r1], {-0}
     1e4:	682f6269 	stmdavs	pc!, {r0, r3, r5, r6, r9, sp, lr}	; <UNPREDICTABLE>
     1e8:	532f6c61 			; <UNDEFINED> instruction: 0x532f6c61
     1ec:	6c006372 	stcvs	3, cr6, [r0], {114}	; 0x72
     1f0:	632f6269 			; <UNDEFINED> instruction: 0x632f6269
     1f4:	7369736d 	cmnvc	r9, #-1275068415	; 0xb4000001
     1f8:	7665442f 	strbtvc	r4, [r5], -pc, lsr #8
     1fc:	2f656369 	svccs	0x00656369
     200:	532f5453 			; <UNDEFINED> instruction: 0x532f5453
     204:	32334d54 	eorscc	r4, r3, #84, 26	; 0x1500
     208:	78783046 	ldmdavc	r8!, {r1, r2, r6, ip, sp}^
     20c:	636e492f 	cmnvs	lr, #770048	; 0xbc000
     210:	6564756c 	strbvs	r7, [r4, #-1388]!	; 0xfffffa94
     214:	73752f00 	cmnvc	r5, #0, 30
     218:	6e692f72 	mcrvs	15, 3, r2, cr9, cr2, {3}
     21c:	64756c63 	ldrbtvs	r6, [r5], #-3171	; 0xfffff39d
     220:	656e2f65 	strbvs	r2, [lr, #-3941]!	; 0xfffff09b
     224:	62696c77 	rsbvs	r6, r9, #30464	; 0x7700
     228:	63616d2f 	cmnvs	r1, #3008	; 0xbc0
     22c:	656e6968 	strbvs	r6, [lr, #-2408]!	; 0xfffff698
     230:	73752f00 	cmnvc	r5, #0, 30
     234:	6e692f72 	mcrvs	15, 3, r2, cr9, cr2, {3}
     238:	64756c63 	ldrbtvs	r6, [r5], #-3171	; 0xfffff39d
     23c:	656e2f65 	strbvs	r2, [lr, #-3941]!	; 0xfffff09b
     240:	62696c77 	rsbvs	r6, r9, #30464	; 0x7700
     244:	7379732f 	cmnvc	r9, #-1140850688	; 0xbc000000
     248:	62696c00 	rsbvs	r6, r9, #0, 24
     24c:	736d632f 	cmnvc	sp, #-1140850688	; 0xbc000000
     250:	492f7369 	stmdbmi	pc!, {r0, r3, r5, r6, r8, r9, ip, sp, lr}	; <UNPREDICTABLE>
     254:	756c636e 	strbvc	r6, [ip, #-878]!	; 0xfffffc92
     258:	6c006564 	cfstr32vs	mvfx6, [r0], {100}	; 0x64
     25c:	682f6269 	stmdavs	pc!, {r0, r3, r5, r6, r9, sp, lr}	; <UNPREDICTABLE>
     260:	492f6c61 	stmdbmi	pc!, {r0, r5, r6, sl, fp, sp, lr}	; <UNPREDICTABLE>
     264:	0000636e 	andeq	r6, r0, lr, ror #6
     268:	336d7473 	cmncc	sp, #1929379840	; 0x73000000
     26c:	78306632 	ldmdavc	r0!, {r1, r4, r5, r9, sl, sp, lr}
     270:	61685f78 	smcvs	34296	; 0x85f8
     274:	00632e6c 	rsbeq	r2, r3, ip, ror #28
     278:	73000001 	movwvc	r0, #1
     27c:	32336d74 	eorscc	r6, r3, #116, 26	; 0x1d00
     280:	32373066 	eorscc	r3, r7, #102	; 0x66
     284:	682e6278 	stmdavs	lr!, {r3, r4, r5, r6, r9, sp, lr}
     288:	00000200 	andeq	r0, r0, r0, lsl #4
     28c:	6665645f 			; <UNDEFINED> instruction: 0x6665645f
     290:	746c7561 	strbtvc	r7, [ip], #-1377	; 0xfffffa9f
     294:	7079745f 	rsbsvc	r7, r9, pc, asr r4
     298:	682e7365 	stmdavs	lr!, {r0, r2, r5, r6, r8, r9, ip, sp, lr}
     29c:	00000300 	andeq	r0, r0, r0, lsl #6
     2a0:	6474735f 	ldrbtvs	r7, [r4], #-863	; 0xfffffca1
     2a4:	2e746e69 	cdpcs	14, 7, cr6, cr4, cr9, {3}
     2a8:	00040068 	andeq	r0, r4, r8, rrx
     2ac:	726f6300 	rsbvc	r6, pc, #0, 6
     2b0:	6d635f65 	stclvs	15, cr5, [r3, #-404]!	; 0xfffffe6c
     2b4:	00682e30 	rsbeq	r2, r8, r0, lsr lr
     2b8:	73000005 	movwvc	r0, #5
     2bc:	32336d74 	eorscc	r6, r3, #116, 26	; 0x1d00
     2c0:	78783066 	ldmdavc	r8!, {r1, r2, r5, r6, ip, sp}^
     2c4:	6c61685f 	stclvs	8, cr6, [r1], #-380	; 0xfffffe84
     2c8:	6665645f 			; <UNDEFINED> instruction: 0x6665645f
     2cc:	0600682e 	streq	r6, [r0], -lr, lsr #16
     2d0:	74730000 	ldrbtvc	r0, [r3], #-0
     2d4:	6632336d 	ldrtvs	r3, [r2], -sp, ror #6
     2d8:	5f787830 	svcpl	0x00787830
     2dc:	5f6c6168 	svcpl	0x006c6168
     2e0:	2e636372 	mcrcs	3, 3, r6, cr3, cr2, {3}
     2e4:	00060068 	andeq	r0, r6, r8, rrx
     2e8:	6d747300 	ldclvs	3, cr7, [r4, #-0]
     2ec:	30663233 	rsbcc	r3, r6, r3, lsr r2
     2f0:	685f7878 	ldmdavs	pc, {r3, r4, r5, r6, fp, ip, sp, lr}^	; <UNPREDICTABLE>
     2f4:	635f6c61 	cmpvs	pc, #24832	; 0x6100
     2f8:	6574726f 	ldrbvs	r7, [r4, #-623]!	; 0xfffffd91
     2fc:	00682e78 	rsbeq	r2, r8, r8, ror lr
     300:	00000006 	andeq	r0, r0, r6
     304:	36020500 	strcc	r0, [r2], -r0, lsl #10
     308:	03080003 	movweq	r0, #32771	; 0x8003
     30c:	160101ca 	strne	r0, [r1], -sl, asr #3
     310:	01000102 	tsteq	r0, r2, lsl #2
     314:	02050001 	andeq	r0, r5, #1
     318:	00000000 	andeq	r0, r0, r0
     31c:	0101d503 	tsteq	r1, r3, lsl #10
     320:	00010216 	andeq	r0, r1, r6, lsl r2
     324:	05000101 	streq	r0, [r0, #-257]	; 0xfffffeff
     328:	00000002 	andeq	r0, r0, r2
     32c:	01b30300 			; <UNDEFINED> instruction: 0x01b30300
     330:	231e1401 	tstcs	lr, #16777216	; 0x1000000
     334:	21223d1f 			; <UNDEFINED> instruction: 0x21223d1f
     338:	32232122 	eorcc	r2, r3, #-2147483640	; 0x80000008
     33c:	01000502 	tsteq	r0, r2, lsl #10
     340:	02050001 	andeq	r0, r5, #1
     344:	08000338 	stmdaeq	r0, {r3, r4, r5, r8, r9}
     348:	0101ec03 	tsteq	r1, r3, lsl #24
     34c:	6a852220 	bvs	fe148bd4 <_estack+0xde144bd4>
     350:	01000202 	tsteq	r0, r2, lsl #4
     354:	02050001 	andeq	r0, r5, #1
     358:	0800035c 	stmdaeq	r0, {r2, r3, r4, r6, r8, r9}
     35c:	01019b03 	tsteq	r1, r3, lsl #22
     360:	25232b15 	strcs	r2, [r3, #-2837]!	; 0xfffff4eb
     364:	0e35331b 	mrceq	3, 1, r3, cr5, cr11, {0}
     368:	00050232 	andeq	r0, r5, r2, lsr r2
     36c:	05000101 	streq	r0, [r0, #-257]	; 0xfffffeff
     370:	00000002 	andeq	r0, r0, r2
     374:	029c0300 	addseq	r0, ip, #0, 6
     378:	11211301 			; <UNDEFINED> instruction: 0x11211301
     37c:	0004023d 	andeq	r0, r4, sp, lsr r2
     380:	05000101 	streq	r0, [r0, #-257]	; 0xfffffeff
     384:	00037c02 	andeq	r7, r3, r2, lsl #24
     388:	02a70308 	adceq	r0, r7, #8, 6	; 0x20000000
     38c:	11211301 			; <UNDEFINED> instruction: 0x11211301
     390:	00040221 	andeq	r0, r4, r1, lsr #4
     394:	05000101 	streq	r0, [r0, #-257]	; 0xfffffeff
     398:	00000002 	andeq	r0, r0, r2
     39c:	02b70300 	adcseq	r0, r7, #0, 6
     3a0:	2f212001 	svccs	0x00212001
     3a4:	0200261f 	andeq	r2, r0, #32505856	; 0x1f00000
     3a8:	5b4d0104 	blpl	13407c0 <_Min_Stack_Size+0x13403c0>
     3ac:	01000102 	tsteq	r0, r2, lsl #2
     3b0:	02050001 	andeq	r0, r5, #1
     3b4:	00000000 	andeq	r0, r0, r0
     3b8:	0102d203 	tsteq	r2, r3, lsl #4
     3bc:	3d112f14 	ldccc	15, cr2, [r1, #-80]	; 0xffffffb0
     3c0:	01000302 	tsteq	r0, r2, lsl #6
     3c4:	02050001 	andeq	r0, r5, #1
     3c8:	00000000 	andeq	r0, r0, r0
     3cc:	0102e203 	tsteq	r2, r3, lsl #4
     3d0:	3d112f14 	ldccc	15, cr2, [r1, #-80]	; 0xffffffb0
     3d4:	01000302 	tsteq	r0, r2, lsl #6
     3d8:	02050001 	andeq	r0, r5, #1
     3dc:	00000000 	andeq	r0, r0, r0
     3e0:	0102ec03 	tsteq	r2, r3, lsl #24
     3e4:	00040214 	andeq	r0, r4, r4, lsl r2
     3e8:	05000101 	streq	r0, [r0, #-257]	; 0xfffffeff
     3ec:	00000002 	andeq	r0, r0, r2
     3f0:	02f50300 	rscseq	r0, r5, #0, 6
     3f4:	11211301 			; <UNDEFINED> instruction: 0x11211301
     3f8:	0003022f 	andeq	r0, r3, pc, lsr #4
     3fc:	05000101 	streq	r0, [r0, #-257]	; 0xfffffeff
     400:	00000002 	andeq	r0, r0, r2
     404:	02fe0300 	rscseq	r0, lr, #0, 6
     408:	11211301 			; <UNDEFINED> instruction: 0x11211301
     40c:	0004023d 	andeq	r0, r4, sp, lsr r2
     410:	05000101 	streq	r0, [r0, #-257]	; 0xfffffeff
     414:	00000002 	andeq	r0, r0, r2
     418:	03870300 	orreq	r0, r7, #0, 6
     41c:	11211301 			; <UNDEFINED> instruction: 0x11211301
     420:	00040221 	andeq	r0, r4, r1, lsr #4
     424:	05000101 	streq	r0, [r0, #-257]	; 0xfffffeff
     428:	00000002 	andeq	r0, r0, r2
     42c:	03900300 	orrseq	r0, r0, #0, 6
     430:	11211301 			; <UNDEFINED> instruction: 0x11211301
     434:	00040221 	andeq	r0, r4, r1, lsr #4
     438:	05000101 	streq	r0, [r0, #-257]	; 0xfffffeff
     43c:	00000002 	andeq	r0, r0, r2
     440:	03990300 	orrseq	r0, r9, #0, 6
     444:	11211301 			; <UNDEFINED> instruction: 0x11211301
     448:	00040221 	andeq	r0, r4, r1, lsr #4
     44c:	05000101 	streq	r0, [r0, #-257]	; 0xfffffeff
     450:	00000002 	andeq	r0, r0, r2
     454:	03a20300 			; <UNDEFINED> instruction: 0x03a20300
     458:	112f1301 			; <UNDEFINED> instruction: 0x112f1301
     45c:	0003023d 	andeq	r0, r3, sp, lsr r2
     460:	05000101 	streq	r0, [r0, #-257]	; 0xfffffeff
     464:	00000002 	andeq	r0, r0, r2
     468:	03ab0300 			; <UNDEFINED> instruction: 0x03ab0300
     46c:	112f1301 			; <UNDEFINED> instruction: 0x112f1301
     470:	0003023d 	andeq	r0, r3, sp, lsr r2
     474:	05000101 	streq	r0, [r0, #-257]	; 0xfffffeff
     478:	00000002 	andeq	r0, r0, r2
     47c:	03b40300 			; <UNDEFINED> instruction: 0x03b40300
     480:	112f1301 			; <UNDEFINED> instruction: 0x112f1301
     484:	0003023d 	andeq	r0, r3, sp, lsr r2
     488:	05000101 	streq	r0, [r0, #-257]	; 0xfffffeff
     48c:	00000002 	andeq	r0, r0, r2
     490:	03bd0300 			; <UNDEFINED> instruction: 0x03bd0300
     494:	112f1301 			; <UNDEFINED> instruction: 0x112f1301
     498:	0003023d 	andeq	r0, r3, sp, lsr r2
     49c:	03970101 	orrseq	r0, r7, #1073741824	; 0x40000000
     4a0:	00020000 	andeq	r0, r2, r0
     4a4:	00000129 	andeq	r0, r0, r9, lsr #2
     4a8:	0efb0102 	cdpeq	1, 15, cr0, cr11, cr2, {0}
     4ac:	0101000d 	tsteq	r1, sp
     4b0:	00000101 	andeq	r0, r0, r1, lsl #2
     4b4:	00000100 	andeq	r0, r0, r0, lsl #2
     4b8:	62696c01 	rsbvs	r6, r9, #256	; 0x100
     4bc:	6c61682f 	stclvs	8, cr6, [r1], #-188	; 0xffffff44
     4c0:	6372532f 	cmnvs	r2, #-1140850688	; 0xbc000000
     4c4:	73752f00 	cmnvc	r5, #0, 30
     4c8:	6e692f72 	mcrvs	15, 3, r2, cr9, cr2, {3}
     4cc:	64756c63 	ldrbtvs	r6, [r5], #-3171	; 0xfffff39d
     4d0:	656e2f65 	strbvs	r2, [lr, #-3941]!	; 0xfffff09b
     4d4:	62696c77 	rsbvs	r6, r9, #30464	; 0x7700
     4d8:	63616d2f 	cmnvs	r1, #3008	; 0xbc0
     4dc:	656e6968 	strbvs	r6, [lr, #-2408]!	; 0xfffff698
     4e0:	73752f00 	cmnvc	r5, #0, 30
     4e4:	6e692f72 	mcrvs	15, 3, r2, cr9, cr2, {3}
     4e8:	64756c63 	ldrbtvs	r6, [r5], #-3171	; 0xfffff39d
     4ec:	656e2f65 	strbvs	r2, [lr, #-3941]!	; 0xfffff09b
     4f0:	62696c77 	rsbvs	r6, r9, #30464	; 0x7700
     4f4:	7379732f 	cmnvc	r9, #-1140850688	; 0xbc000000
     4f8:	62696c00 	rsbvs	r6, r9, #0, 24
     4fc:	736d632f 	cmnvc	sp, #-1140850688	; 0xbc000000
     500:	442f7369 	strtmi	r7, [pc], #-873	; 508 <_Min_Stack_Size+0x108>
     504:	63697665 	cmnvs	r9, #105906176	; 0x6500000
     508:	54532f65 	ldrbpl	r2, [r3], #-3941	; 0xfffff09b
     50c:	4d54532f 	ldclmi	3, cr5, [r4, #-188]	; 0xffffff44
     510:	30463233 	subcc	r3, r6, r3, lsr r2
     514:	492f7878 	stmdbmi	pc!, {r3, r4, r5, r6, fp, ip, sp, lr}	; <UNPREDICTABLE>
     518:	756c636e 	strbvc	r6, [ip, #-878]!	; 0xfffffc92
     51c:	6c006564 	cfstr32vs	mvfx6, [r0], {100}	; 0x64
     520:	682f6269 	stmdavs	pc!, {r0, r3, r5, r6, r9, sp, lr}	; <UNPREDICTABLE>
     524:	492f6c61 	stmdbmi	pc!, {r0, r5, r6, sl, fp, sp, lr}	; <UNPREDICTABLE>
     528:	6900636e 	stmdbvs	r0, {r1, r2, r3, r5, r6, r8, r9, sp, lr}
     52c:	0000636e 	andeq	r6, r0, lr, ror #6
     530:	336d7473 	cmncc	sp, #1929379840	; 0x73000000
     534:	78306632 	ldmdavc	r0!, {r1, r4, r5, r9, sl, sp, lr}
     538:	61685f78 	smcvs	34296	; 0x85f8
     53c:	70675f6c 	rsbvc	r5, r7, ip, ror #30
     540:	632e6f69 			; <UNDEFINED> instruction: 0x632e6f69
     544:	00000100 	andeq	r0, r0, r0, lsl #2
     548:	6665645f 			; <UNDEFINED> instruction: 0x6665645f
     54c:	746c7561 	strbtvc	r7, [ip], #-1377	; 0xfffffa9f
     550:	7079745f 	rsbsvc	r7, r9, pc, asr r4
     554:	682e7365 	stmdavs	lr!, {r0, r2, r5, r6, r8, r9, ip, sp, lr}
     558:	00000200 	andeq	r0, r0, r0, lsl #4
     55c:	6474735f 	ldrbtvs	r7, [r4], #-863	; 0xfffffca1
     560:	2e746e69 	cdpcs	14, 7, cr6, cr4, cr9, {3}
     564:	00030068 	andeq	r0, r3, r8, rrx
     568:	6d747300 	ldclvs	3, cr7, [r4, #-0]
     56c:	30663233 	rsbcc	r3, r6, r3, lsr r2
     570:	62783237 	rsbsvs	r3, r8, #1879048195	; 0x70000003
     574:	0400682e 	streq	r6, [r0], #-2094	; 0xfffff7d2
     578:	74730000 	ldrbtvc	r0, [r3], #-0
     57c:	6632336d 	ldrtvs	r3, [r2], -sp, ror #6
     580:	2e787830 	mrccs	8, 3, r7, cr8, cr0, {1}
     584:	00040068 	andeq	r0, r4, r8, rrx
     588:	6d747300 	ldclvs	3, cr7, [r4, #-0]
     58c:	30663233 	rsbcc	r3, r6, r3, lsr r2
     590:	685f7878 	ldmdavs	pc, {r3, r4, r5, r6, fp, ip, sp, lr}^	; <UNPREDICTABLE>
     594:	645f6c61 	ldrbvs	r6, [pc], #-3169	; 59c <_Min_Stack_Size+0x19c>
     598:	682e6665 	stmdavs	lr!, {r0, r2, r5, r6, r9, sl, sp, lr}
     59c:	00000500 	andeq	r0, r0, r0, lsl #10
     5a0:	336d7473 	cmncc	sp, #1929379840	; 0x73000000
     5a4:	78306632 	ldmdavc	r0!, {r1, r4, r5, r9, sl, sp, lr}
     5a8:	61685f78 	smcvs	34296	; 0x85f8
     5ac:	70675f6c 	rsbvc	r5, r7, ip, ror #30
     5b0:	682e6f69 	stmdavs	lr!, {r0, r3, r5, r6, r8, r9, sl, fp, sp, lr}
     5b4:	00000500 	andeq	r0, r0, r0, lsl #10
     5b8:	336d7473 	cmncc	sp, #1929379840	; 0x73000000
     5bc:	78306632 	ldmdavc	r0!, {r1, r4, r5, r9, sl, sp, lr}
     5c0:	61685f78 	smcvs	34296	; 0x85f8
     5c4:	6f635f6c 	svcvs	0x00635f6c
     5c8:	682e666e 	stmdavs	lr!, {r1, r2, r3, r5, r6, r9, sl, sp, lr}
     5cc:	00000600 	andeq	r0, r0, r0, lsl #12
     5d0:	02050000 	andeq	r0, r5, #0
     5d4:	08000388 	stmdaeq	r0, {r3, r7, r8, r9}
     5d8:	0101ba03 	tsteq	r1, r3, lsl #20
     5dc:	207a0318 	rsbscs	r0, sl, r8, lsl r3
     5e0:	207a0326 	rsbscs	r0, sl, r6, lsr #6
     5e4:	02003420 	andeq	r3, r0, #32, 8	; 0x20000000
     5e8:	2e060104 	adfcss	f0, f6, f4
     5ec:	02040200 	andeq	r0, r4, #0, 4
     5f0:	0402003c 	streq	r0, [r2], #-60	; 0xffffffc4
     5f4:	02003c03 	andeq	r3, r0, #768	; 0x300
     5f8:	003c0404 	eorseq	r0, ip, r4, lsl #8
     5fc:	3c050402 	cfstrscc	mvf0, [r5], {2}
     600:	06040200 	streq	r0, [r4], -r0, lsl #4
     604:	004b063c 	subeq	r0, fp, ip, lsr r6
     608:	06020402 	streq	r0, [r2], -r2, lsl #8
     60c:	0402004a 	streq	r0, [r2], #-74	; 0xffffffb6
     610:	4b062e03 	blmi	18be24 <_Min_Stack_Size+0x18ba24>
     614:	01040200 	mrseq	r0, R12_usr
     618:	02003c06 	andeq	r3, r0, #1536	; 0x600
     61c:	004a0404 	subeq	r0, sl, r4, lsl #8
     620:	74050402 	strvc	r0, [r5], #-1026	; 0xfffffbfe
     624:	0b040200 	bleq	100e2c <_Min_Stack_Size+0x100a2c>
     628:	004b064a 	subeq	r0, fp, sl, asr #12
     62c:	06010402 	streq	r0, [r1], -r2, lsl #8
     630:	c103063c 	tstgt	r3, ip, lsr r6
     634:	27034a00 	strcs	r4, [r3, -r0, lsl #20]
     638:	7f9b0320 	svcvc	0x009b0320
     63c:	32686920 	rsbcc	r6, r8, #32, 18	; 0x80000
     640:	0402005b 	streq	r0, [r2], #-91	; 0xffffffa5
     644:	004a0601 	subeq	r0, sl, r1, lsl #12
     648:	3c020402 	cfstrscc	mvf0, [r2], {2}
     64c:	03040200 	movweq	r0, #16896	; 0x4200
     650:	0402003c 	streq	r0, [r2], #-60	; 0xffffffc4
     654:	02003c04 	andeq	r3, r0, #4, 24	; 0x400
     658:	063c0504 	ldrteq	r0, [ip], -r4, lsl #10
     65c:	0402004b 	streq	r0, [r2], #-75	; 0xffffffb5
     660:	063c0601 	ldrteq	r0, [ip], -r1, lsl #12
     664:	49212d4e 	stmdbmi	r1!, {r1, r2, r3, r6, r8, sl, fp, sp}
     668:	344b214b 	strbcc	r2, [fp], #-331	; 0xfffffeb5
     66c:	211f3d2d 	tstcs	pc, sp, lsr #26
     670:	211f221e 	tstcs	pc, lr, lsl r2	; <UNPREDICTABLE>
     674:	005c232f 	subseq	r2, ip, pc, lsr #6
     678:	06010402 	streq	r0, [r1], -r2, lsl #8
     67c:	0402003c 	streq	r0, [r2], #-60	; 0xffffffc4
     680:	4e062e02 	cdpmi	14, 0, cr2, cr6, cr2, {0}
     684:	211f221e 	tstcs	pc, lr, lsl r2	; <UNPREDICTABLE>
     688:	21212321 			; <UNDEFINED> instruction: 0x21212321
     68c:	2459211f 	ldrbcs	r2, [r9], #-287	; 0xfffffee1
     690:	207a0327 	rsbscs	r0, sl, r7, lsr #6
     694:	31243d21 			; <UNDEFINED> instruction: 0x31243d21
     698:	21495992 			; <UNDEFINED> instruction: 0x21495992
     69c:	00211f59 	eoreq	r1, r1, r9, asr pc
     6a0:	06010402 	streq	r0, [r1], -r2, lsl #8
     6a4:	0402004a 	streq	r0, [r2], #-74	; 0xffffffb6
     6a8:	02004a03 	andeq	r4, r0, #12288	; 0x3000
     6ac:	004a0504 	subeq	r0, sl, r4, lsl #10
     6b0:	4a070402 	bmi	1c16c0 <_Min_Stack_Size+0x1c12c0>
     6b4:	14040200 	strne	r0, [r4], #-512	; 0xfffffe00
     6b8:	04020066 	streq	r0, [r2], #-102	; 0xffffff9a
     6bc:	003d0614 	eorseq	r0, sp, r4, lsl r6
     6c0:	23140402 	tstcs	r4, #33554432	; 0x2000000
     6c4:	14040200 	strne	r0, [r4], #-512	; 0xfffffe00
     6c8:	04020021 	streq	r0, [r2], #-33	; 0xffffffdf
     6cc:	02001f14 	andeq	r1, r0, #20, 30	; 0x50
     6d0:	00211404 	eoreq	r1, r1, r4, lsl #8
     6d4:	23140402 	tstcs	r4, #33554432	; 0x2000000
     6d8:	14040200 	strne	r0, [r4], #-512	; 0xfffffe00
     6dc:	22332d1e 	eorscs	r2, r3, #1920	; 0x780
     6e0:	332d2c24 			; <UNDEFINED> instruction: 0x332d2c24
     6e4:	2d2c2423 	cfstrscs	mvf2, [ip, #-140]!	; 0xffffff74
     6e8:	2c242233 	sfmcs	f2, 4, [r4], #-204	; 0xffffff34
     6ec:	3e24332d 	cdpcc	3, 2, cr3, cr4, cr13, {1}
     6f0:	01001e02 	tsteq	r0, r2, lsl #28
     6f4:	02050001 	andeq	r0, r5, #1
     6f8:	00000000 	andeq	r0, r0, r0
     6fc:	0102b703 	tsteq	r2, r3, lsl #14
     700:	207a0318 	rsbscs	r0, sl, r8, lsl r3
     704:	207a0326 	rsbscs	r0, sl, r6, lsr #6
     708:	04020034 	streq	r0, [r2], #-52	; 0xffffffcc
     70c:	002e0601 	eoreq	r0, lr, r1, lsl #12
     710:	3c020402 	cfstrscc	mvf0, [r2], {2}
     714:	03040200 	movweq	r0, #16896	; 0x4200
     718:	0402003c 	streq	r0, [r2], #-60	; 0xffffffc4
     71c:	02003c04 	andeq	r3, r0, #4, 24	; 0x400
     720:	003c0504 	eorseq	r0, ip, r4, lsl #10
     724:	3c060402 	cfstrscc	mvf0, [r6], {2}
     728:	02005906 	andeq	r5, r0, #98304	; 0x18000
     72c:	3c060204 	sfmcc	f0, 4, [r6], {4}
     730:	03040200 	movweq	r0, #16896	; 0x4200
     734:	1f03062e 	svcne	0x0003062e
     738:	20640358 	rsbcs	r0, r4, r8, asr r3
     73c:	4d245a3f 	vstmdbmi	r4!, {s10-s72}
     740:	4d1d231d 	ldcmi	3, cr2, [sp, #-116]	; 0xffffff8c
     744:	033f1db2 	teqeq	pc, #11392	; 0x2c80
     748:	77032e09 	strvc	r2, [r3, -r9, lsl #28]
     74c:	5a41234a 	bpl	104947c <_Min_Stack_Size+0x104907c>
     750:	02002f1f 	andeq	r2, r0, #31, 30	; 0x7c
     754:	4a060104 	bmi	180b6c <_Min_Stack_Size+0x18076c>
     758:	03040200 	movweq	r0, #16896	; 0x4200
     75c:	0402004a 	streq	r0, [r2], #-74	; 0xffffffb6
     760:	02004a05 	andeq	r4, r0, #20480	; 0x5000
     764:	004a0704 	subeq	r0, sl, r4, lsl #14
     768:	66140402 	ldrvs	r0, [r4], -r2, lsl #8
     76c:	673f3f06 	ldrvs	r3, [pc, -r6, lsl #30]!
     770:	30403d3f 	subcc	r3, r0, pc, lsr sp
     774:	01001402 	tsteq	r0, r2, lsl #8
     778:	02050001 	andeq	r0, r5, #1
     77c:	00000000 	andeq	r0, r0, r0
     780:	01038803 	tsteq	r3, r3, lsl #16
     784:	02003220 	andeq	r3, r0, #32, 4
     788:	20060304 	andcs	r0, r6, r4, lsl #6
     78c:	09035a06 	stmdbeq	r3, {r1, r2, r9, fp, ip, lr}
     790:	01770320 	cmneq	r7, r0, lsr #6
     794:	04022144 	streq	r2, [r2], #-324	; 0xfffffebc
     798:	00010100 	andeq	r0, r1, r0, lsl #2
     79c:	05e80205 	strbeq	r0, [r8, #517]!	; 0x205
     7a0:	a9030800 	stmdbge	r3, {fp}
     7a4:	3e200103 	sufccs	f0, f0, f3
     7a8:	03040200 	movweq	r0, #16896	; 0x4200
     7ac:	59062e06 	stmdbpl	r6, {r1, r2, r9, sl, fp, sp}
     7b0:	01040200 	mrseq	r0, R12_usr
     7b4:	68062e06 	stmdavs	r6, {r1, r2, r9, sl, fp, sp}
     7b8:	02223230 	eoreq	r3, r2, #48, 4
     7bc:	01010004 	tsteq	r1, r4
     7c0:	20020500 	andcs	r0, r2, r0, lsl #10
     7c4:	03080006 	movweq	r0, #32774	; 0x8006
     7c8:	200103bf 			; <UNDEFINED> instruction: 0x200103bf
     7cc:	04020030 	streq	r0, [r2], #-48	; 0xffffffd0
     7d0:	06200603 	strteq	r0, [r0], -r3, lsl #12
     7d4:	2f11215a 	svccs	0x0011215a
     7d8:	01000402 	tsteq	r0, r2, lsl #8
     7dc:	02050001 	andeq	r0, r5, #1
     7e0:	00000000 	andeq	r0, r0, r0
     7e4:	0103d203 	tsteq	r3, r3, lsl #4
     7e8:	31211f13 			; <UNDEFINED> instruction: 0x31211f13
     7ec:	0200321c 	andeq	r3, r0, #28, 4	; 0xc0000001
     7f0:	3c060104 	stfccs	f0, [r6], {4}
     7f4:	02040200 	andeq	r0, r4, #0, 4
     7f8:	0059063c 	subseq	r0, r9, ip, lsr r6
     7fc:	06030402 	streq	r0, [r3], -r2, lsl #8
     800:	0369062e 	cmneq	r9, #48234496	; 0x2e00000
     804:	6e032012 	mcrvs	0, 0, r2, cr3, cr2, {0}
     808:	22303001 	eorscs	r3, r0, #1
     80c:	02443030 	subeq	r3, r4, #48	; 0x30
     810:	01010005 	tsteq	r1, r5
     814:	00020500 	andeq	r0, r2, r0, lsl #10
     818:	03000000 	movweq	r0, #0
     81c:	19010483 	stmdbne	r1, {r0, r1, r7, sl}
     820:	01000102 	tsteq	r0, r2, lsl #2
     824:	02050001 	andeq	r0, r5, #1
     828:	00000000 	andeq	r0, r0, r0
     82c:	0103f403 	tsteq	r3, r3, lsl #8	; <UNPREDICTABLE>
     830:	30214c22 	eorcc	r4, r1, r2, lsr #24
     834:	01000402 	tsteq	r0, r2, lsl #8
     838:	00056201 	andeq	r6, r5, r1, lsl #4
     83c:	68000200 	stmdavs	r0, {r9}
     840:	02000001 	andeq	r0, r0, #1
     844:	0d0efb01 	vstreq	d15, [lr, #-4]
     848:	01010100 	mrseq	r0, (UNDEF: 17)
     84c:	00000001 	andeq	r0, r0, r1
     850:	01000001 	tsteq	r0, r1
     854:	2f62696c 	svccs	0x0062696c
     858:	2f6c6168 	svccs	0x006c6168
     85c:	00637253 	rsbeq	r7, r3, r3, asr r2
     860:	7273752f 	rsbsvc	r7, r3, #197132288	; 0xbc00000
     864:	636e692f 	cmnvs	lr, #770048	; 0xbc000
     868:	6564756c 	strbvs	r7, [r4, #-1388]!	; 0xfffffa94
     86c:	77656e2f 	strbvc	r6, [r5, -pc, lsr #28]!
     870:	2f62696c 	svccs	0x0062696c
     874:	6863616d 	stmdavs	r3!, {r0, r2, r3, r5, r6, r8, sp, lr}^
     878:	00656e69 	rsbeq	r6, r5, r9, ror #28
     87c:	7273752f 	rsbsvc	r7, r3, #197132288	; 0xbc00000
     880:	636e692f 	cmnvs	lr, #770048	; 0xbc000
     884:	6564756c 	strbvs	r7, [r4, #-1388]!	; 0xfffffa94
     888:	77656e2f 	strbvc	r6, [r5, -pc, lsr #28]!
     88c:	2f62696c 	svccs	0x0062696c
     890:	00737973 	rsbseq	r7, r3, r3, ror r9
     894:	2f62696c 	svccs	0x0062696c
     898:	69736d63 	ldmdbvs	r3!, {r0, r1, r5, r6, r8, sl, fp, sp, lr}^
     89c:	65442f73 	strbvs	r2, [r4, #-3955]	; 0xfffff08d
     8a0:	65636976 	strbvs	r6, [r3, #-2422]!	; 0xfffff68a
     8a4:	2f54532f 	svccs	0x0054532f
     8a8:	334d5453 	movtcc	r5, #54355	; 0xd453
     8ac:	78304632 	ldmdavc	r0!, {r1, r4, r5, r9, sl, lr}
     8b0:	6e492f78 	mcrvs	15, 2, r2, cr9, cr8, {3}
     8b4:	64756c63 	ldrbtvs	r6, [r5], #-3171	; 0xfffff39d
     8b8:	696c0065 	stmdbvs	ip!, {r0, r2, r5, r6}^
     8bc:	61682f62 	cmnvs	r8, r2, ror #30
     8c0:	6e492f6c 	cdpvs	15, 4, cr2, cr9, cr12, {3}
     8c4:	6e690063 	cdpvs	0, 6, cr0, cr9, cr3, {3}
     8c8:	73000063 	movwvc	r0, #99	; 0x63
     8cc:	32336d74 	eorscc	r6, r3, #116, 26	; 0x1d00
     8d0:	78783066 	ldmdavc	r8!, {r1, r2, r5, r6, ip, sp}^
     8d4:	6c61685f 	stclvs	8, cr6, [r1], #-380	; 0xfffffe84
     8d8:	6363725f 	cmnvs	r3, #-268435451	; 0xf0000005
     8dc:	0100632e 	tsteq	r0, lr, lsr #6
     8e0:	645f0000 	ldrbvs	r0, [pc], #-0	; 8e8 <_Min_Stack_Size+0x4e8>
     8e4:	75616665 	strbvc	r6, [r1, #-1637]!	; 0xfffff99b
     8e8:	745f746c 	ldrbvc	r7, [pc], #-1132	; 8f0 <_Min_Stack_Size+0x4f0>
     8ec:	73657079 	cmnvc	r5, #121	; 0x79
     8f0:	0200682e 	andeq	r6, r0, #3014656	; 0x2e0000
     8f4:	735f0000 	cmpvc	pc, #0
     8f8:	6e696474 	mcrvs	4, 3, r6, cr9, cr4, {3}
     8fc:	00682e74 	rsbeq	r2, r8, r4, ror lr
     900:	73000003 	movwvc	r0, #3
     904:	32336d74 	eorscc	r6, r3, #116, 26	; 0x1d00
     908:	32373066 	eorscc	r3, r7, #102	; 0x66
     90c:	682e6278 	stmdavs	lr!, {r3, r4, r5, r6, r9, sp, lr}
     910:	00000400 	andeq	r0, r0, r0, lsl #8
     914:	336d7473 	cmncc	sp, #1929379840	; 0x73000000
     918:	78306632 	ldmdavc	r0!, {r1, r4, r5, r9, sl, sp, lr}
     91c:	00682e78 	rsbeq	r2, r8, r8, ror lr
     920:	73000004 	movwvc	r0, #4
     924:	32336d74 	eorscc	r6, r3, #116, 26	; 0x1d00
     928:	78783066 	ldmdavc	r8!, {r1, r2, r5, r6, ip, sp}^
     92c:	6c61685f 	stclvs	8, cr6, [r1], #-380	; 0xfffffe84
     930:	6665645f 			; <UNDEFINED> instruction: 0x6665645f
     934:	0500682e 	streq	r6, [r0, #-2094]	; 0xfffff7d2
     938:	74730000 	ldrbtvc	r0, [r3], #-0
     93c:	6632336d 	ldrtvs	r3, [r2], -sp, ror #6
     940:	5f787830 	svcpl	0x00787830
     944:	5f6c6168 	svcpl	0x006c6168
     948:	2e636372 	mcrcs	3, 3, r6, cr3, cr2, {3}
     94c:	00050068 	andeq	r0, r5, r8, rrx
     950:	6d747300 	ldclvs	3, cr7, [r4, #-0]
     954:	30663233 	rsbcc	r3, r6, r3, lsr r2
     958:	685f7878 	ldmdavs	pc, {r3, r4, r5, r6, fp, ip, sp, lr}^	; <UNPREDICTABLE>
     95c:	675f6c61 	ldrbvs	r6, [pc, -r1, ror #24]
     960:	2e6f6970 	mcrcs	9, 3, r6, cr15, cr0, {3}
     964:	00050068 	andeq	r0, r5, r8, rrx
     968:	73797300 	cmnvc	r9, #0, 6
     96c:	5f6d6574 	svcpl	0x006d6574
     970:	336d7473 	cmncc	sp, #1929379840	; 0x73000000
     974:	78306632 	ldmdavc	r0!, {r1, r4, r5, r9, sl, sp, lr}
     978:	00682e78 	rsbeq	r2, r8, r8, ror lr
     97c:	73000004 	movwvc	r0, #4
     980:	32336d74 	eorscc	r6, r3, #116, 26	; 0x1d00
     984:	78783066 	ldmdavc	r8!, {r1, r2, r5, r6, ip, sp}^
     988:	6c61685f 	stclvs	8, cr6, [r1], #-380	; 0xfffffe84
     98c:	0500682e 	streq	r6, [r0, #-2094]	; 0xfffff7d2
     990:	74730000 	ldrbtvc	r0, [r3], #-0
     994:	6632336d 	ldrtvs	r3, [r2], -sp, ror #6
     998:	5f787830 	svcpl	0x00787830
     99c:	5f6c6168 	svcpl	0x006c6168
     9a0:	666e6f63 	strbtvs	r6, [lr], -r3, ror #30
     9a4:	0600682e 	streq	r6, [r0], -lr, lsr #16
     9a8:	00000000 	andeq	r0, r0, r0
     9ac:	00000205 	andeq	r0, r0, r5, lsl #4
     9b0:	e1030000 	mrs	r0, (UNDEF: 3)
     9b4:	03140101 	tsteq	r4, #1073741824	; 0x40000000
     9b8:	67032e19 	smladvs	r3, r9, lr, r2
     9bc:	4d4d3f01 	stclmi	15, cr3, [sp, #-4]
     9c0:	2323314d 			; <UNDEFINED> instruction: 0x2323314d
     9c4:	0d023d23 	stceq	13, cr3, [r2, #-140]	; 0xffffff74
     9c8:	00010100 	andeq	r0, r1, r0, lsl #2
     9cc:	06400205 	strbeq	r0, [r0], -r5, lsl #4
     9d0:	8d030800 	stchi	8, cr0, [r3, #-0]
     9d4:	00400102 	subeq	r0, r0, r2, lsl #2
     9d8:	06010402 	streq	r0, [r1], -r2, lsl #8
     9dc:	0059062e 	subseq	r0, r9, lr, lsr #12
     9e0:	06010402 	streq	r0, [r1], -r2, lsl #8
     9e4:	0402003c 	streq	r0, [r2], #-60	; 0xffffffc4
     9e8:	5b062e02 	blpl	18c1f8 <_Min_Stack_Size+0x18bdf8>
     9ec:	033c3403 	teqeq	ip, #50331648	; 0x3000000
     9f0:	02004a4f 	andeq	r4, r0, #323584	; 0x4f000
     9f4:	3c060104 	stfccs	f0, [r6], {4}
     9f8:	02040200 	andeq	r0, r4, #0, 4
     9fc:	675b062e 	ldrbvs	r0, [fp, -lr, lsr #12]
     a00:	01040200 	mrseq	r0, R12_usr
     a04:	84064a06 	strhi	r4, [r6], #-2566	; 0xfffff5fa
     a08:	01040200 	mrseq	r0, R12_usr
     a0c:	3e063c06 	cdpcc	12, 0, cr3, cr6, cr6, {0}
     a10:	04020034 	streq	r0, [r2], #-52	; 0xffffffcc
     a14:	003c0602 	eorseq	r0, ip, r2, lsl #12
     a18:	2e030402 	cdpcs	4, 0, cr0, cr3, cr2, {0}
     a1c:	03040200 	movweq	r0, #16896	; 0x4200
     a20:	82150306 	andshi	r0, r5, #402653184	; 0x18000000
     a24:	03040200 	movweq	r0, #16896	; 0x4200
     a28:	0402003f 	streq	r0, [r2], #-63	; 0xffffffc1
     a2c:	20680304 	rsbcs	r0, r8, r4, lsl #6
     a30:	05040200 	streq	r0, [r4, #-512]	; 0xfffffe00
     a34:	02002e06 	andeq	r2, r0, #6, 28	; 0x60
     a38:	009e0604 	addseq	r0, lr, r4, lsl #12
     a3c:	06060402 	streq	r0, [r6], -r2, lsl #8
     a40:	5a3e3f89 	bpl	f9086c <_Min_Stack_Size+0xf9046c>
     a44:	562e0c03 	strtpl	r0, [lr], -r3, lsl #24
     a48:	004a0e03 	subeq	r0, sl, r3, lsl #28
     a4c:	06010402 	streq	r0, [r1], -r2, lsl #8
     a50:	0059063c 	subseq	r0, r9, ip, lsr r6
     a54:	06010402 	streq	r0, [r1], -r2, lsl #8
     a58:	595b063c 	ldmdbpl	fp, {r2, r3, r4, r5, r9, sl}^
     a5c:	01040200 	mrseq	r0, R12_usr
     a60:	85064a06 	strhi	r4, [r6, #-2566]	; 0xfffff5fa
     a64:	01040200 	mrseq	r0, R12_usr
     a68:	44063c06 	strmi	r3, [r6], #-3078	; 0xfffff3fa
     a6c:	03747803 	cmneq	r4, #196608	; 0x30000
     a70:	3f4d200e 	svccc	0x004d200e
     a74:	876d4c3f 			; <UNDEFINED> instruction: 0x876d4c3f
     a78:	033e3f3f 	teqeq	lr, #63, 30	; 0xfc
     a7c:	2a036609 	bcs	da2a8 <_Min_Stack_Size+0xd9ea8>
     a80:	4a59033c 	bmi	1641778 <_Min_Stack_Size+0x1641378>
     a84:	01040200 	mrseq	r0, R12_usr
     a88:	5b063c06 	blpl	18faa8 <_Min_Stack_Size+0x18f6a8>
     a8c:	3e3f3f5b 	mrccc	15, 1, r3, cr15, cr11, {2}
     a90:	3f660903 	svccc	0x00660903
     a94:	0d033e3f 	stceq	14, cr3, [r3, #-252]	; 0xffffff04
     a98:	04020066 	streq	r0, [r2], #-102	; 0xffffff9a
     a9c:	003c0601 	eorseq	r0, ip, r1, lsl #12
     aa0:	2e020402 	cdpcs	4, 0, cr0, cr2, cr2, {0}
     aa4:	79035c06 	stmdbvc	r3, {r1, r2, sl, fp, ip, lr}
     aa8:	2130274a 	teqcs	r0, sl, asr #14
     aac:	12036a1f 	andne	r6, r3, #126976	; 0x1f000
     ab0:	04020066 	streq	r0, [r2], #-102	; 0xffffff9a
     ab4:	063c0601 	ldrteq	r0, [ip], -r1, lsl #12
     ab8:	3f3c7103 	svccc	0x003c7103
     abc:	02003e3e 	andeq	r3, r0, #992	; 0x3e0
     ac0:	008a0204 	addeq	r0, sl, r4, lsl #4
     ac4:	06030402 	streq	r0, [r3], -r2, lsl #8
     ac8:	0402002e 	streq	r0, [r2], #-46	; 0xffffffd2
     acc:	13030603 	movwne	r0, #13827	; 0x3603
     ad0:	04020074 	streq	r0, [r2], #-116	; 0xffffff8c
     ad4:	02003f03 	andeq	r3, r0, #3, 30
     ad8:	6a030404 	bvs	c1af0 <_Min_Stack_Size+0xc16f0>
     adc:	04020020 	streq	r0, [r2], #-32	; 0xffffffe0
     ae0:	002e0605 	eoreq	r0, lr, r5, lsl #12
     ae4:	82060402 	andhi	r0, r6, #33554432	; 0x2000000
     ae8:	08180306 	ldmdaeq	r8, {r1, r2, r8, r9}
     aec:	0a03722e 	beq	dd3ac <_Min_Stack_Size+0xdcfac>
     af0:	3f4f303c 	svccc	0x004f303c
     af4:	01040200 	mrseq	r0, R12_usr
     af8:	02003c06 	andeq	r3, r0, #1536	; 0x600
     afc:	062e0204 	strteq	r0, [lr], -r4, lsl #4
     b00:	04020059 	streq	r0, [r2], #-89	; 0xffffffa7
     b04:	063c0601 	ldrteq	r0, [ip], -r1, lsl #12
     b08:	3f3f5b4d 	svccc	0x003f5b4d
     b0c:	846d4c3f 	strbthi	r4, [sp], #-3135	; 0xfffff3c1
     b10:	793f1d34 	ldmdbvc	pc!, {r2, r4, r5, r8, sl, fp, ip}	; <UNPREDICTABLE>
     b14:	3f231d31 	svccc	0x00231d31
     b18:	0a033e3f 	beq	d041c <_Min_Stack_Size+0xd001c>
     b1c:	3c390366 	ldccc	3, cr0, [r9], #-408	; 0xfffffe68
     b20:	01040200 	mrseq	r0, R12_usr
     b24:	03063c06 	movweq	r3, #27654	; 0x6c06
     b28:	0200664a 	andeq	r6, r0, #77594624	; 0x4a00000
     b2c:	3c060104 	stfccs	f0, [r6], {4}
     b30:	02004d06 	andeq	r4, r0, #384	; 0x180
     b34:	00670104 	rsbeq	r0, r7, r4, lsl #2
     b38:	2d010402 	cfstrscs	mvf0, [r1, #-8]
     b3c:	0200682f 	andeq	r6, r0, #3080192	; 0x2f0000
     b40:	3c060104 	stfccs	f0, [r6], {4}
     b44:	5b3f6006 	blpl	fd8b64 <_Min_Stack_Size+0xfd8764>
     b48:	09033e3f 	stmdbeq	r3, {r0, r1, r2, r3, r4, r5, r9, sl, fp, ip, sp}
     b4c:	3e3f4d66 	cdpcc	13, 3, cr4, cr15, cr6, {3}
     b50:	03660d03 	cmneq	r6, #3, 26	; 0xc0
     b54:	033c00c6 	teqeq	ip, #198	; 0xc6
     b58:	842e7fbd 	strthi	r7, [lr], #-4029	; 0xfffff043
     b5c:	04020031 	streq	r0, [r2], #-49	; 0xffffffcf
     b60:	00740602 	rsbseq	r0, r4, r2, lsl #12
     b64:	4a030402 	bmi	c1b74 <_Min_Stack_Size+0xc1774>
     b68:	02004b06 	andeq	r4, r0, #6144	; 0x1800
     b6c:	66060404 	strvs	r0, [r6], -r4, lsl #8
     b70:	08040200 	stmdaeq	r4, {r9}
     b74:	0402004a 	streq	r0, [r2], #-74	; 0xffffffb6
     b78:	02004a0c 	andeq	r4, r0, #12, 20	; 0xc000
     b7c:	004a0e04 	subeq	r0, sl, r4, lsl #28
     b80:	4a0f0402 	bmi	3c1b90 <_Min_Stack_Size+0x3c1790>
     b84:	02004b06 	andeq	r4, r0, #6144	; 0x1800
     b88:	3c060104 	stfccs	f0, [r6], {4}
     b8c:	3f3f4d06 	svccc	0x003f4d06
     b90:	1cbe6d4c 	ldcne	13, cr6, [lr], #304	; 0x130
     b94:	3e3f4d32 	mrccc	13, 1, r4, cr15, cr2, {1}
     b98:	3f660903 	svccc	0x00660903
     b9c:	ad033e3f 	stcge	14, cr3, [r3, #-252]	; 0xffffff04
     ba0:	4c3f667e 	ldcmi	6, cr6, [pc], #-504	; 9b0 <_Min_Stack_Size+0x5b0>
     ba4:	7401dc03 	strvc	sp, [r1], #-3075	; 0xfffff3fd
     ba8:	01001e02 	tsteq	r0, r2, lsl #28
     bac:	02050001 	andeq	r0, r5, #1
     bb0:	00000000 	andeq	r0, r0, r0
     bb4:	0107d903 	tsteq	r7, r3, lsl #18
     bb8:	0200243c 	andeq	r2, r0, #60, 8	; 0x3c000000
     bbc:	2e060104 	adfcss	f0, f6, f4
     bc0:	02004b06 	andeq	r4, r0, #6144	; 0x1800
     bc4:	3c060404 	cfstrscc	mvf0, [r6], {4}
     bc8:	08040200 	stmdaeq	r4, {r9}
     bcc:	004b064a 	subeq	r0, fp, sl, asr #12
     bd0:	06030402 	streq	r0, [r3], -r2, lsl #8
     bd4:	0402003c 	streq	r0, [r2], #-60	; 0xffffffc4
     bd8:	02004a06 	andeq	r4, r0, #24576	; 0x6000
     bdc:	004a0904 	subeq	r0, sl, r4, lsl #18
     be0:	4a0a0402 	bmi	281bf0 <_Min_Stack_Size+0x2817f0>
     be4:	2f2f5b06 	svccs	0x002f5b06
     be8:	23221f21 			; <UNDEFINED> instruction: 0x23221f21
     bec:	321c1e22 	andscc	r1, ip, #544	; 0x220
     bf0:	1e301e5a 	mrcne	14, 1, r1, cr0, cr10, {2}
     bf4:	02673122 	rsbeq	r3, r7, #-2147483640	; 0x80000008
     bf8:	01010010 	tsteq	r1, r0, lsl r0
     bfc:	00020500 	andeq	r0, r2, r0, lsl #10
     c00:	03000000 	movweq	r0, #0
     c04:	130107fb 	movwne	r0, #6139	; 0x17fb
     c08:	022f114b 	eoreq	r1, pc, #-1073741806	; 0xc0000012
     c0c:	01010004 	tsteq	r1, r4
     c10:	00020500 	andeq	r0, r2, r0, lsl #10
     c14:	03000000 	movweq	r0, #0
     c18:	13010884 	movwne	r0, #6276	; 0x1884
     c1c:	022f113d 	eoreq	r1, pc, #1073741839	; 0x4000000f
     c20:	01010005 	tsteq	r1, r5
     c24:	c4020500 	strgt	r0, [r2], #-1280	; 0xfffffb00
     c28:	0308000b 	movweq	r0, #32779	; 0x800b
     c2c:	210108a8 	smlatbcs	r1, r8, r8, r0
     c30:	035a211f 	cmpeq	sl, #-1073741817	; 0xc0000007
     c34:	311d7409 	tstcc	sp, r9, lsl #8
     c38:	03582703 	cmpeq	r8, #786432	; 0xc0000
     c3c:	2f4b2e62 	svccs	0x004b2e62
     c40:	316c2f1f 	cmncc	ip, pc, lsl pc
     c44:	2e69035f 	mcrcs	3, 3, r0, cr9, cr15, {2}
     c48:	02202f03 	eoreq	r2, r0, #3, 30
     c4c:	0101000a 	tsteq	r1, sl
     c50:	3c020500 	cfstr32cc	mvfx0, [r2], {-0}
     c54:	0308000c 	movweq	r0, #32780	; 0x800c
     c58:	200105d5 	ldrdcs	r0, [r1], -r5
     c5c:	04020032 	streq	r0, [r2], #-50	; 0xffffffce
     c60:	062e0601 	strteq	r0, [lr], -r1, lsl #12
     c64:	0402004b 	streq	r0, [r2], #-75	; 0xffffffb5
     c68:	063c0601 	ldrteq	r0, [ip], -r1, lsl #12
     c6c:	0402004b 	streq	r0, [r2], #-75	; 0xffffffb5
     c70:	062e0601 	strteq	r0, [lr], -r1, lsl #12
     c74:	660e035f 			; <UNDEFINED> instruction: 0x660e035f
     c78:	4e4a7503 	cdpmi	5, 4, cr7, cr10, cr3, {0}
     c7c:	0200354c 	andeq	r3, r0, #76, 10	; 0x13000000
     c80:	58060204 	stmdapl	r6, {r2, r9}
     c84:	03040200 	movweq	r0, #16896	; 0x4200
     c88:	04020058 	streq	r0, [r2], #-88	; 0xffffffa8
     c8c:	02005805 	andeq	r5, r0, #327680	; 0x50000
     c90:	00580804 	subseq	r0, r8, r4, lsl #16
     c94:	2e090402 	cdpcs	4, 0, cr0, cr9, cr2, {0}
     c98:	03784b06 	cmneq	r8, #6144	; 0x1800
     c9c:	033c00db 	teqeq	ip, #219	; 0xdb
     ca0:	00747fa7 	rsbseq	r7, r4, r7, lsr #31
     ca4:	06010402 	streq	r0, [r1], -r2, lsl #8
     ca8:	4d4d063c 	stclmi	6, cr0, [sp, #-240]	; 0xffffff10
     cac:	31513150 	cmpcc	r1, r0, asr r1
     cb0:	414a0a03 	cmpmi	sl, r3, lsl #20
     cb4:	221e305b 	andscs	r3, lr, #91	; 0x5b
     cb8:	32765a30 	rsbscc	r5, r6, #48, 20	; 0x30000
     cbc:	30895a30 	addcc	r5, r9, r0, lsr sl
     cc0:	820b035a 	andhi	r0, fp, #1744830465	; 0x68000001
     cc4:	580d0372 	stmdapl	sp, {r1, r4, r5, r6, r8, r9}
     cc8:	004c5140 	subeq	r5, ip, r0, asr #2
     ccc:	06020402 	streq	r0, [r2], -r2, lsl #8
     cd0:	0402004a 	streq	r0, [r2], #-74	; 0xffffffb6
     cd4:	02006603 	andeq	r6, r0, #3145728	; 0x300000
     cd8:	064a0504 	strbeq	r0, [sl], -r4, lsl #10
     cdc:	3ea16a4b 	vfmscc.f32	s12, s2, s22
     ce0:	001e0221 	andseq	r0, lr, r1, lsr #4
     ce4:	05000101 	streq	r0, [r0, #-257]	; 0xfffffeff
     ce8:	000e4802 	andeq	r4, lr, r2, lsl #16
     cec:	08f30308 	ldmeq	r3!, {r3, r8, r9}^
     cf0:	11211301 			; <UNDEFINED> instruction: 0x11211301
     cf4:	00040221 	andeq	r0, r4, r1, lsr #4
     cf8:	05000101 	streq	r0, [r0, #-257]	; 0xfffffeff
     cfc:	00000002 	andeq	r0, r0, r2
     d00:	08fe0300 	ldmeq	lr!, {r8, r9}^
     d04:	113d1401 	teqne	sp, r1, lsl #8
     d08:	00080275 	andeq	r0, r8, r5, ror r2
     d0c:	05000101 	streq	r0, [r0, #-257]	; 0xfffffeff
     d10:	00000002 	andeq	r0, r0, r2
     d14:	098b0300 	stmibeq	fp, {r8, r9}
     d18:	00222001 	eoreq	r2, r2, r1
     d1c:	06010402 	streq	r0, [r1], -r2, lsl #8
     d20:	33500620 	cmpcc	r0, #32, 12	; 0x2000000
     d24:	285a304c 	ldmdacs	sl, {r2, r3, r6, ip, sp}^
     d28:	323e241c 	eorscc	r2, lr, #28, 8	; 0x1c000000
     d2c:	303e4d23 	eorscc	r4, lr, r3, lsr #26
     d30:	4c24325a 	sfmmi	f3, 4, [r4], #-360	; 0xfffffe98
     d34:	033e2432 	teqeq	lr, #838860800	; 0x32000000
     d38:	7903200b 	stmdbvc	r3, {r0, r1, r3, sp}
     d3c:	4e4e2320 	cdpmi	3, 4, cr2, cr14, cr0, {1}
     d40:	5922403e 	stmdbpl	r2!, {r1, r2, r3, r4, r5, lr}
     d44:	08024b59 	stmdaeq	r2, {r0, r3, r4, r6, r8, r9, fp, lr}
     d48:	00010100 	andeq	r0, r1, r0, lsl #2
     d4c:	00000205 	andeq	r0, r0, r5, lsl #4
     d50:	f1030000 			; <UNDEFINED> instruction: 0xf1030000
     d54:	30200109 	eorcc	r0, r0, r9, lsl #2
     d58:	01040200 	mrseq	r0, R12_usr
     d5c:	4b062e06 	blmi	18c57c <_Min_Stack_Size+0x18c17c>
     d60:	01040200 	mrseq	r0, R12_usr
     d64:	4d062e06 	stcmi	14, cr2, [r6, #-24]	; 0xffffffe8
     d68:	03231d23 			; <UNDEFINED> instruction: 0x03231d23
     d6c:	77032009 	strvc	r2, [r3, -r9]
     d70:	5a4d3f01 	bpl	135097c <_Min_Stack_Size+0x135057c>
     d74:	000c0259 	andeq	r0, ip, r9, asr r2
     d78:	05000101 	streq	r0, [r0, #-257]	; 0xfffffeff
     d7c:	00000002 	andeq	r0, r0, r2
     d80:	0a9c0300 	beq	fe701988 <_estack+0xde6fd988>
     d84:	01021601 	tsteq	r2, r1, lsl #12
     d88:	00010100 	andeq	r0, r1, r0, lsl #2
     d8c:	00000205 	andeq	r0, r0, r5, lsl #4
     d90:	8b030000 	blhi	c0d98 <_Min_Stack_Size+0xc0998>
     d94:	5b22010a 	blpl	8811c4 <_Min_Stack_Size+0x880dc4>
     d98:	06023031 			; <UNDEFINED> instruction: 0x06023031
     d9c:	ed010100 	stfs	f0, [r1, #-0]
     da0:	02000002 	andeq	r0, r0, #2
     da4:	00011000 	andeq	r1, r1, r0
     da8:	fb010200 	blx	415b2 <_Min_Stack_Size+0x411b2>
     dac:	01000d0e 	tsteq	r0, lr, lsl #26
     db0:	00010101 	andeq	r0, r1, r1, lsl #2
     db4:	00010000 	andeq	r0, r1, r0
     db8:	696c0100 	stmdbvs	ip!, {r8}^
     dbc:	61682f62 	cmnvs	r8, r2, ror #30
     dc0:	72532f6c 	subsvc	r2, r3, #108, 30	; 0x1b0
     dc4:	696c0063 	stmdbvs	ip!, {r0, r1, r5, r6}^
     dc8:	6d632f62 	stclvs	15, cr2, [r3, #-392]!	; 0xfffffe78
     dcc:	2f736973 	svccs	0x00736973
     dd0:	6c636e49 	stclvs	14, cr6, [r3], #-292	; 0xfffffedc
     dd4:	00656475 	rsbeq	r6, r5, r5, ror r4
     dd8:	2f62696c 	svccs	0x0062696c
     ddc:	69736d63 	ldmdbvs	r3!, {r0, r1, r5, r6, r8, sl, fp, sp, lr}^
     de0:	65442f73 	strbvs	r2, [r4, #-3955]	; 0xfffff08d
     de4:	65636976 	strbvs	r6, [r3, #-2422]!	; 0xfffff68a
     de8:	2f54532f 	svccs	0x0054532f
     dec:	334d5453 	movtcc	r5, #54355	; 0xd453
     df0:	78304632 	ldmdavc	r0!, {r1, r4, r5, r9, sl, lr}
     df4:	6e492f78 	mcrvs	15, 2, r2, cr9, cr8, {3}
     df8:	64756c63 	ldrbtvs	r6, [r5], #-3171	; 0xfffff39d
     dfc:	752f0065 	strvc	r0, [pc, #-101]!	; d9f <_Min_Stack_Size+0x99f>
     e00:	692f7273 	stmdbvs	pc!, {r0, r1, r4, r5, r6, r9, ip, sp, lr}	; <UNPREDICTABLE>
     e04:	756c636e 	strbvc	r6, [ip, #-878]!	; 0xfffffc92
     e08:	6e2f6564 	cfsh64vs	mvdx6, mvdx15, #52
     e0c:	696c7765 	stmdbvs	ip!, {r0, r2, r5, r6, r8, r9, sl, ip, sp, lr}^
     e10:	616d2f62 	cmnvs	sp, r2, ror #30
     e14:	6e696863 	cdpvs	8, 6, cr6, cr9, cr3, {3}
     e18:	752f0065 	strvc	r0, [pc, #-101]!	; dbb <_Min_Stack_Size+0x9bb>
     e1c:	692f7273 	stmdbvs	pc!, {r0, r1, r4, r5, r6, r9, ip, sp, lr}	; <UNPREDICTABLE>
     e20:	756c636e 	strbvc	r6, [ip, #-878]!	; 0xfffffc92
     e24:	6e2f6564 	cfsh64vs	mvdx6, mvdx15, #52
     e28:	696c7765 	stmdbvs	ip!, {r0, r2, r5, r6, r8, r9, sl, ip, sp, lr}^
     e2c:	79732f62 	ldmdbvc	r3!, {r1, r5, r6, r8, r9, sl, fp, sp}^
     e30:	6e690073 	mcrvs	0, 3, r0, cr9, cr3, {3}
     e34:	73000063 	movwvc	r0, #99	; 0x63
     e38:	32336d74 	eorscc	r6, r3, #116, 26	; 0x1d00
     e3c:	78783066 	ldmdavc	r8!, {r1, r2, r5, r6, ip, sp}^
     e40:	6c61685f 	stclvs	8, cr6, [r1], #-380	; 0xfffffe84
     e44:	726f635f 	rsbvc	r6, pc, #2080374785	; 0x7c000001
     e48:	2e786574 	mrccs	5, 3, r6, cr8, cr4, {3}
     e4c:	00010063 	andeq	r0, r1, r3, rrx
     e50:	726f6300 	rsbvc	r6, pc, #0, 6
     e54:	6d635f65 	stclvs	15, cr5, [r3, #-404]!	; 0xfffffe6c
     e58:	00682e30 	rsbeq	r2, r8, r0, lsr lr
     e5c:	63000002 	movwvs	r0, #2
     e60:	7369736d 	cmnvc	r9, #-1275068415	; 0xb4000001
     e64:	6363675f 	cmnvs	r3, #24903680	; 0x17c0000
     e68:	0200682e 	andeq	r6, r0, #3014656	; 0x2e0000
     e6c:	74730000 	ldrbtvc	r0, [r3], #-0
     e70:	6632336d 	ldrtvs	r3, [r2], -sp, ror #6
     e74:	78323730 	ldmdavc	r2!, {r4, r5, r8, r9, sl, ip, sp}
     e78:	00682e62 	rsbeq	r2, r8, r2, ror #28
     e7c:	5f000003 	svcpl	0x00000003
     e80:	61666564 	cmnvs	r6, r4, ror #10
     e84:	5f746c75 	svcpl	0x00746c75
     e88:	65707974 	ldrbvs	r7, [r0, #-2420]!	; 0xfffff68c
     e8c:	00682e73 	rsbeq	r2, r8, r3, ror lr
     e90:	5f000004 	svcpl	0x00000004
     e94:	69647473 	stmdbvs	r4!, {r0, r1, r4, r5, r6, sl, ip, sp, lr}^
     e98:	682e746e 	stmdavs	lr!, {r1, r2, r3, r5, r6, sl, ip, sp, lr}
     e9c:	00000500 	andeq	r0, r0, r0, lsl #10
     ea0:	336d7473 	cmncc	sp, #1929379840	; 0x73000000
     ea4:	78306632 	ldmdavc	r0!, {r1, r4, r5, r9, sl, sp, lr}
     ea8:	61685f78 	smcvs	34296	; 0x85f8
     eac:	6f635f6c 	svcvs	0x00635f6c
     eb0:	682e666e 	stmdavs	lr!, {r1, r2, r3, r5, r6, r9, sl, sp, lr}
     eb4:	00000600 	andeq	r0, r0, r0, lsl #12
     eb8:	02050000 	andeq	r0, r5, #0
     ebc:	08000e54 	stmdaeq	r0, {r2, r4, r6, r9, sl, fp}
     ec0:	01019803 	tsteq	r1, r3, lsl #16
     ec4:	02003020 	andeq	r3, r0, #32
     ec8:	2e060104 	adfcss	f0, f6, f4
     ecc:	03060204 	movweq	r0, #25092	; 0x6204
     ed0:	30580497 			; <UNDEFINED> instruction: 0x30580497
     ed4:	1f211fe5 	svcne	0x00211fe5
     ed8:	211fc94f 	tstcs	pc, pc, asr #18
     edc:	0301041f 	movweq	r0, #5151	; 0x141f
     ee0:	023c7be4 	eorseq	r7, ip, #228, 22	; 0x39000
     ee4:	01010007 	tsteq	r1, r7
     ee8:	cc020500 	cfstr32gt	mvfx0, [r2], {-0}
     eec:	0308000e 	movweq	r0, #32782	; 0x800e
     ef0:	200101a8 	andcs	r0, r1, r8, lsr #3
     ef4:	04020022 	streq	r0, [r2], #-34	; 0xffffffde
     ef8:	04200601 	strteq	r0, [r0], #-1537	; 0xfffff9ff
     efc:	cc030602 	stcgt	6, cr0, [r3], {2}
     f00:	01044a03 	tsteq	r4, r3, lsl #20
     f04:	667cb803 	ldrbtvs	fp, [ip], -r3, lsl #16
     f08:	c8030204 	stmdagt	r3, {r2, r9}
     f0c:	01040103 	tsteq	r4, r3, lsl #2
     f10:	207cb803 	rsbscs	fp, ip, r3, lsl #16
     f14:	01000602 	tsteq	r0, r2, lsl #12
     f18:	02050001 	andeq	r0, r5, #1
     f1c:	00000000 	andeq	r0, r0, r0
     f20:	0101b803 	tsteq	r1, r3, lsl #16
     f24:	02002220 	andeq	r2, r0, #32, 4
     f28:	20060104 	andcs	r0, r6, r4, lsl #2
     f2c:	03060204 	movweq	r0, #25092	; 0x6204
     f30:	044a03c7 	strbeq	r0, [sl], #-967	; 0xfffffc39
     f34:	7cbd0301 	ldcvc	3, cr0, [sp], #4
     f38:	03020466 	movweq	r0, #9318	; 0x2466
     f3c:	040103c3 	streq	r0, [r1], #-963	; 0xfffffc3d
     f40:	7cbd0301 	ldcvc	3, cr0, [sp], #4
     f44:	00060220 	andeq	r0, r6, r0, lsr #4
     f48:	05000101 	streq	r0, [r0, #-257]	; 0xfffffeff
     f4c:	00000002 	andeq	r0, r0, r2
     f50:	01c50300 	biceq	r0, r5, r0, lsl #6
     f54:	03030401 	movweq	r0, #13313	; 0x3401
     f58:	040101e7 	streq	r0, [r1], #-487	; 0xfffffe19
     f5c:	02b10302 	adcseq	r0, r1, #134217728	; 0x8000000
     f60:	0303042e 	movweq	r0, #13358	; 0x342e
     f64:	033c7dcf 	teqeq	ip, #13248	; 0x33c0
     f68:	07022e4a 	streq	r2, [r2, -sl, asr #28]
     f6c:	00010100 	andeq	r0, r1, r0, lsl #2
     f70:	0ef40205 	cdpeq	2, 15, cr0, cr4, cr5, {0}
     f74:	d2030800 	andle	r0, r3, #0, 16
     f78:	02040101 	andeq	r0, r4, #1073741824	; 0x40000000
     f7c:	0104b003 	tsteq	r4, r3
     f80:	b1031e30 	tstlt	r3, r0, lsr lr
     f84:	d4032e7f 	strle	r2, [r3], #-3711	; 0xfffff181
     f88:	ac032000 	stcge	0, cr2, [r3], {-0}
     f8c:	d403207f 	strle	r2, [r3], #-127	; 0xffffff81
     f90:	ac032000 	stcge	0, cr2, [r3], {-0}
     f94:	d603207f 			; <UNDEFINED> instruction: 0xd603207f
     f98:	1f216600 	svcne	0x00216600
     f9c:	03010421 	movweq	r0, #5153	; 0x1421
     fa0:	02207bca 	eoreq	r7, r0, #206848	; 0x32800
     fa4:	01010007 	tsteq	r1, r7
     fa8:	00020500 	andeq	r0, r2, r0, lsl #10
     fac:	03000000 	movweq	r0, #0
     fb0:	040101f2 	streq	r0, [r1], #-498	; 0xfffffe0e
     fb4:	03d80302 	bicseq	r0, r8, #134217728	; 0x8000000
     fb8:	04a23001 	strteq	r3, [r2], #1
     fbc:	7ca50301 	stcvc	3, cr0, [r5], #4
     fc0:	000502ac 	andeq	r0, r5, ip, lsr #5
     fc4:	05000101 	streq	r0, [r0, #-257]	; 0xfffffeff
     fc8:	00000002 	andeq	r0, r0, r2
     fcc:	01ff0300 	mvnseq	r0, r0, lsl #6
     fd0:	00222001 	eoreq	r2, r2, r1
     fd4:	06010402 	streq	r0, [r1], -r2, lsl #8
     fd8:	06020420 	streq	r0, [r2], -r0, lsr #8
     fdc:	58039803 	stmdapl	r3, {r0, r1, fp, ip, pc}
     fe0:	ec030104 	stfs	f0, [r3], {4}
     fe4:	0204667c 	andeq	r6, r4, #124, 12	; 0x7c00000
     fe8:	01039403 	tsteq	r3, r3, lsl #8
     fec:	ec030104 	stfs	f0, [r3], {4}
     ff0:	0502207c 	streq	r2, [r2, #-124]	; 0xffffff84
     ff4:	00010100 	andeq	r0, r1, r0, lsl #2
     ff8:	00000205 	andeq	r0, r0, r5, lsl #4
     ffc:	91030000 	mrsls	r0, (UNDEF: 3)
    1000:	22200102 	eorcs	r0, r0, #-2147483648	; 0x80000000
    1004:	01040200 	mrseq	r0, R12_usr
    1008:	02042006 	andeq	r2, r4, #6
    100c:	02fb0306 	rscseq	r0, fp, #402653184	; 0x18000000
    1010:	03010458 	movweq	r0, #5208	; 0x1458
    1014:	044a7d89 	strbeq	r7, [sl], #-3465	; 0xfffff277
    1018:	02f70302 	rscseq	r0, r7, #134217728	; 0x8000000
    101c:	03010401 	movweq	r0, #5121	; 0x1401
    1020:	024a7d89 	subeq	r7, sl, #8768	; 0x2240
    1024:	01010006 	tsteq	r1, r6
    1028:	00020500 	andeq	r0, r2, r0, lsl #10
    102c:	03000000 	movweq	r0, #0
    1030:	200102a1 	andcs	r0, r1, r1, lsr #5
    1034:	04020022 	streq	r0, [r2], #-34	; 0xffffffde
    1038:	04200601 	strteq	r0, [r0], #-1537	; 0xfffff9ff
    103c:	81030602 	tsthi	r3, r2, lsl #12
    1040:	01045803 	tsteq	r4, r3, lsl #16
    1044:	907d8303 	rsbsls	r8, sp, r3, lsl #6
    1048:	01000502 	tsteq	r0, r2, lsl #10
    104c:	02050001 	andeq	r0, r5, #1
    1050:	00000000 	andeq	r0, r0, r0
    1054:	0102b203 	tsteq	r2, r3, lsl #4
    1058:	04020030 	streq	r0, [r2], #-48	; 0xffffffd0
    105c:	002e0601 	eoreq	r0, lr, r1, lsl #12
    1060:	2e020402 	cdpcs	4, 0, cr0, cr2, cr2, {0}
    1064:	42545f06 	subsmi	r5, r4, #6, 30
    1068:	01000502 	tsteq	r0, r2, lsl #10
    106c:	02050001 	andeq	r0, r5, #1
    1070:	00000000 	andeq	r0, r0, r0
    1074:	0102cd03 	tsteq	r2, r3, lsl #26
    1078:	00010216 	andeq	r0, r1, r6, lsl r2
    107c:	05000101 	streq	r0, [r0, #-257]	; 0xfffffeff
    1080:	00000002 	andeq	r0, r0, r2
    1084:	02c40300 	sbceq	r0, r4, #0, 6
    1088:	022f2101 	eoreq	r2, pc, #1073741824	; 0x40000000
    108c:	01010001 	tsteq	r1, r1
    1090:	000001f1 	strdeq	r0, [r0], -r1
    1094:	01190002 	tsteq	r9, r2
    1098:	01020000 	mrseq	r0, (UNDEF: 2)
    109c:	000d0efb 	strdeq	r0, [sp], -fp
    10a0:	01010101 	tsteq	r1, r1, lsl #2
    10a4:	01000000 	mrseq	r0, (UNDEF: 0)
    10a8:	6c010000 	stcvs	0, cr0, [r1], {-0}
    10ac:	622f6269 	eorvs	r6, pc, #-1879048186	; 0x90000006
    10b0:	6c007073 	stcvs	0, cr7, [r0], {115}	; 0x73
    10b4:	632f6269 			; <UNDEFINED> instruction: 0x632f6269
    10b8:	7369736d 	cmnvc	r9, #-1275068415	; 0xb4000001
    10bc:	7665442f 	strbtvc	r4, [r5], -pc, lsr #8
    10c0:	2f656369 	svccs	0x00656369
    10c4:	532f5453 			; <UNDEFINED> instruction: 0x532f5453
    10c8:	32334d54 	eorscc	r4, r3, #84, 26	; 0x1500
    10cc:	78783046 	ldmdavc	r8!, {r1, r2, r6, ip, sp}^
    10d0:	636e492f 	cmnvs	lr, #770048	; 0xbc000
    10d4:	6564756c 	strbvs	r7, [r4, #-1388]!	; 0xfffffa94
    10d8:	73752f00 	cmnvc	r5, #0, 30
    10dc:	6e692f72 	mcrvs	15, 3, r2, cr9, cr2, {3}
    10e0:	64756c63 	ldrbtvs	r6, [r5], #-3171	; 0xfffff39d
    10e4:	656e2f65 	strbvs	r2, [lr, #-3941]!	; 0xfffff09b
    10e8:	62696c77 	rsbvs	r6, r9, #30464	; 0x7700
    10ec:	63616d2f 	cmnvs	r1, #3008	; 0xbc0
    10f0:	656e6968 	strbvs	r6, [lr, #-2408]!	; 0xfffff698
    10f4:	73752f00 	cmnvc	r5, #0, 30
    10f8:	6e692f72 	mcrvs	15, 3, r2, cr9, cr2, {3}
    10fc:	64756c63 	ldrbtvs	r6, [r5], #-3171	; 0xfffff39d
    1100:	656e2f65 	strbvs	r2, [lr, #-3941]!	; 0xfffff09b
    1104:	62696c77 	rsbvs	r6, r9, #30464	; 0x7700
    1108:	7379732f 	cmnvc	r9, #-1140850688	; 0xbc000000
    110c:	62696c00 	rsbvs	r6, r9, #0, 24
    1110:	6c61682f 	stclvs	8, cr6, [r1], #-188	; 0xffffff44
    1114:	636e492f 	cmnvs	lr, #770048	; 0xbc000
    1118:	74730000 	ldrbtvc	r0, [r3], #-0
    111c:	6632336d 	ldrtvs	r3, [r2], -sp, ror #6
    1120:	62323730 	eorsvs	r3, r2, #48, 14	; 0xc00000
    1124:	7369645f 	cmnvc	r9, #1593835520	; 0x5f000000
    1128:	65766f63 	ldrbvs	r6, [r6, #-3939]!	; 0xfffff09d
    112c:	632e7972 			; <UNDEFINED> instruction: 0x632e7972
    1130:	00000100 	andeq	r0, r0, r0, lsl #2
    1134:	336d7473 	cmncc	sp, #1929379840	; 0x73000000
    1138:	37306632 			; <UNDEFINED> instruction: 0x37306632
    113c:	2e627832 	mcrcs	8, 3, r7, cr2, cr2, {1}
    1140:	00020068 	andeq	r0, r2, r8, rrx
    1144:	65645f00 	strbvs	r5, [r4, #-3840]!	; 0xfffff100
    1148:	6c756166 	ldfvse	f6, [r5], #-408	; 0xfffffe68
    114c:	79745f74 	ldmdbvc	r4!, {r2, r4, r5, r6, r8, r9, sl, fp, ip, lr}^
    1150:	2e736570 	mrccs	5, 3, r6, cr3, cr0, {3}
    1154:	00030068 	andeq	r0, r3, r8, rrx
    1158:	74735f00 	ldrbtvc	r5, [r3], #-3840	; 0xfffff100
    115c:	746e6964 	strbtvc	r6, [lr], #-2404	; 0xfffff69c
    1160:	0400682e 	streq	r6, [r0], #-2094	; 0xfffff7d2
    1164:	74730000 	ldrbtvc	r0, [r3], #-0
    1168:	6632336d 	ldrtvs	r3, [r2], -sp, ror #6
    116c:	5f787830 	svcpl	0x00787830
    1170:	5f6c6168 	svcpl	0x006c6168
    1174:	6f697067 	svcvs	0x00697067
    1178:	0500682e 	streq	r6, [r0, #-2094]	; 0xfffff7d2
    117c:	74730000 	ldrbtvc	r0, [r3], #-0
    1180:	6632336d 	ldrtvs	r3, [r2], -sp, ror #6
    1184:	62323730 	eorsvs	r3, r2, #48, 14	; 0xc00000
    1188:	7369645f 	cmnvc	r9, #1593835520	; 0x5f000000
    118c:	65766f63 	ldrbvs	r6, [r6, #-3939]!	; 0xfffff09d
    1190:	682e7972 	stmdavs	lr!, {r1, r4, r5, r6, r8, fp, ip, sp, lr}
    1194:	00000100 	andeq	r0, r0, r0, lsl #2
    1198:	336d7473 	cmncc	sp, #1929379840	; 0x73000000
    119c:	78306632 	ldmdavc	r0!, {r1, r4, r5, r9, sl, sp, lr}
    11a0:	61685f78 	smcvs	34296	; 0x85f8
    11a4:	6f635f6c 	svcvs	0x00635f6c
    11a8:	78657472 	stmdavc	r5!, {r1, r4, r5, r6, sl, ip, sp, lr}^
    11ac:	0500682e 	streq	r6, [r0, #-2094]	; 0xfffff7d2
    11b0:	00000000 	andeq	r0, r0, r0
    11b4:	00000205 	andeq	r0, r0, r5, lsl #4
    11b8:	a3030000 	movwge	r0, #12288	; 0x3000
    11bc:	02140101 	andseq	r0, r4, #1073741824	; 0x40000000
    11c0:	01010004 	tsteq	r1, r4
    11c4:	28020500 	stmdacs	r2, {r8, sl}
    11c8:	0308000f 	movweq	r0, #32783	; 0x800f
    11cc:	320101b2 	andcc	r0, r1, #-2147483604	; 0x8000002c
    11d0:	01040200 	mrseq	r0, R12_usr
    11d4:	02002e06 	andeq	r2, r0, #6, 28	; 0x60
    11d8:	00ac0204 	adceq	r0, ip, r4, lsl #4
    11dc:	2e030402 	cdpcs	4, 0, cr0, cr3, cr2, {0}
    11e0:	04040200 	streq	r0, [r4], #-512	; 0xfffffe00
    11e4:	040200ac 	streq	r0, [r2], #-172	; 0xffffff54
    11e8:	02002e05 	andeq	r2, r0, #5, 28	; 0x50
    11ec:	00ac0604 	adceq	r0, ip, r4, lsl #12
    11f0:	2e070402 	cdpcs	4, 0, cr0, cr7, cr2, {0}
    11f4:	243da106 	ldrtcs	sl, [sp], #-262	; 0xfffffefa
    11f8:	1e23212a 	sufnesp	f2, f3, #2.0
    11fc:	251d1e22 	ldrcs	r1, [sp, #-3618]	; 0xfffff1de
    1200:	09025930 	stmdbeq	r2, {r4, r5, r8, fp, ip, lr}
    1204:	00010100 	andeq	r0, r1, r0, lsl #2
    1208:	00000205 	andeq	r0, r0, r5, lsl #4
    120c:	ce030000 	cdpgt	0, 0, cr0, cr3, cr0, {0}
    1210:	59210101 	stmdbpl	r1!, {r0, r8}
    1214:	06024b11 			; <UNDEFINED> instruction: 0x06024b11
    1218:	00010100 	andeq	r0, r1, r0, lsl #2
    121c:	00000205 	andeq	r0, r0, r5, lsl #4
    1220:	dd030000 	stcle	0, cr0, [r3, #-0]
    1224:	59210101 	stmdbpl	r1!, {r0, r8}
    1228:	06024b11 			; <UNDEFINED> instruction: 0x06024b11
    122c:	00010100 	andeq	r0, r1, r0, lsl #2
    1230:	0fcc0205 	svceq	0x00cc0205
    1234:	ec030800 	stc	8, cr0, [r3], {-0}
    1238:	59210101 	stmdbpl	r1!, {r0, r8}
    123c:	05023d11 	streq	r3, [r2, #-3345]	; 0xfffff2ef
    1240:	00010100 	andeq	r0, r1, r0, lsl #2
    1244:	00000205 	andeq	r0, r0, r5, lsl #4
    1248:	fc030000 	stc2	0, cr0, [r3], {-0}
    124c:	00400101 	subeq	r0, r0, r1, lsl #2
    1250:	06010402 	streq	r0, [r1], -r2, lsl #8
    1254:	4d91062e 	ldcmi	6, cr0, [r1, #184]	; 0xb8
    1258:	3f1e221d 	svccc	0x001e221d
    125c:	1f213222 	svcne	0x00213222
    1260:	5b221e21 	blpl	888aec <_Min_Stack_Size+0x8886ec>
    1264:	1f212131 	svcne	0x00212131
    1268:	31223a21 			; <UNDEFINED> instruction: 0x31223a21
    126c:	09023e59 	stmdbeq	r2, {r0, r3, r4, r6, r9, sl, fp, ip, sp}
    1270:	00010100 	andeq	r0, r1, r0, lsl #2
    1274:	00000205 	andeq	r0, r0, r5, lsl #4
    1278:	a2030000 	andge	r0, r3, #0
    127c:	67210102 	strvs	r0, [r1, -r2, lsl #2]!
    1280:	01000302 	tsteq	r0, r2, lsl #6
    1284:	00013e01 	andeq	r3, r1, r1, lsl #28
    1288:	e4000200 	str	r0, [r0], #-512	; 0xfffffe00
    128c:	02000000 	andeq	r0, r0, #0
    1290:	0d0efb01 	vstreq	d15, [lr, #-4]
    1294:	01010100 	mrseq	r0, (UNDEF: 17)
    1298:	00000001 	andeq	r0, r0, r1
    129c:	01000001 	tsteq	r0, r1
    12a0:	2f62696c 	svccs	0x0062696c
    12a4:	69736d63 	ldmdbvs	r3!, {r0, r1, r5, r6, r8, sl, fp, sp, lr}^
    12a8:	65442f73 	strbvs	r2, [r4, #-3955]	; 0xfffff08d
    12ac:	65636976 	strbvs	r6, [r3, #-2422]!	; 0xfffff68a
    12b0:	2f54532f 	svccs	0x0054532f
    12b4:	334d5453 	movtcc	r5, #54355	; 0xd453
    12b8:	78304632 	ldmdavc	r0!, {r1, r4, r5, r9, sl, lr}
    12bc:	6f532f78 	svcvs	0x00532f78
    12c0:	65637275 	strbvs	r7, [r3, #-629]!	; 0xfffffd8b
    12c4:	6d65542f 	cfstrdvs	mvd5, [r5, #-188]!	; 0xffffff44
    12c8:	74616c70 	strbtvc	r6, [r1], #-3184	; 0xfffff390
    12cc:	2f007365 	svccs	0x00007365
    12d0:	2f727375 	svccs	0x00727375
    12d4:	6c636e69 	stclvs	14, cr6, [r3], #-420	; 0xfffffe5c
    12d8:	2f656475 	svccs	0x00656475
    12dc:	6c77656e 	cfldr64vs	mvdx6, [r7], #-440	; 0xfffffe48
    12e0:	6d2f6269 	sfmvs	f6, 4, [pc, #-420]!	; 1144 <_Min_Stack_Size+0xd44>
    12e4:	69686361 	stmdbvs	r8!, {r0, r5, r6, r8, r9, sp, lr}^
    12e8:	2f00656e 	svccs	0x0000656e
    12ec:	2f727375 	svccs	0x00727375
    12f0:	6c636e69 	stclvs	14, cr6, [r3], #-420	; 0xfffffe5c
    12f4:	2f656475 	svccs	0x00656475
    12f8:	6c77656e 	cfldr64vs	mvdx6, [r7], #-440	; 0xfffffe48
    12fc:	732f6269 			; <UNDEFINED> instruction: 0x732f6269
    1300:	6c007379 	stcvs	3, cr7, [r0], {121}	; 0x79
    1304:	632f6269 			; <UNDEFINED> instruction: 0x632f6269
    1308:	7369736d 	cmnvc	r9, #-1275068415	; 0xb4000001
    130c:	7665442f 	strbtvc	r4, [r5], -pc, lsr #8
    1310:	2f656369 	svccs	0x00656369
    1314:	532f5453 			; <UNDEFINED> instruction: 0x532f5453
    1318:	32334d54 	eorscc	r4, r3, #84, 26	; 0x1500
    131c:	78783046 	ldmdavc	r8!, {r1, r2, r6, ip, sp}^
    1320:	636e492f 	cmnvs	lr, #770048	; 0xbc000
    1324:	6564756c 	strbvs	r7, [r4, #-1388]!	; 0xfffffa94
    1328:	79730000 	ldmdbvc	r3!, {}^	; <UNPREDICTABLE>
    132c:	6d657473 	cfstrdvs	mvd7, [r5, #-460]!	; 0xfffffe34
    1330:	6d74735f 	ldclvs	3, cr7, [r4, #-380]!	; 0xfffffe84
    1334:	30663233 	rsbcc	r3, r6, r3, lsr r2
    1338:	632e7878 			; <UNDEFINED> instruction: 0x632e7878
    133c:	00000100 	andeq	r0, r0, r0, lsl #2
    1340:	6665645f 			; <UNDEFINED> instruction: 0x6665645f
    1344:	746c7561 	strbtvc	r7, [ip], #-1377	; 0xfffffa9f
    1348:	7079745f 	rsbsvc	r7, r9, pc, asr r4
    134c:	682e7365 	stmdavs	lr!, {r0, r2, r5, r6, r8, r9, ip, sp, lr}
    1350:	00000200 	andeq	r0, r0, r0, lsl #4
    1354:	6474735f 	ldrbtvs	r7, [r4], #-863	; 0xfffffca1
    1358:	2e746e69 	cdpcs	14, 7, cr6, cr4, cr9, {3}
    135c:	00030068 	andeq	r0, r3, r8, rrx
    1360:	6d747300 	ldclvs	3, cr7, [r4, #-0]
    1364:	30663233 	rsbcc	r3, r6, r3, lsr r2
    1368:	62783237 	rsbsvs	r3, r8, #1879048195	; 0x70000003
    136c:	0400682e 	streq	r6, [r0], #-2094	; 0xfffff7d2
    1370:	00000000 	andeq	r0, r0, r0
    1374:	0fe80205 	svceq	0x00e80205
    1378:	a3030800 	movwge	r0, #14336	; 0x3800
    137c:	03150101 	tsteq	r5, #1073741824	; 0x40000000
    1380:	49032e37 	stmdbmi	r3, {r0, r1, r2, r4, r5, r9, sl, fp, sp}
    1384:	4d4e4301 	stclmi	3, cr4, [lr, #-4]
    1388:	231d3f4d 	tstcs	sp, #308	; 0x134
    138c:	4a1a0340 	bmi	682094 <_Min_Stack_Size+0x681c94>
    1390:	0e02303f 	mcreq	0, 0, r3, cr2, cr15, {1}
    1394:	00010100 	andeq	r0, r1, r0, lsl #2
    1398:	00000205 	andeq	r0, r0, r5, lsl #4
    139c:	84030000 	strhi	r0, [r3], #-0
    13a0:	5a240102 	bpl	9017b0 <_Min_Stack_Size+0x9013b0>
    13a4:	1d262f50 	stcne	15, cr2, [r6, #-320]!	; 0xfffffec0
    13a8:	221e2221 	andscs	r2, lr, #268435458	; 0x10000002
    13ac:	21211b22 			; <UNDEFINED> instruction: 0x21211b22
    13b0:	2221211f 	eorcs	r2, r1, #-1073741817	; 0xc0000007
    13b4:	09033142 	stmdbeq	r3, {r1, r6, r8, ip, sp}
    13b8:	580f032e 	stmdapl	pc, {r1, r2, r3, r5, r8, r9}	; <UNPREDICTABLE>
    13bc:	2f301e22 	svccs	0x00301e22
    13c0:	0c022f11 	stceq	15, cr2, [r2], {17}
    13c4:	a7010100 	strge	r0, [r1, -r0, lsl #2]
    13c8:	02000000 	andeq	r0, r0, #0
    13cc:	00005f00 	andeq	r5, r0, r0, lsl #30
    13d0:	fb010200 	blx	41bda <_Min_Stack_Size+0x417da>
    13d4:	01000d0e 	tsteq	r0, lr, lsl #26
    13d8:	00010101 	andeq	r0, r1, r1, lsl #2
    13dc:	00010000 	andeq	r0, r1, r0
    13e0:	696c0100 	stmdbvs	ip!, {r8}^
    13e4:	6d632f62 	stclvs	15, cr2, [r3, #-392]!	; 0xfffffe78
    13e8:	2f736973 	svccs	0x00736973
    13ec:	69766544 	ldmdbvs	r6!, {r2, r6, r8, sl, sp, lr}^
    13f0:	532f6563 			; <UNDEFINED> instruction: 0x532f6563
    13f4:	54532f54 	ldrbpl	r2, [r3], #-3924	; 0xfffff0ac
    13f8:	4632334d 	ldrtmi	r3, [r2], -sp, asr #6
    13fc:	2f787830 	svccs	0x00787830
    1400:	72756f53 	rsbsvc	r6, r5, #332	; 0x14c
    1404:	542f6563 	strtpl	r6, [pc], #-1379	; 140c <_Min_Stack_Size+0x100c>
    1408:	6c706d65 	ldclvs	13, cr6, [r0], #-404	; 0xfffffe6c
    140c:	73657461 	cmnvc	r5, #1627389952	; 0x61000000
    1410:	6363672f 	cmnvs	r3, #12320768	; 0xbc0000
    1414:	74730000 	ldrbtvc	r0, [r3], #-0
    1418:	75747261 	ldrbvc	r7, [r4, #-609]!	; 0xfffffd9f
    141c:	74735f70 	ldrbtvc	r5, [r3], #-3952	; 0xfffff090
    1420:	6632336d 	ldrtvs	r3, [r2], -sp, ror #6
    1424:	78323730 	ldmdavc	r2!, {r4, r5, r8, r9, sl, ip, sp}
    1428:	00732e62 	rsbseq	r2, r3, r2, ror #28
    142c:	00000001 	andeq	r0, r0, r1
    1430:	48020500 	stmdami	r2, {r8, sl}
    1434:	03080010 	movweq	r0, #32784	; 0x8010
    1438:	210100c0 	smlabtcs	r1, r0, r0, r0
    143c:	21212123 			; <UNDEFINED> instruction: 0x21212123
    1440:	21212321 			; <UNDEFINED> instruction: 0x21212321
    1444:	23212123 			; <UNDEFINED> instruction: 0x23212123
    1448:	23212121 			; <UNDEFINED> instruction: 0x23212121
    144c:	23212321 			; <UNDEFINED> instruction: 0x23212321
    1450:	03313030 	teqeq	r1, #48	; 0x30
    1454:	2f322056 	svccs	0x00322056
    1458:	2e0f032f 	cdpcs	3, 0, cr0, cr15, cr15, {1}
    145c:	0002022f 	andeq	r0, r2, pc, lsr #4
    1460:	05000101 	streq	r0, [r0, #-257]	; 0xfffffeff
    1464:	00109802 	andseq	r9, r0, r2, lsl #16
    1468:	00fa0308 	rscseq	r0, sl, r8, lsl #6
    146c:	00010201 	andeq	r0, r1, r1, lsl #4
    1470:	00680101 	rsbeq	r0, r8, r1, lsl #2
    1474:	00020000 	andeq	r0, r2, r0
    1478:	00000044 	andeq	r0, r0, r4, asr #32
    147c:	0efb0102 	cdpeq	1, 15, cr0, cr11, cr2, {0}
    1480:	0101000d 	tsteq	r1, sp
    1484:	00000101 	andeq	r0, r0, r1, lsl #2
    1488:	00000100 	andeq	r0, r0, r0, lsl #2
    148c:	2f2e2e01 	svccs	0x002e2e01
    1490:	2e2f2e2e 	cdpcs	14, 2, cr2, cr15, cr14, {1}
    1494:	2e2e2f2e 	cdpcs	15, 2, cr2, cr14, cr14, {1}
    1498:	6372732f 	cmnvs	r2, #-1140850688	; 0xbc000000
    149c:	62696c2f 	rsbvs	r6, r9, #12032	; 0x2f00
    14a0:	2f636367 	svccs	0x00636367
    14a4:	666e6f63 	strbtvs	r6, [lr], -r3, ror #30
    14a8:	612f6769 			; <UNDEFINED> instruction: 0x612f6769
    14ac:	00006d72 	andeq	r6, r0, r2, ror sp
    14b0:	3162696c 	cmncc	r2, ip, ror #18
    14b4:	636e7566 	cmnvs	lr, #427819008	; 0x19800000
    14b8:	00532e73 	subseq	r2, r3, r3, ror lr
    14bc:	00000001 	andeq	r0, r0, r1
    14c0:	74020500 	strvc	r0, [r2], #-1280	; 0xfffffb00
    14c4:	03080001 	movweq	r0, #32769	; 0x8001
    14c8:	030108c1 	movweq	r0, #6337	; 0x18c1
    14cc:	01800231 	orreq	r0, r0, r1, lsr r2
    14d0:	21216a01 			; <UNDEFINED> instruction: 0x21216a01
    14d4:	21212f21 			; <UNDEFINED> instruction: 0x21212f21
    14d8:	00010221 	andeq	r0, r1, r1, lsr #4
    14dc:	005a0101 	subseq	r0, sl, r1, lsl #2
    14e0:	00020000 	andeq	r0, r2, r0
    14e4:	00000044 	andeq	r0, r0, r4, asr #32
    14e8:	0efb0102 	cdpeq	1, 15, cr0, cr11, cr2, {0}
    14ec:	0101000d 	tsteq	r1, sp
    14f0:	00000101 	andeq	r0, r0, r1, lsl #2
    14f4:	00000100 	andeq	r0, r0, r0, lsl #2
    14f8:	2f2e2e01 	svccs	0x002e2e01
    14fc:	2e2f2e2e 	cdpcs	14, 2, cr2, cr15, cr14, {1}
    1500:	2e2e2f2e 	cdpcs	15, 2, cr2, cr14, cr14, {1}
    1504:	6372732f 	cmnvs	r2, #-1140850688	; 0xbc000000
    1508:	62696c2f 	rsbvs	r6, r9, #12032	; 0x2f00
    150c:	2f636367 	svccs	0x00636367
    1510:	666e6f63 	strbtvs	r6, [lr], -r3, ror #30
    1514:	612f6769 			; <UNDEFINED> instruction: 0x612f6769
    1518:	00006d72 	andeq	r6, r0, r2, ror sp
    151c:	3162696c 	cmncc	r2, ip, ror #18
    1520:	636e7566 	cmnvs	lr, #427819008	; 0x19800000
    1524:	00532e73 	subseq	r2, r3, r3, ror lr
    1528:	00000001 	andeq	r0, r0, r1
    152c:	94020500 	strls	r0, [r2], #-1280	; 0xfffffb00
    1530:	03080002 	movweq	r0, #32770	; 0x8002
    1534:	02010bae 	andeq	r0, r1, #178176	; 0x2b800
    1538:	01010001 	tsteq	r1, r1
    153c:	000000be 	strheq	r0, [r0], -lr
    1540:	00a60002 	adceq	r0, r6, r2
    1544:	01020000 	mrseq	r0, (UNDEF: 2)
    1548:	000d0efb 	strdeq	r0, [sp], -fp
    154c:	01010101 	tsteq	r1, r1, lsl #2
    1550:	01000000 	mrseq	r0, (UNDEF: 0)
    1554:	2e010000 	cdpcs	0, 0, cr0, cr1, cr0, {0}
    1558:	2e2e2f2e 	cdpcs	15, 2, cr2, cr14, cr14, {1}
    155c:	2f2e2e2f 	svccs	0x002e2e2f
    1560:	2e2f2e2e 	cdpcs	14, 2, cr2, cr15, cr14, {1}
    1564:	2e2e2f2e 	cdpcs	15, 2, cr2, cr14, cr14, {1}
    1568:	77656e2f 	strbvc	r6, [r5, -pc, lsr #28]!
    156c:	2f62696c 	svccs	0x0062696c
    1570:	6362696c 	cmnvs	r2, #108, 18	; 0x1b0000
    1574:	6474732f 	ldrbtvs	r7, [r4], #-815	; 0xfffffcd1
    1578:	0062696c 	rsbeq	r6, r2, ip, ror #18
    157c:	6975622f 	ldmdbvs	r5!, {r0, r1, r2, r3, r5, r9, sp, lr}^
    1580:	6e2f646c 	cdpvs	4, 2, cr6, cr15, cr12, {3}
    1584:	696c7765 	stmdbvs	ip!, {r0, r2, r5, r6, r8, r9, sl, ip, sp, lr}^
    1588:	7a352d62 	bvc	d4cb18 <_Min_Stack_Size+0xd4c718>
    158c:	45787077 	ldrbmi	r7, [r8, #-119]!	; 0xffffff89
    1590:	77656e2f 	strbvc	r6, [r5, -pc, lsr #28]!
    1594:	2d62696c 	stclcs	9, cr6, [r2, #-432]!	; 0xfffffe50
    1598:	2e322e32 	mrccs	14, 1, r2, cr2, cr2, {1}
    159c:	69672b30 	stmdbvs	r7!, {r4, r5, r8, r9, fp, sp}^
    15a0:	31303274 	teqcc	r0, r4, ror r2
    15a4:	33383035 	teqcc	r8, #53	; 0x35
    15a8:	61352e30 	teqvs	r5, r0, lsr lr
    15ac:	33356433 	teqcc	r5, #855638016	; 0x33000000
    15b0:	656e2f36 	strbvs	r2, [lr, #-3894]!	; 0xfffff0ca
    15b4:	62696c77 	rsbvs	r6, r9, #30464	; 0x7700
    15b8:	62696c2f 	rsbvs	r6, r9, #12032	; 0x2f00
    15bc:	6e692f63 	cdpvs	15, 6, cr2, cr9, cr3, {3}
    15c0:	64756c63 	ldrbtvs	r6, [r5], #-3171	; 0xfffff39d
    15c4:	61000065 	tstvs	r0, r5, rrx
    15c8:	69786574 	ldmdbvs	r8!, {r2, r4, r5, r6, r8, sl, sp, lr}^
    15cc:	00632e74 	rsbeq	r2, r3, r4, ror lr
    15d0:	61000001 	tstvs	r0, r1
    15d4:	69786574 	ldmdbvs	r8!, {r2, r4, r5, r6, r8, sl, sp, lr}^
    15d8:	00682e74 	rsbeq	r2, r8, r4, ror lr
    15dc:	73000001 	movwvc	r0, #1
    15e0:	696c6474 	stmdbvs	ip!, {r2, r4, r5, r6, sl, sp, lr}^
    15e4:	00682e62 	rsbeq	r2, r8, r2, ror #28
    15e8:	00000002 	andeq	r0, r0, r2
    15ec:	9c020500 	cfstr32ls	mvfx0, [r2], {-0}
    15f0:	03080010 	movweq	r0, #32784	; 0x8010
    15f4:	2120013f 			; <UNDEFINED> instruction: 0x2120013f
    15f8:	00010259 	andeq	r0, r1, r9, asr r2
    15fc:	00980101 	addseq	r0, r8, r1, lsl #2
    1600:	00020000 	andeq	r0, r2, r0
    1604:	00000075 	andeq	r0, r0, r5, ror r0
    1608:	0efb0102 	cdpeq	1, 15, cr0, cr11, cr2, {0}
    160c:	0101000d 	tsteq	r1, sp
    1610:	00000101 	andeq	r0, r0, r1, lsl #2
    1614:	00000100 	andeq	r0, r0, r0, lsl #2
    1618:	2f2e2e01 	svccs	0x002e2e01
    161c:	2e2f2e2e 	cdpcs	14, 2, cr2, cr15, cr14, {1}
    1620:	2e2e2f2e 	cdpcs	15, 2, cr2, cr14, cr14, {1}
    1624:	2f2e2e2f 	svccs	0x002e2e2f
    1628:	6e2f2e2e 	cdpvs	14, 2, cr2, cr15, cr14, {1}
    162c:	696c7765 	stmdbvs	ip!, {r0, r2, r5, r6, r8, r9, sl, ip, sp, lr}^
    1630:	696c2f62 	stmdbvs	ip!, {r1, r5, r6, r8, r9, sl, fp, sp}^
    1634:	6d2f6362 	stcvs	3, cr6, [pc, #-392]!	; 14b4 <_Min_Stack_Size+0x10b4>
    1638:	00637369 	rsbeq	r7, r3, r9, ror #6
    163c:	7273752f 	rsbsvc	r7, r3, #197132288	; 0xbc00000
    1640:	62696c2f 	rsbvs	r6, r9, #12032	; 0x2f00
    1644:	6363672f 	cmnvs	r3, #12320768	; 0xbc0000
    1648:	6d72612f 	ldfvse	f6, [r2, #-188]!	; 0xffffff44
    164c:	6e6f6e2d 	cdpvs	14, 6, cr6, cr15, cr13, {1}
    1650:	61652d65 	cmnvs	r5, r5, ror #26
    1654:	342f6962 	strtcc	r6, [pc], #-2402	; 165c <_Min_Stack_Size+0x125c>
    1658:	332e392e 			; <UNDEFINED> instruction: 0x332e392e
    165c:	636e692f 	cmnvs	lr, #770048	; 0xbc000
    1660:	6564756c 	strbvs	r7, [r4, #-1388]!	; 0xfffffa94
    1664:	69660000 	stmdbvs	r6!, {}^	; <UNPREDICTABLE>
    1668:	632e696e 			; <UNDEFINED> instruction: 0x632e696e
    166c:	00000100 	andeq	r0, r0, r0, lsl #2
    1670:	64647473 	strbtvs	r7, [r4], #-1139	; 0xfffffb8d
    1674:	682e6665 	stmdavs	lr!, {r0, r2, r5, r6, r9, sl, sp, lr}
    1678:	00000200 	andeq	r0, r0, r0, lsl #4
    167c:	02050000 	andeq	r0, r5, #0
    1680:	080010ac 	stmdaeq	r0, {r2, r3, r5, r7, ip}
    1684:	24011803 	strcs	r1, [r1], #-2051	; 0xfffff7fd
    1688:	0402004b 	streq	r0, [r2], #-75	; 0xffffffb5
    168c:	02005903 	andeq	r5, r0, #49152	; 0xc000
    1690:	31490304 	cmpcc	r9, r4, lsl #6
    1694:	0008022f 	andeq	r0, r8, pc, lsr #4
    1698:	00ed0101 	rsceq	r0, sp, r1, lsl #2
    169c:	00020000 	andeq	r0, r2, r0
    16a0:	000000e7 	andeq	r0, r0, r7, ror #1
    16a4:	0efb0102 	cdpeq	1, 15, cr0, cr11, cr2, {0}
    16a8:	0101000d 	tsteq	r1, sp
    16ac:	00000101 	andeq	r0, r0, r1, lsl #2
    16b0:	00000100 	andeq	r0, r0, r0, lsl #2
    16b4:	75622f01 	strbvc	r2, [r2, #-3841]!	; 0xfffff0ff
    16b8:	2f646c69 	svccs	0x00646c69
    16bc:	6c77656e 	cfldr64vs	mvdx6, [r7], #-440	; 0xfffffe48
    16c0:	352d6269 	strcc	r6, [sp, #-617]!	; 0xfffffd97
    16c4:	7870777a 	ldmdavc	r0!, {r1, r3, r4, r5, r6, r8, r9, sl, ip, sp, lr}^
    16c8:	656e2f45 	strbvs	r2, [lr, #-3909]!	; 0xfffff0bb
    16cc:	62696c77 	rsbvs	r6, r9, #30464	; 0x7700
    16d0:	322e322d 	eorcc	r3, lr, #-805306366	; 0xd0000002
    16d4:	672b302e 	strvs	r3, [fp, -lr, lsr #32]!
    16d8:	30327469 	eorscc	r7, r2, r9, ror #8
    16dc:	38303531 	ldmdacc	r0!, {r0, r4, r5, r8, sl, ip, sp}
    16e0:	352e3033 	strcc	r3, [lr, #-51]!	; 0xffffffcd
    16e4:	35643361 	strbcc	r3, [r4, #-865]!	; 0xfffffc9f
    16e8:	6e2f3633 	mcrvs	6, 1, r3, cr15, cr3, {1}
    16ec:	696c7765 	stmdbvs	ip!, {r0, r2, r5, r6, r8, r9, sl, ip, sp, lr}^
    16f0:	696c2f62 	stmdbvs	ip!, {r1, r5, r6, r8, r9, sl, fp, sp}^
    16f4:	692f6362 	stmdbvs	pc!, {r1, r5, r6, r8, r9, sp, lr}	; <UNPREDICTABLE>
    16f8:	756c636e 	strbvc	r6, [ip, #-878]!	; 0xfffffc92
    16fc:	732f6564 			; <UNDEFINED> instruction: 0x732f6564
    1700:	2f007379 	svccs	0x00007379
    1704:	2f727375 	svccs	0x00727375
    1708:	2f62696c 	svccs	0x0062696c
    170c:	2f636367 	svccs	0x00636367
    1710:	2d6d7261 	sfmcs	f7, 2, [sp, #-388]!	; 0xfffffe7c
    1714:	656e6f6e 	strbvs	r6, [lr, #-3950]!	; 0xfffff092
    1718:	6261652d 	rsbvs	r6, r1, #188743680	; 0xb400000
    171c:	2e342f69 	cdpcs	15, 3, cr2, cr4, cr9, {3}
    1720:	2f332e39 	svccs	0x00332e39
    1724:	6c636e69 	stclvs	14, cr6, [r3], #-420	; 0xfffffe5c
    1728:	00656475 	rsbeq	r6, r5, r5, ror r4
    172c:	2e2f2e2e 	cdpcs	14, 2, cr2, cr15, cr14, {1}
    1730:	2e2e2f2e 	cdpcs	15, 2, cr2, cr14, cr14, {1}
    1734:	2f2e2e2f 	svccs	0x002e2e2f
    1738:	2e2f2e2e 	cdpcs	14, 2, cr2, cr15, cr14, {1}
    173c:	656e2f2e 	strbvs	r2, [lr, #-3886]!	; 0xfffff0d2
    1740:	62696c77 	rsbvs	r6, r9, #30464	; 0x7700
    1744:	62696c2f 	rsbvs	r6, r9, #12032	; 0x2f00
    1748:	65722f63 	ldrbvs	r2, [r2, #-3939]!	; 0xfffff09d
    174c:	00746e65 	rsbseq	r6, r4, r5, ror #28
    1750:	636f6c00 	cmnvs	pc, #0, 24
    1754:	00682e6b 	rsbeq	r2, r8, fp, ror #28
    1758:	5f000001 	svcpl	0x00000001
    175c:	65707974 	ldrbvs	r7, [r0, #-2420]!	; 0xfffff68c
    1760:	00682e73 	rsbeq	r2, r8, r3, ror lr
    1764:	73000001 	movwvc	r0, #1
    1768:	65646474 	strbvs	r6, [r4, #-1140]!	; 0xfffffb8c
    176c:	00682e66 	rsbeq	r2, r8, r6, ror #28
    1770:	72000002 	andvc	r0, r0, #2
    1774:	746e6565 	strbtvc	r6, [lr], #-1381	; 0xfffffa9b
    1778:	0100682e 	tsteq	r0, lr, lsr #16
    177c:	6d690000 	stclvs	0, cr0, [r9, #-0]
    1780:	65727570 	ldrbvs	r7, [r2, #-1392]!	; 0xfffffa90
    1784:	0300632e 	movweq	r6, #814	; 0x32e
    1788:	bc000000 	stclt	0, cr0, [r0], {-0}
    178c:	02000000 	andeq	r0, r0, #0
    1790:	00007500 	andeq	r7, r0, r0, lsl #10
    1794:	fb010200 	blx	41f9e <_Min_Stack_Size+0x41b9e>
    1798:	01000d0e 	tsteq	r0, lr, lsl #26
    179c:	00010101 	andeq	r0, r1, r1, lsl #2
    17a0:	00010000 	andeq	r0, r1, r0
    17a4:	2e2e0100 	sufcse	f0, f6, f0
    17a8:	2f2e2e2f 	svccs	0x002e2e2f
    17ac:	2e2f2e2e 	cdpcs	14, 2, cr2, cr15, cr14, {1}
    17b0:	2e2e2f2e 	cdpcs	15, 2, cr2, cr14, cr14, {1}
    17b4:	2f2e2e2f 	svccs	0x002e2e2f
    17b8:	6c77656e 	cfldr64vs	mvdx6, [r7], #-440	; 0xfffffe48
    17bc:	6c2f6269 	sfmvs	f6, 4, [pc], #-420	; 1620 <_Min_Stack_Size+0x1220>
    17c0:	2f636269 	svccs	0x00636269
    17c4:	6373696d 	cmnvs	r3, #1785856	; 0x1b4000
    17c8:	73752f00 	cmnvc	r5, #0, 30
    17cc:	696c2f72 	stmdbvs	ip!, {r1, r4, r5, r6, r8, r9, sl, fp, sp}^
    17d0:	63672f62 	cmnvs	r7, #392	; 0x188
    17d4:	72612f63 	rsbvc	r2, r1, #396	; 0x18c
    17d8:	6f6e2d6d 	svcvs	0x006e2d6d
    17dc:	652d656e 	strvs	r6, [sp, #-1390]!	; 0xfffffa92
    17e0:	2f696261 	svccs	0x00696261
    17e4:	2e392e34 	mrccs	14, 1, r2, cr9, cr4, {1}
    17e8:	6e692f33 	mcrvs	15, 3, r2, cr9, cr3, {1}
    17ec:	64756c63 	ldrbtvs	r6, [r5], #-3171	; 0xfffff39d
    17f0:	69000065 	stmdbvs	r0, {r0, r2, r5, r6}
    17f4:	2e74696e 	cdpcs	9, 7, cr6, cr4, cr14, {3}
    17f8:	00010063 	andeq	r0, r1, r3, rrx
    17fc:	64747300 	ldrbtvs	r7, [r4], #-768	; 0xfffffd00
    1800:	2e666564 	cdpcs	5, 6, cr6, cr6, cr4, {3}
    1804:	00020068 	andeq	r0, r2, r8, rrx
    1808:	05000000 	streq	r0, [r0, #-0]
    180c:	0010e002 	andseq	lr, r0, r2
    1810:	011c0308 	tsteq	ip, r8, lsl #6
    1814:	2f1f2f24 	svccs	0x001f2f24
    1818:	03040200 	movweq	r0, #16896	; 0x4200
    181c:	0402002f 	streq	r0, [r2], #-47	; 0xffffffd1
    1820:	02001f03 	andeq	r1, r0, #3, 30
    1824:	00210304 	eoreq	r0, r1, r4, lsl #6
    1828:	1f030402 	svcne	0x00030402
    182c:	1f2f3031 	svcne	0x002f3031
    1830:	0402002f 	streq	r0, [r2], #-47	; 0xffffffd1
    1834:	02002f03 	andeq	r2, r0, #3, 30
    1838:	001f0304 	andseq	r0, pc, r4, lsl #6
    183c:	21030402 	tstcs	r3, r2, lsl #8
    1840:	03040200 	movweq	r0, #16896	; 0x4200
    1844:	0902301f 	stmdbeq	r2, {r0, r1, r2, r3, r4, ip, sp}
    1848:	10010100 	andne	r0, r1, r0, lsl #2
    184c:	02000001 	andeq	r0, r0, #1
    1850:	0000cf00 	andeq	ip, r0, r0, lsl #30
    1854:	fb010200 	blx	4205e <_Min_Stack_Size+0x41c5e>
    1858:	01000d0e 	tsteq	r0, lr, lsl #26
    185c:	00010101 	andeq	r0, r1, r1, lsl #2
    1860:	00010000 	andeq	r0, r1, r0
    1864:	2e2e0100 	sufcse	f0, f6, f0
    1868:	2f2e2e2f 	svccs	0x002e2e2f
    186c:	2e2f2e2e 	cdpcs	14, 2, cr2, cr15, cr14, {1}
    1870:	2e2e2f2e 	cdpcs	15, 2, cr2, cr14, cr14, {1}
    1874:	2f2e2e2f 	svccs	0x002e2e2f
    1878:	6c77656e 	cfldr64vs	mvdx6, [r7], #-440	; 0xfffffe48
    187c:	6c2f6269 	sfmvs	f6, 4, [pc], #-420	; 16e0 <_Min_Stack_Size+0x12e0>
    1880:	2f636269 	svccs	0x00636269
    1884:	69727473 	ldmdbvs	r2!, {r0, r1, r4, r5, r6, sl, ip, sp, lr}^
    1888:	2f00676e 	svccs	0x0000676e
    188c:	2f727375 	svccs	0x00727375
    1890:	2f62696c 	svccs	0x0062696c
    1894:	2f636367 	svccs	0x00636367
    1898:	2d6d7261 	sfmcs	f7, 2, [sp, #-388]!	; 0xfffffe7c
    189c:	656e6f6e 	strbvs	r6, [lr, #-3950]!	; 0xfffff092
    18a0:	6261652d 	rsbvs	r6, r1, #188743680	; 0xb400000
    18a4:	2e342f69 	cdpcs	15, 3, cr2, cr4, cr9, {3}
    18a8:	2f332e39 	svccs	0x00332e39
    18ac:	6c636e69 	stclvs	14, cr6, [r3], #-420	; 0xfffffe5c
    18b0:	00656475 	rsbeq	r6, r5, r5, ror r4
    18b4:	6975622f 	ldmdbvs	r5!, {r0, r1, r2, r3, r5, r9, sp, lr}^
    18b8:	6e2f646c 	cdpvs	4, 2, cr6, cr15, cr12, {3}
    18bc:	696c7765 	stmdbvs	ip!, {r0, r2, r5, r6, r8, r9, sl, ip, sp, lr}^
    18c0:	7a352d62 	bvc	d4ce50 <_Min_Stack_Size+0xd4ca50>
    18c4:	45787077 	ldrbmi	r7, [r8, #-119]!	; 0xffffff89
    18c8:	77656e2f 	strbvc	r6, [r5, -pc, lsr #28]!
    18cc:	2d62696c 	stclcs	9, cr6, [r2, #-432]!	; 0xfffffe50
    18d0:	2e322e32 	mrccs	14, 1, r2, cr2, cr2, {1}
    18d4:	69672b30 	stmdbvs	r7!, {r4, r5, r8, r9, fp, sp}^
    18d8:	31303274 	teqcc	r0, r4, ror r2
    18dc:	33383035 	teqcc	r8, #53	; 0x35
    18e0:	61352e30 	teqvs	r5, r0, lsr lr
    18e4:	33356433 	teqcc	r5, #855638016	; 0x33000000
    18e8:	656e2f36 	strbvs	r2, [lr, #-3894]!	; 0xfffff0ca
    18ec:	62696c77 	rsbvs	r6, r9, #30464	; 0x7700
    18f0:	62696c2f 	rsbvs	r6, r9, #12032	; 0x2f00
    18f4:	6e692f63 	cdpvs	15, 6, cr2, cr9, cr3, {3}
    18f8:	64756c63 	ldrbtvs	r6, [r5], #-3171	; 0xfffff39d
    18fc:	6d000065 	stcvs	0, cr0, [r0, #-404]	; 0xfffffe6c
    1900:	70636d65 	rsbvc	r6, r3, r5, ror #26
    1904:	00632e79 	rsbeq	r2, r3, r9, ror lr
    1908:	73000001 	movwvc	r0, #1
    190c:	65646474 	strbvs	r6, [r4, #-1140]!	; 0xfffffb8c
    1910:	00682e66 	rsbeq	r2, r8, r6, ror #28
    1914:	73000002 	movwvc	r0, #2
    1918:	6e697274 	mcrvs	2, 3, r7, cr9, cr4, {3}
    191c:	00682e67 	rsbeq	r2, r8, r7, ror #28
    1920:	00000003 	andeq	r0, r0, r3
    1924:	28020500 	stmdacs	r2, {r8, sl}
    1928:	03080011 	movweq	r0, #32785	; 0x8011
    192c:	15030139 	strne	r0, [r3, #-313]	; 0xfffffec7
    1930:	04020020 	streq	r0, [r2], #-32	; 0xffffffe0
    1934:	662e0601 	strtvs	r0, [lr], -r1, lsl #12
    1938:	2f2f6e06 	svccs	0x002f6e06
    193c:	0a03452f 	beq	d2e00 <_Min_Stack_Size+0xd2a00>
    1940:	033a7658 	teqeq	sl, #88, 12	; 0x5800000
    1944:	5e03660b 	cfmadd32pl	mvax0, mvfx6, mvfx3, mvfx11
    1948:	20230320 	eorcs	r0, r3, r0, lsr #6
    194c:	5903333b 	stmdbpl	r3, {r0, r1, r3, r4, r5, r8, r9, ip, sp}
    1950:	20220320 	eorcs	r0, r2, r0, lsr #6
    1954:	033c5e03 	teqeq	ip, #3, 28	; 0x30
    1958:	02022e17 	andeq	r2, r2, #368	; 0x170
    195c:	95010100 	strls	r0, [r1, #-256]	; 0xffffff00
    1960:	02000001 	andeq	r0, r0, #1
    1964:	00014c00 	andeq	r4, r1, r0, lsl #24
    1968:	fb010200 	blx	42172 <_Min_Stack_Size+0x41d72>
    196c:	01000d0e 	tsteq	r0, lr, lsl #26
    1970:	00010101 	andeq	r0, r1, r1, lsl #2
    1974:	00010000 	andeq	r0, r1, r0
    1978:	2e2e0100 	sufcse	f0, f6, f0
    197c:	2f2e2e2f 	svccs	0x002e2e2f
    1980:	2e2f2e2e 	cdpcs	14, 2, cr2, cr15, cr14, {1}
    1984:	2e2e2f2e 	cdpcs	15, 2, cr2, cr14, cr14, {1}
    1988:	2f2e2e2f 	svccs	0x002e2e2f
    198c:	6c77656e 	cfldr64vs	mvdx6, [r7], #-440	; 0xfffffe48
    1990:	6c2f6269 	sfmvs	f6, 4, [pc], #-420	; 17f4 <_Min_Stack_Size+0x13f4>
    1994:	2f636269 	svccs	0x00636269
    1998:	6c647473 	cfstrdvs	mvd7, [r4], #-460	; 0xfffffe34
    199c:	2f006269 	svccs	0x00006269
    19a0:	2f727375 	svccs	0x00727375
    19a4:	2f62696c 	svccs	0x0062696c
    19a8:	2f636367 	svccs	0x00636367
    19ac:	2d6d7261 	sfmcs	f7, 2, [sp, #-388]!	; 0xfffffe7c
    19b0:	656e6f6e 	strbvs	r6, [lr, #-3950]!	; 0xfffff092
    19b4:	6261652d 	rsbvs	r6, r1, #188743680	; 0xb400000
    19b8:	2e342f69 	cdpcs	15, 3, cr2, cr4, cr9, {3}
    19bc:	2f332e39 	svccs	0x00332e39
    19c0:	6c636e69 	stclvs	14, cr6, [r3], #-420	; 0xfffffe5c
    19c4:	00656475 	rsbeq	r6, r5, r5, ror r4
    19c8:	6975622f 	ldmdbvs	r5!, {r0, r1, r2, r3, r5, r9, sp, lr}^
    19cc:	6e2f646c 	cdpvs	4, 2, cr6, cr15, cr12, {3}
    19d0:	696c7765 	stmdbvs	ip!, {r0, r2, r5, r6, r8, r9, sl, ip, sp, lr}^
    19d4:	7a352d62 	bvc	d4cf64 <_Min_Stack_Size+0xd4cb64>
    19d8:	45787077 	ldrbmi	r7, [r8, #-119]!	; 0xffffff89
    19dc:	77656e2f 	strbvc	r6, [r5, -pc, lsr #28]!
    19e0:	2d62696c 	stclcs	9, cr6, [r2, #-432]!	; 0xfffffe50
    19e4:	2e322e32 	mrccs	14, 1, r2, cr2, cr2, {1}
    19e8:	69672b30 	stmdbvs	r7!, {r4, r5, r8, r9, fp, sp}^
    19ec:	31303274 	teqcc	r0, r4, ror r2
    19f0:	33383035 	teqcc	r8, #53	; 0x35
    19f4:	61352e30 	teqvs	r5, r0, lsr lr
    19f8:	33356433 	teqcc	r5, #855638016	; 0x33000000
    19fc:	656e2f36 	strbvs	r2, [lr, #-3894]!	; 0xfffff0ca
    1a00:	62696c77 	rsbvs	r6, r9, #30464	; 0x7700
    1a04:	62696c2f 	rsbvs	r6, r9, #12032	; 0x2f00
    1a08:	6e692f63 	cdpvs	15, 6, cr2, cr9, cr3, {3}
    1a0c:	64756c63 	ldrbtvs	r6, [r5], #-3171	; 0xfffff39d
    1a10:	79732f65 	ldmdbvc	r3!, {r0, r2, r5, r6, r8, r9, sl, fp, sp}^
    1a14:	622f0073 	eorvs	r0, pc, #115	; 0x73
    1a18:	646c6975 	strbtvs	r6, [ip], #-2421	; 0xfffff68b
    1a1c:	77656e2f 	strbvc	r6, [r5, -pc, lsr #28]!
    1a20:	2d62696c 	stclcs	9, cr6, [r2, #-432]!	; 0xfffffe50
    1a24:	70777a35 	rsbsvc	r7, r7, r5, lsr sl
    1a28:	6e2f4578 	mcrvs	5, 1, r4, cr15, cr8, {3}
    1a2c:	696c7765 	stmdbvs	ip!, {r0, r2, r5, r6, r8, r9, sl, ip, sp, lr}^
    1a30:	2e322d62 	cdpcs	13, 3, cr2, cr2, cr2, {3}
    1a34:	2b302e32 	blcs	c0d304 <_Min_Stack_Size+0xc0cf04>
    1a38:	32746967 	rsbscc	r6, r4, #1687552	; 0x19c000
    1a3c:	30353130 	eorscc	r3, r5, r0, lsr r1
    1a40:	2e303338 	mrccs	3, 1, r3, cr0, cr8, {1}
    1a44:	64336135 	ldrtvs	r6, [r3], #-309	; 0xfffffecb
    1a48:	2f363335 	svccs	0x00363335
    1a4c:	6c77656e 	cfldr64vs	mvdx6, [r7], #-440	; 0xfffffe48
    1a50:	6c2f6269 	sfmvs	f6, 4, [pc], #-420	; 18b4 <_Min_Stack_Size+0x14b4>
    1a54:	2f636269 	svccs	0x00636269
    1a58:	6c636e69 	stclvs	14, cr6, [r3], #-420	; 0xfffffe5c
    1a5c:	00656475 	rsbeq	r6, r5, r5, ror r4
    1a60:	615f5f00 	cmpvs	pc, r0, lsl #30
    1a64:	69786574 	ldmdbvs	r8!, {r2, r4, r5, r6, r8, sl, sp, lr}^
    1a68:	00632e74 	rsbeq	r2, r3, r4, ror lr
    1a6c:	73000001 	movwvc	r0, #1
    1a70:	65646474 	strbvs	r6, [r4, #-1140]!	; 0xfffffb8c
    1a74:	00682e66 	rsbeq	r2, r8, r6, ror #28
    1a78:	6c000002 	stcvs	0, cr0, [r0], {2}
    1a7c:	2e6b636f 	cdpcs	3, 6, cr6, cr11, cr15, {3}
    1a80:	00030068 	andeq	r0, r3, r8, rrx
    1a84:	79745f00 	ldmdbvc	r4!, {r8, r9, sl, fp, ip, lr}^
    1a88:	2e736570 	mrccs	5, 3, r6, cr3, cr0, {3}
    1a8c:	00030068 	andeq	r0, r3, r8, rrx
    1a90:	65657200 	strbvs	r7, [r5, #-512]!	; 0xfffffe00
    1a94:	682e746e 	stmdavs	lr!, {r1, r2, r3, r5, r6, sl, ip, sp, lr}
    1a98:	00000300 	andeq	r0, r0, r0, lsl #6
    1a9c:	78657461 	stmdavc	r5!, {r0, r5, r6, sl, ip, sp, lr}^
    1aa0:	682e7469 	stmdavs	lr!, {r0, r3, r5, r6, sl, ip, sp, lr}
    1aa4:	00000100 	andeq	r0, r0, r0, lsl #2
    1aa8:	6c647473 	cfstrdvs	mvd7, [r4], #-460	; 0xfffffe34
    1aac:	682e6269 	stmdavs	lr!, {r0, r3, r5, r6, r9, sp, lr}
    1ab0:	00000400 	andeq	r0, r0, r0, lsl #8
    1ab4:	02050000 	andeq	r0, r5, #0
    1ab8:	080011a4 	stmdaeq	r0, {r2, r5, r7, r8, ip}
    1abc:	0100c703 	tsteq	r0, r3, lsl #14
    1ac0:	2078036e 	rsbscs	r0, r8, lr, ror #6
    1ac4:	3c780328 	ldclcc	3, cr0, [r8], #-160	; 0xffffff60
    1ac8:	20780328 	rsbscs	r0, r8, r8, lsr #6
    1acc:	302e0903 	eorcc	r0, lr, r3, lsl #18
    1ad0:	034a1e03 	movteq	r1, #44547	; 0xae03
    1ad4:	214e2e1d 	cmpcs	lr, sp, lsl lr
    1ad8:	3f664703 	svccc	0x00664703
    1adc:	211f364b 	tstcs	pc, fp, asr #12
    1ae0:	2221212d 	eorcs	r2, r1, #1073741835	; 0x4000000b
    1ae4:	1703432f 	strne	r4, [r3, -pc, lsr #6]
    1ae8:	59d74b58 	ldmibpl	r7, {r3, r4, r6, r8, r9, fp, lr}^
    1aec:	8246032f 	subhi	r0, r6, #-1140850688	; 0xbc000000
    1af0:	02580903 	subseq	r0, r8, #49152	; 0xc000
    1af4:	01010008 	tsteq	r1, r8
    1af8:	000001d5 	ldrdeq	r0, [r0], -r5
    1afc:	01450002 	cmpeq	r5, r2
    1b00:	01020000 	mrseq	r0, (UNDEF: 2)
    1b04:	000d0efb 	strdeq	r0, [sp], -fp
    1b08:	01010101 	tsteq	r1, r1, lsl #2
    1b0c:	01000000 	mrseq	r0, (UNDEF: 0)
    1b10:	2e010000 	cdpcs	0, 0, cr0, cr1, cr0, {0}
    1b14:	2e2e2f2e 	cdpcs	15, 2, cr2, cr14, cr14, {1}
    1b18:	2f2e2e2f 	svccs	0x002e2e2f
    1b1c:	2e2f2e2e 	cdpcs	14, 2, cr2, cr15, cr14, {1}
    1b20:	2e2e2f2e 	cdpcs	15, 2, cr2, cr14, cr14, {1}
    1b24:	77656e2f 	strbvc	r6, [r5, -pc, lsr #28]!
    1b28:	2f62696c 	svccs	0x0062696c
    1b2c:	6362696c 	cmnvs	r2, #108, 18	; 0x1b0000
    1b30:	6474732f 	ldrbtvs	r7, [r4], #-815	; 0xfffffcd1
    1b34:	0062696c 	rsbeq	r6, r2, ip, ror #18
    1b38:	6975622f 	ldmdbvs	r5!, {r0, r1, r2, r3, r5, r9, sp, lr}^
    1b3c:	6e2f646c 	cdpvs	4, 2, cr6, cr15, cr12, {3}
    1b40:	696c7765 	stmdbvs	ip!, {r0, r2, r5, r6, r8, r9, sl, ip, sp, lr}^
    1b44:	7a352d62 	bvc	d4d0d4 <_Min_Stack_Size+0xd4ccd4>
    1b48:	45787077 	ldrbmi	r7, [r8, #-119]!	; 0xffffff89
    1b4c:	77656e2f 	strbvc	r6, [r5, -pc, lsr #28]!
    1b50:	2d62696c 	stclcs	9, cr6, [r2, #-432]!	; 0xfffffe50
    1b54:	2e322e32 	mrccs	14, 1, r2, cr2, cr2, {1}
    1b58:	69672b30 	stmdbvs	r7!, {r4, r5, r8, r9, fp, sp}^
    1b5c:	31303274 	teqcc	r0, r4, ror r2
    1b60:	33383035 	teqcc	r8, #53	; 0x35
    1b64:	61352e30 	teqvs	r5, r0, lsr lr
    1b68:	33356433 	teqcc	r5, #855638016	; 0x33000000
    1b6c:	656e2f36 	strbvs	r2, [lr, #-3894]!	; 0xfffff0ca
    1b70:	62696c77 	rsbvs	r6, r9, #30464	; 0x7700
    1b74:	62696c2f 	rsbvs	r6, r9, #12032	; 0x2f00
    1b78:	6e692f63 	cdpvs	15, 6, cr2, cr9, cr3, {3}
    1b7c:	64756c63 	ldrbtvs	r6, [r5], #-3171	; 0xfffff39d
    1b80:	79732f65 	ldmdbvc	r3!, {r0, r2, r5, r6, r8, r9, sl, fp, sp}^
    1b84:	752f0073 	strvc	r0, [pc, #-115]!	; 1b19 <_Min_Stack_Size+0x1719>
    1b88:	6c2f7273 	sfmvs	f7, 4, [pc], #-460	; 19c4 <_Min_Stack_Size+0x15c4>
    1b8c:	672f6269 	strvs	r6, [pc, -r9, ror #4]!
    1b90:	612f6363 			; <UNDEFINED> instruction: 0x612f6363
    1b94:	6e2d6d72 	mcrvs	13, 1, r6, cr13, cr2, {3}
    1b98:	2d656e6f 	stclcs	14, cr6, [r5, #-444]!	; 0xfffffe44
    1b9c:	69626165 	stmdbvs	r2!, {r0, r2, r5, r6, r8, sp, lr}^
    1ba0:	392e342f 	stmdbcc	lr!, {r0, r1, r2, r3, r5, sl, ip, sp}
    1ba4:	692f332e 	stmdbvs	pc!, {r1, r2, r3, r5, r8, r9, ip, sp}	; <UNPREDICTABLE>
    1ba8:	756c636e 	strbvc	r6, [ip, #-878]!	; 0xfffffc92
    1bac:	2f006564 	svccs	0x00006564
    1bb0:	6c697562 	cfstr64vs	mvdx7, [r9], #-392	; 0xfffffe78
    1bb4:	656e2f64 	strbvs	r2, [lr, #-3940]!	; 0xfffff09c
    1bb8:	62696c77 	rsbvs	r6, r9, #30464	; 0x7700
    1bbc:	777a352d 	ldrbvc	r3, [sl, -sp, lsr #10]!
    1bc0:	2f457870 	svccs	0x00457870
    1bc4:	6c77656e 	cfldr64vs	mvdx6, [r7], #-440	; 0xfffffe48
    1bc8:	322d6269 	eorcc	r6, sp, #-1879048186	; 0x90000006
    1bcc:	302e322e 	eorcc	r3, lr, lr, lsr #4
    1bd0:	7469672b 	strbtvc	r6, [r9], #-1835	; 0xfffff8d5
    1bd4:	35313032 	ldrcc	r3, [r1, #-50]!	; 0xffffffce
    1bd8:	30333830 	eorscc	r3, r3, r0, lsr r8
    1bdc:	3361352e 	cmncc	r1, #192937984	; 0xb800000
    1be0:	36333564 	ldrtcc	r3, [r3], -r4, ror #10
    1be4:	77656e2f 	strbvc	r6, [r5, -pc, lsr #28]!
    1be8:	2f62696c 	svccs	0x0062696c
    1bec:	6362696c 	cmnvs	r2, #108, 18	; 0x1b0000
    1bf0:	636e692f 	cmnvs	lr, #770048	; 0xbc000
    1bf4:	6564756c 	strbvs	r7, [r4, #-1388]!	; 0xfffffa94
    1bf8:	5f5f0000 	svcpl	0x005f0000
    1bfc:	6c6c6163 	stfvse	f6, [ip], #-396	; 0xfffffe74
    1c00:	6574615f 	ldrbvs	r6, [r4, #-351]!	; 0xfffffea1
    1c04:	2e746978 	mrccs	9, 3, r6, cr4, cr8, {3}
    1c08:	00010063 	andeq	r0, r1, r3, rrx
    1c0c:	636f6c00 	cmnvs	pc, #0, 24
    1c10:	00682e6b 	rsbeq	r2, r8, fp, ror #28
    1c14:	5f000002 	svcpl	0x00000002
    1c18:	65707974 	ldrbvs	r7, [r0, #-2420]!	; 0xfffff68c
    1c1c:	00682e73 	rsbeq	r2, r8, r3, ror lr
    1c20:	73000002 	movwvc	r0, #2
    1c24:	65646474 	strbvs	r6, [r4, #-1140]!	; 0xfffffb8c
    1c28:	00682e66 	rsbeq	r2, r8, r6, ror #28
    1c2c:	72000003 	andvc	r0, r0, #3
    1c30:	746e6565 	strbtvc	r6, [lr], #-1381	; 0xfffffa9b
    1c34:	0200682e 	andeq	r6, r0, #3014656	; 0x2e0000
    1c38:	74730000 	ldrbtvc	r0, [r3], #-0
    1c3c:	62696c64 	rsbvs	r6, r9, #100, 24	; 0x6400
    1c40:	0400682e 	streq	r6, [r0], #-2094	; 0xfffff7d2
    1c44:	00000000 	andeq	r0, r0, r0
    1c48:	12780205 	rsbsne	r0, r8, #1342177280	; 0x50000000
    1c4c:	2d030800 	stccs	8, cr0, [r3, #-0]
    1c50:	423f2101 	eorsmi	r2, pc, #1073741824	; 0x40000000
    1c54:	01000502 	tsteq	r0, r2, lsl #10
    1c58:	02050001 	andeq	r0, r5, #1
    1c5c:	00000000 	andeq	r0, r0, r0
    1c60:	0100c303 	tsteq	r0, r3, lsl #6
    1c64:	6600c403 	strvs	ip, [r0], -r3, lsl #8
    1c68:	2e7fbc03 	cdpcs	12, 7, cr11, cr15, cr3, {0}
    1c6c:	580f032e 	stmdapl	pc, {r1, r2, r3, r5, r8, r9}	; <UNPREDICTABLE>
    1c70:	4a17034c 	bmi	5c29a8 <_Min_Stack_Size+0x5c25a8>
    1c74:	682e0903 	stmdavs	lr!, {r0, r1, r8, fp}
    1c78:	033c6503 	teqeq	ip, #12582912	; 0xc00000
    1c7c:	6503201b 	strvs	r2, [r3, #-27]	; 0xffffffe5
    1c80:	0402003c 	streq	r0, [r2], #-60	; 0xffffffc4
    1c84:	79035f02 	stmdbvc	r3, {r1, r8, r9, sl, fp, ip, lr}
    1c88:	1f34354a 	svcne	0x0034354a
    1c8c:	31313f21 	teqcc	r1, r1, lsr #30
    1c90:	6e031d23 	cdpvs	13, 0, cr1, cr3, cr3, {1}
    1c94:	2e150320 	cdpcs	3, 1, cr0, cr5, cr0, {1}
    1c98:	2009034b 	andcs	r0, r9, fp, asr #6
    1c9c:	01040200 	mrseq	r0, R12_usr
    1ca0:	03063c06 	movweq	r3, #27654	; 0x6c06
    1ca4:	2c03585d 	stccs	8, cr5, [r3], {93}	; 0x5d
    1ca8:	0200412e 	andeq	r4, r0, #-2147483637	; 0x8000000b
    1cac:	3c060104 	stfccs	f0, [r6], {4}
    1cb0:	1b253f06 	blne	9518d0 <_Min_Stack_Size+0x9514d0>
    1cb4:	bf032f25 	svclt	0x00032f25
    1cb8:	ce032e7f 	mcrgt	14, 0, r2, cr3, cr15, {3}
    1cbc:	54032e00 	strpl	r2, [r3], #-3584	; 0xfffff200
    1cc0:	72036774 	andvc	r6, r3, #116, 14	; 0x1d00000
    1cc4:	4a10034a 	bmi	4029f4 <_Min_Stack_Size+0x4025f4>
    1cc8:	214a2003 	cmpcs	sl, r3
    1ccc:	01000802 	tsteq	r0, r2, lsl #16
    1cd0:	Address 0x0000000000001cd0 is out of bounds.


Disassembly of section .debug_str:

00000000 <.debug_str>:
       0:	43495348 	movtmi	r5, #37704	; 0x9348
       4:	62696c61 	rsbvs	r6, r9, #24832	; 0x6100
       8:	69746172 	ldmdbvs	r4!, {r1, r4, r5, r6, r8, sp, lr}^
       c:	61566e6f 	cmpvs	r6, pc, ror #28
      10:	0065756c 	rsbeq	r7, r5, ip, ror #10
      14:	31495348 	cmpcc	r9, r8, asr #6
      18:	6c614334 	stclvs	3, cr4, [r1], #-208	; 0xffffff30
      1c:	61726269 	cmnvs	r2, r9, ror #4
      20:	6e6f6974 	mcrvs	9, 3, r6, cr15, cr4, {3}
      24:	756c6156 	strbvc	r6, [ip, #-342]!	; 0xfffffeaa
      28:	50410065 	subpl	r0, r1, r5, rrx
      2c:	4e453142 	dvfmism	f3, f5, f2
      30:	58450052 	stmdapl	r5, {r1, r4, r6}^
      34:	5f344954 	svcpl	0x00344954
      38:	495f3531 	ldmdbmi	pc, {r0, r4, r5, r8, sl, ip, sp}^	; <UNPREDICTABLE>
      3c:	006e5152 	rsbeq	r5, lr, r2, asr r1
      40:	52525342 	subspl	r5, r2, #134217729	; 0x8000001
      44:	54584500 	ldrbpl	r4, [r8], #-1280	; 0xfffffb00
      48:	335f3249 	cmpcc	pc, #-1879048188	; 0x90000004
      4c:	5152495f 	cmppl	r2, pc, asr r9
      50:	5041006e 	subpl	r0, r1, lr, rrx
      54:	53523242 	cmppl	r2, #536870916	; 0x20000004
      58:	50005254 	andpl	r5, r0, r4, asr r2
      5c:	74534c4c 	ldrbvc	r4, [r3], #-3148	; 0xfffff3b4
      60:	00657461 	rsbeq	r7, r5, r1, ror #8
      64:	5f435653 	svcpl	0x00435653
      68:	6e515249 	cdpvs	2, 5, cr5, cr1, cr9, {2}
      6c:	63734f00 	cmnvs	r3, #0, 30
      70:	616c6c69 	cmnvs	ip, r9, ror #24
      74:	54726f74 	ldrbtpl	r6, [r2], #-3956	; 0xfffff08c
      78:	00657079 	rsbeq	r7, r5, r9, ror r0
      7c:	43535953 	cmpmi	r3, #1359872	; 0x14c000
      80:	6f534b4c 	svcvs	0x00534b4c
      84:	65637275 	strbvs	r7, [r3, #-629]!	; 0xfffffd8b
      88:	4d495400 	cfstrdmi	mvd5, [r9, #-0]
      8c:	495f3631 	ldmdbmi	pc, {r0, r4, r5, r9, sl, ip, sp}^	; <UNPREDICTABLE>
      90:	006e5152 	rsbeq	r5, lr, r2, asr r1
      94:	5f4c4148 	svcpl	0x004c4148
      98:	59535542 	ldmdbpl	r3, {r1, r6, r8, sl, ip, lr}^
      9c:	43444200 	movtmi	r4, #16896	; 0x4200
      a0:	4c460052 	mcrrmi	0, 5, r0, r6, cr2
      a4:	5f485341 	svcpl	0x00485341
      a8:	6e515249 	cdpvs	2, 5, cr5, cr1, cr9, {2}
      ac:	43435200 	movtmi	r5, #12800	; 0x3200
      b0:	6b6c435f 	blvs	1b10e34 <_Min_Stack_Size+0x1b10a34>
      b4:	74696e49 	strbtvc	r6, [r9], #-3657	; 0xfffff1b7
      b8:	65707954 	ldrbvs	r7, [r0, #-2388]!	; 0xfffff6ac
      bc:	00666544 	rsbeq	r6, r6, r4, asr #10
      c0:	49545845 	ldmdbmi	r4, {r0, r2, r6, fp, ip, lr}^
      c4:	5f315f30 	svcpl	0x00315f30
      c8:	6e515249 	cdpvs	2, 5, cr5, cr1, cr9, {2}
      cc:	72724500 	rsbsvc	r4, r2, #0, 10
      d0:	485f726f 	ldmdami	pc, {r0, r1, r2, r3, r5, r6, r9, ip, sp, lr}^	; <UNPREDICTABLE>
      d4:	6c646e61 	stclvs	14, cr6, [r4], #-388	; 0xfffffe7c
      d8:	52007265 	andpl	r7, r0, #1342177286	; 0x50000006
      dc:	435f4343 	cmpmi	pc, #201326593	; 0xc000001
      e0:	6e496b6c 	vmlsvs.f64	d22, d9, d28
      e4:	74537469 	ldrbvc	r7, [r3], #-1129	; 0xfffffb97
      e8:	74637572 	strbtvc	r7, [r3], #-1394	; 0xfffffa8e
      ec:	43324900 	teqmi	r2, #0, 18
      f0:	52495f31 	subpl	r5, r9, #49, 30	; 0xc4
      f4:	50006e51 	andpl	r6, r0, r1, asr lr
      f8:	53646e65 	cmnpl	r4, #1616	; 0x650
      fc:	52495f56 	subpl	r5, r9, #344	; 0x158
     100:	42006e51 	andmi	r6, r0, #1296	; 0x510
     104:	4c5f5053 	mrrcmi	0, 5, r5, pc, cr3	; <UNPREDICTABLE>
     108:	495f4445 	ldmdbmi	pc, {r0, r2, r6, sl, lr}^	; <UNPREDICTABLE>
     10c:	0074696e 	rsbseq	r6, r4, lr, ror #18
     110:	5f4c4148 	svcpl	0x004c4148
     114:	454d4954 	strbmi	r4, [sp, #-2388]	; 0xfffff6ac
     118:	0054554f 	subseq	r5, r4, pc, asr #10
     11c:	5f4c4148 	svcpl	0x004c4148
     120:	4349564e 	movtmi	r5, #38478	; 0x964e
     124:	7465535f 	strbtvc	r5, [r5], #-863	; 0xfffffca1
     128:	6f697250 	svcvs	0x00697250
     12c:	79746972 	ldmdbvc	r4!, {r1, r4, r5, r6, r8, fp, sp, lr}^
     130:	44454c00 	strbmi	r4, [r5], #-3072	; 0xfffff400
     134:	48410036 	stmdami	r1, {r1, r2, r4, r5}^
     138:	54535242 	ldrbpl	r5, [r3], #-578	; 0xfffffdbe
     13c:	50410052 	subpl	r0, r1, r2, asr r0
     140:	4c433142 	stfmie	f3, [r3], {66}	; 0x42
     144:	7669444b 	strbtvc	r4, [r9], -fp, asr #8
     148:	72656469 	rsbvc	r6, r5, #1761607680	; 0x69000000
     14c:	44565000 	ldrbmi	r5, [r6], #-0
     150:	4444565f 	strbmi	r5, [r4], #-1631	; 0xfffff9a1
     154:	5f324f49 	svcpl	0x00324f49
     158:	6e515249 	cdpvs	2, 5, cr5, cr1, cr9, {2}
     15c:	49505300 	ldmdbmi	r0, {r8, r9, ip, lr}^
     160:	52495f31 	subpl	r5, r9, #49, 30	; 0xc4
     164:	48006e51 	stmdami	r0, {r0, r4, r6, r9, sl, fp, sp, lr}
     168:	4e5f4c41 	cdpmi	12, 5, cr4, cr15, cr1, {2}
     16c:	5f434956 	svcpl	0x00434956
     170:	62616e45 	rsbvs	r6, r1, #1104	; 0x450
     174:	5249656c 	subpl	r6, r9, #108, 10	; 0x1b000000
     178:	682f0051 	stmdavs	pc!, {r0, r4, r6}	; <UNPREDICTABLE>
     17c:	2f656d6f 	svccs	0x00656d6f
     180:	69726861 	ldmdbvs	r2!, {r0, r5, r6, fp, sp, lr}^
     184:	72672f73 	rsbvc	r2, r7, #460	; 0x1cc
     188:	2f657669 	svccs	0x00657669
     18c:	756e696c 	strbvc	r6, [lr, #-2412]!	; 0xfffff694
     190:	64612f78 	strbtvs	r2, [r1], #-3960	; 0xfffff088
     194:	5f746c75 	svcpl	0x00746c75
     198:	6b726f77 	blvs	1c9bf7c <_Min_Stack_Size+0x1c9bb7c>
     19c:	6d61742f 	cfstrdvs	mvd7, [r1, #-188]!	; 0xffffff44
     1a0:	646f6761 	strbtvs	r6, [pc], #-1889	; 1a8 <_Min_Heap_Size-0x58>
     1a4:	48006961 	stmdami	r0, {r0, r5, r6, r8, fp, sp, lr}
     1a8:	455f4c41 	ldrbmi	r4, [pc, #-3137]	; fffff56f <_estack+0xdfffb56f>
     1ac:	524f5252 	subpl	r5, pc, #536870917	; 0x20000005
     1b0:	6e6f6c00 	cdpvs	12, 6, cr6, cr15, cr0, {0}
     1b4:	6f6c2067 	svcvs	0x006c2067
     1b8:	7520676e 	strvc	r6, [r0, #-1902]!	; 0xfffff892
     1bc:	6769736e 	strbvs	r7, [r9, -lr, ror #6]!
     1c0:	2064656e 	rsbcs	r6, r4, lr, ror #10
     1c4:	00746e69 	rsbseq	r6, r4, r9, ror #28
     1c8:	69755f5f 	ldmdbvs	r5!, {r0, r1, r2, r3, r4, r6, r8, r9, sl, fp, ip, lr}^
     1cc:	3631746e 	ldrtcc	r7, [r1], -lr, ror #8
     1d0:	4500745f 	strmi	r7, [r0, #-1119]	; 0xfffffba1
     1d4:	30495458 	subcc	r5, r9, r8, asr r4
     1d8:	495f315f 	ldmdbmi	pc, {r0, r1, r2, r3, r4, r6, r8, ip, sp}^	; <UNPREDICTABLE>
     1dc:	61485152 	cmpvs	r8, r2, asr r1
     1e0:	656c646e 	strbvs	r6, [ip, #-1134]!	; 0xfffffb92
     1e4:	6f435f72 	svcvs	0x00435f72
     1e8:	6769666e 	strbvs	r6, [r9, -lr, ror #12]!
     1ec:	444f4d00 	strbmi	r4, [pc], #-3328	; 1f4 <_Min_Heap_Size-0xc>
     1f0:	48005245 	stmdami	r0, {r0, r2, r6, r9, ip, lr}
     1f4:	4f5f4c41 	svcmi	0x005f4c41
     1f8:	454c004b 	strbmi	r0, [ip, #-75]	; 0xffffffb5
     1fc:	4c003344 	stcmi	3, cr3, [r0], {68}	; 0x44
     200:	00344445 	eorseq	r4, r4, r5, asr #8
     204:	3544454c 	strbcc	r4, [r4, #-1356]	; 0xfffffab4
     208:	49534800 	ldmdbmi	r3, {fp, lr}^
     20c:	74617453 	strbtvc	r7, [r1], #-1107	; 0xfffffbad
     210:	52490065 	subpl	r0, r9, #101	; 0x65
     214:	545f6e51 	ldrbpl	r6, [pc], #-3665	; 21c <_Min_Heap_Size+0x1c>
     218:	00657079 	rsbeq	r7, r5, r9, ror r0
     21c:	5f434352 	svcpl	0x00434352
     220:	494c4c50 	stmdbmi	ip, {r4, r6, sl, fp, lr}^
     224:	5474696e 	ldrbtpl	r6, [r4], #-2414	; 0xfffff692
     228:	44657079 	strbtmi	r7, [r5], #-121	; 0xffffff87
     22c:	50006665 	andpl	r6, r0, r5, ror #12
     230:	006c6c75 	rsbeq	r6, ip, r5, ror ip
     234:	52415355 	subpl	r5, r1, #1409286145	; 0x54000001
     238:	495f3254 	ldmdbmi	pc, {r2, r4, r6, r9, ip, sp}^	; <UNPREDICTABLE>
     23c:	006e5152 	rsbeq	r5, lr, r2, asr r1
     240:	72706d74 	rsbsvc	r6, r0, #116, 26	; 0x1d00
     244:	52006765 	andpl	r6, r0, #26476544	; 0x1940000
     248:	545f4343 	ldrbpl	r4, [pc], #-835	; 250 <_Min_Heap_Size+0x50>
     24c:	44657079 	strbtmi	r7, [r5], #-121	; 0xffffff87
     250:	4c006665 	stcmi	6, cr6, [r0], {101}	; 0x65
     254:	74534553 	ldrbvc	r4, [r3], #-1363	; 0xfffffaad
     258:	00657461 	rsbeq	r7, r5, r1, ror #8
     25c:	20554e47 	subscs	r4, r5, r7, asr #28
     260:	2e342043 	cdpcs	0, 3, cr2, cr4, cr3, {2}
     264:	20332e39 	eorscs	r2, r3, r9, lsr lr
     268:	35313032 	ldrcc	r3, [r1, #-50]!	; 0xffffffce
     26c:	39323530 	ldmdbcc	r2!, {r4, r5, r8, sl, ip, sp}
     270:	72702820 	rsbsvc	r2, r0, #32, 16	; 0x200000
     274:	6c657265 	sfmvs	f7, 2, [r5], #-404	; 0xfffffe6c
     278:	65736165 	ldrbvs	r6, [r3, #-357]!	; 0xfffffe9b
     27c:	6d2d2029 	stcvs	0, cr2, [sp, #-164]!	; 0xffffff5c
     280:	7474696c 	ldrbtvc	r6, [r4], #-2412	; 0xfffff694
     284:	652d656c 	strvs	r6, [sp, #-1388]!	; 0xfffffa94
     288:	6169646e 	cmnvs	r9, lr, ror #8
     28c:	6d2d206e 	stcvs	0, cr2, [sp, #-440]!	; 0xfffffe48
     290:	3d757063 	ldclcc	0, cr7, [r5, #-396]!	; 0xfffffe74
     294:	74726f63 	ldrbtvc	r6, [r2], #-3939	; 0xfffff09d
     298:	6d2d7865 	stcvs	8, cr7, [sp, #-404]!	; 0xfffffe6c
     29c:	6d2d2030 	stcvs	0, cr2, [sp, #-192]!	; 0xffffff40
     2a0:	6d756874 	ldclvs	8, cr6, [r5, #-464]!	; 0xfffffe30
     2a4:	672d2062 	strvs	r2, [sp, -r2, rrx]!
     2a8:	734f2d20 	movtvc	r2, #64800	; 0xfd20
     2ac:	74732d20 	ldrbtvc	r2, [r3], #-3360	; 0xfffff2e0
     2b0:	31633d64 	cmncc	r3, r4, ror #26
     2b4:	662d2031 			; <UNDEFINED> instruction: 0x662d2031
     2b8:	636e7566 	cmnvs	lr, #427819008	; 0x19800000
     2bc:	6e6f6974 	mcrvs	9, 3, r6, cr15, cr4, {3}
     2c0:	6365732d 	cmnvs	r5, #-1275068416	; 0xb4000000
     2c4:	6e6f6974 	mcrvs	9, 3, r6, cr15, cr4, {3}
     2c8:	662d2073 			; <UNDEFINED> instruction: 0x662d2073
     2cc:	61746164 	cmnvs	r4, r4, ror #2
     2d0:	6365732d 	cmnvs	r5, #-1275068416	; 0xb4000000
     2d4:	6e6f6974 	mcrvs	9, 3, r6, cr15, cr4, {3}
     2d8:	55500073 	ldrbpl	r0, [r0, #-115]	; 0xffffff8d
     2dc:	00524450 	subseq	r4, r2, r0, asr r4
     2e0:	31425041 	cmpcc	r2, r1, asr #32
     2e4:	52545352 	subspl	r5, r4, #1207959553	; 0x48000001
     2e8:	45525000 	ldrbmi	r5, [r2, #-0]
     2ec:	00564944 	subseq	r4, r6, r4, asr #18
     2f0:	334d4954 	movtcc	r4, #55636	; 0xd954
     2f4:	5152495f 	cmppl	r2, pc, asr r9
     2f8:	7053006e 	subsvc	r0, r3, lr, rrx
     2fc:	00646565 	rsbeq	r6, r4, r5, ror #10
     300:	31414d44 	cmpcc	r1, r4, asr #26
     304:	6168435f 	cmnvs	r8, pc, asr r3
     308:	6c656e6e 	stclvs	14, cr6, [r5], #-440	; 0xfffffe48
     30c:	52495f31 	subpl	r5, r9, #49, 30	; 0xc4
     310:	41006e51 	tstmi	r0, r1, asr lr
     314:	4e454248 	cdpmi	2, 4, cr4, cr5, cr8, {2}
     318:	49540052 	ldmdbmi	r4, {r1, r4, r6}^
     31c:	5f35314d 	svcpl	0x0035314d
     320:	6e515249 	cdpvs	2, 5, cr5, cr1, cr9, {2}
     324:	4c4c5000 	marmi	acc0, r5, ip
     328:	004c554d 	subeq	r5, ip, sp, asr #10
     32c:	676e6f6c 	strbvs	r6, [lr, -ip, ror #30]!
     330:	6e6f6c20 	cdpvs	12, 6, cr6, cr15, cr0, {1}
     334:	6e692067 	cdpvs	0, 6, cr2, cr9, cr7, {3}
     338:	57570074 			; <UNDEFINED> instruction: 0x57570074
     33c:	495f4744 	ldmdbmi	pc, {r2, r6, r8, r9, sl, lr}^	; <UNPREDICTABLE>
     340:	006e5152 	rsbeq	r5, lr, r2, asr r1
     344:	5f4c4148 	svcpl	0x004c4148
     348:	74696e49 	strbtvc	r6, [r9], #-3657	; 0xfffff1b7
     34c:	43435200 	movtmi	r5, #12800	; 0x3200
     350:	63734f5f 	cmnvs	r3, #380	; 0x17c
     354:	74696e49 	strbtvc	r6, [r9], #-3657	; 0xfffff1b7
     358:	65707954 	ldrbvs	r7, [r0, #-2388]!	; 0xfffff6ac
     35c:	00666544 	rsbeq	r6, r6, r4, asr #10
     360:	65737361 	ldrbvs	r7, [r3, #-865]!	; 0xfffffc9f
     364:	665f7472 			; <UNDEFINED> instruction: 0x665f7472
     368:	656c6961 	strbvs	r6, [ip, #-2401]!	; 0xfffff69f
     36c:	4d440064 	stclmi	0, cr0, [r4, #-400]	; 0xfffffe70
     370:	435f3141 	cmpmi	pc, #1073741840	; 0x40000010
     374:	6e6e6168 	powvsez	f6, f6, #0.0
     378:	5f346c65 	svcpl	0x00346c65
     37c:	5f365f35 	svcpl	0x00365f35
     380:	52495f37 	subpl	r5, r9, #55, 30	; 0xdc
     384:	48006e51 	stmdami	r0, {r0, r4, r6, r9, sl, fp, sp, lr}
     388:	525f4c41 	subspl	r4, pc, #16640	; 0x4100
     38c:	4f5f4343 	svcmi	0x005f4343
     390:	6f436373 	svcvs	0x00436373
     394:	6769666e 	strbvs	r6, [r9, -lr, ror #12]!
     398:	4d495400 	cfstrdmi	mvd5, [r9, #-0]
     39c:	52425f31 	subpl	r5, r2, #49, 30	; 0xc4
     3a0:	50555f4b 	subspl	r5, r5, fp, asr #30
     3a4:	4752545f 			; <UNDEFINED> instruction: 0x4752545f
     3a8:	4d4f435f 	stclmi	3, cr4, [pc, #-380]	; 234 <_Min_Heap_Size+0x34>
     3ac:	5152495f 	cmppl	r2, pc, asr r9
     3b0:	5047006e 	subpl	r0, r7, lr, rrx
     3b4:	495f4f49 	ldmdbmi	pc, {r0, r3, r6, r8, r9, sl, fp, lr}^	; <UNPREDICTABLE>
     3b8:	5374696e 	cmnpl	r4, #1802240	; 0x1b8000
     3bc:	63757274 	cmnvs	r5, #116, 4	; 0x40000007
     3c0:	65727574 	ldrbvs	r7, [r2, #-1396]!	; 0xfffffa8c
     3c4:	42535500 	subsmi	r5, r3, #0, 10
     3c8:	5152495f 	cmppl	r2, pc, asr r9
     3cc:	4643006e 	strbmi	r0, [r3], -lr, rrx
     3d0:	00325247 	eorseq	r5, r2, r7, asr #4
     3d4:	52474643 	subpl	r4, r7, #70254592	; 0x4300000
     3d8:	44410033 	strbmi	r0, [r1], #-51	; 0xffffffcd
     3dc:	435f3143 	cmpmi	pc, #-1073741808	; 0xc0000010
     3e0:	5f504d4f 	svcpl	0x00504d4f
     3e4:	6e515249 	cdpvs	2, 5, cr5, cr1, cr9, {2}
     3e8:	42504100 	subsmi	r4, r0, #0, 2
     3ec:	524e4532 	subpl	r4, lr, #209715200	; 0xc800000
     3f0:	4c414800 	mcrrmi	8, 0, r4, r1, cr0
     3f4:	6174535f 	cmnvs	r4, pc, asr r3
     3f8:	54737574 	ldrbtpl	r7, [r3], #-1396	; 0xfffffa8c
     3fc:	44657079 	strbtmi	r7, [r5], #-121	; 0xffffff87
     400:	4f006665 	svcmi	0x00006665
     404:	45455053 	strbmi	r5, [r5, #-83]	; 0xffffffad
     408:	6c005244 	sfmvs	f5, 4, [r0], {68}	; 0x44
     40c:	20676e6f 	rsbcs	r6, r7, pc, ror #28
     410:	62756f64 	rsbsvs	r6, r5, #100, 30	; 0x190
     414:	5200656c 	andpl	r6, r0, #108, 10	; 0x1b000000
     418:	495f4354 	ldmdbmi	pc, {r2, r4, r6, r8, r9, lr}^	; <UNPREDICTABLE>
     41c:	006e5152 	rsbeq	r5, lr, r2, asr r1
     420:	657a6973 	ldrbvs	r6, [sl, #-2419]!	; 0xfffff68d
     424:	65707974 	ldrbvs	r7, [r0, #-2420]!	; 0xfffff68c
     428:	746c4100 	strbtvc	r4, [ip], #-256	; 0xffffff00
     42c:	616e7265 	cmnvs	lr, r5, ror #4
     430:	73006574 	movwvc	r6, #1396	; 0x574
     434:	74726f68 	ldrbtvc	r6, [r2], #-3944	; 0xfffff098
     438:	746e6920 	strbtvc	r6, [lr], #-2336	; 0xfffff6e0
     43c:	43454300 	movtmi	r4, #21248	; 0x5300
     440:	4e41435f 	mcrmi	3, 2, r4, cr1, cr15, {2}
     444:	5152495f 	cmppl	r2, pc, asr r9
     448:	4148006e 	cmpmi	r8, lr, rrx
     44c:	43525f4c 	cmpmi	r2, #76, 30	; 0x130
     450:	6c435f43 	mcrrvs	15, 4, r5, r3, cr3
     454:	436b636f 	cmnmi	fp, #-1140850687	; 0xbc000001
     458:	69666e6f 	stmdbvs	r6!, {r0, r1, r2, r3, r5, r6, r9, sl, fp, sp, lr}^
     45c:	53550067 	cmppl	r5, #103	; 0x67
     460:	31545241 	cmpcc	r4, r1, asr #4
     464:	5152495f 	cmppl	r2, pc, asr r9
     468:	534c006e 	movtpl	r0, #49262	; 0xc06e
     46c:	61745349 	cmnvs	r4, r9, asr #6
     470:	4e006574 	cfrshl64mi	mvdx0, mvdx4, r6
     474:	614d6e6f 	cmpvs	sp, pc, ror #28
     478:	62616b73 	rsbvs	r6, r1, #117760	; 0x1cc00
     47c:	6e49656c 	cdpvs	5, 4, cr6, cr9, cr12, {3}
     480:	52495f74 	subpl	r5, r9, #116, 30	; 0x1d0
     484:	47006e51 	smlsdmi	r0, r1, lr, r6
     488:	5f4f4950 	svcpl	0x004f4950
     48c:	006e6950 	rsbeq	r6, lr, r0, asr r9
     490:	314d4954 	cmpcc	sp, r4, asr r9
     494:	5f43435f 	svcpl	0x0043435f
     498:	6e515249 	cdpvs	2, 5, cr5, cr1, cr9, {2}
     49c:	73795300 	cmnvc	r9, #0, 6
     4a0:	436d6574 	cmnmi	sp, #116, 10	; 0x1d000000
     4a4:	6b636f6c 	blvs	18dc25c <_Min_Stack_Size+0x18dbe5c>
     4a8:	6e6f435f 	mcrvs	3, 3, r4, cr15, cr15, {2}
     4ac:	00676966 	rsbeq	r6, r7, r6, ror #18
     4b0:	5059544f 	subspl	r5, r9, pc, asr #8
     4b4:	43005245 	movwmi	r5, #581	; 0x245
     4b8:	00524746 	subseq	r4, r2, r6, asr #14
     4bc:	314d4954 	cmpcc	sp, r4, asr r9
     4c0:	52495f37 	subpl	r5, r9, #55, 30	; 0xdc
     4c4:	54006e51 	strpl	r6, [r0], #-3665	; 0xfffff1af
     4c8:	495f4353 	ldmdbmi	pc, {r0, r1, r4, r6, r8, r9, lr}^	; <UNPREDICTABLE>
     4cc:	006e5152 	rsbeq	r5, lr, r2, asr r1
     4d0:	69755f5f 	ldmdbvs	r5!, {r0, r1, r2, r3, r4, r6, r8, r9, sl, fp, ip, lr}^
     4d4:	5f38746e 	svcpl	0x0038746e
     4d8:	48410074 	stmdami	r1, {r2, r4, r5, r6}^
     4dc:	4b4c4342 	blmi	13111ec <_Min_Stack_Size+0x1310dec>
     4e0:	69766944 	ldmdbvs	r6!, {r2, r6, r8, fp, sp, lr}^
     4e4:	00726564 	rsbseq	r6, r2, r4, ror #10
     4e8:	4f495047 	svcmi	0x00495047
     4ec:	7079545f 	rsbsvc	r5, r9, pc, asr r4
     4f0:	66654465 	strbtvs	r4, [r5], -r5, ror #8
     4f4:	4c414800 	mcrrmi	8, 0, r4, r1, cr0
     4f8:	4950475f 	ldmdbmi	r0, {r0, r1, r2, r3, r4, r6, r8, r9, sl, lr}^
     4fc:	6e495f4f 	cdpvs	15, 4, cr5, cr9, cr15, {2}
     500:	48007469 	stmdami	r0, {r0, r3, r5, r6, sl, ip, sp, lr}
     504:	34314953 	ldrtcc	r4, [r1], #-2387	; 0xfffff6ad
     508:	74617453 	strbtvc	r7, [r1], #-1107	; 0xfffffbad
     50c:	79530065 	ldmdbvc	r3, {r0, r2, r5, r6}^
     510:	63695473 	cmnvs	r9, #1929379840	; 0x73000000
     514:	52495f6b 	subpl	r5, r9, #428	; 0x1ac
     518:	55006e51 	strpl	r6, [r0, #-3665]	; 0xfffff1af
     51c:	54524153 	ldrbpl	r4, [r2], #-339	; 0xfffffead
     520:	5f345f33 	svcpl	0x00345f33
     524:	6e515249 	cdpvs	2, 5, cr5, cr1, cr9, {2}
     528:	43324900 	teqmi	r2, #0, 18
     52c:	52495f32 	subpl	r5, r9, #50, 30	; 0xc8
     530:	52006e51 	andpl	r6, r0, #1296	; 0x510
     534:	435f4343 	cmpmi	pc, #201326593	; 0xc000001
     538:	495f5352 	ldmdbmi	pc, {r1, r4, r6, r8, r9, ip, lr}^	; <UNPREDICTABLE>
     53c:	006e5152 	rsbeq	r5, lr, r2, asr r1
     540:	324d4954 	subcc	r4, sp, #84, 18	; 0x150000
     544:	5152495f 	cmppl	r2, pc, asr r9
     548:	654c006e 	strbvs	r0, [ip, #-110]	; 0xffffff92
     54c:	79545f64 	ldmdbvc	r4, {r2, r5, r6, r8, r9, sl, fp, ip, lr}^
     550:	65446570 	strbvs	r6, [r4, #-1392]	; 0xfffffa90
     554:	49540066 	ldmdbmi	r4, {r1, r2, r5, r6}^
     558:	5f34314d 	svcpl	0x0034314d
     55c:	6e515249 	cdpvs	2, 5, cr5, cr1, cr9, {2}
     560:	414d4400 	cmpmi	sp, r0, lsl #8
     564:	68435f31 	stmdavs	r3, {r0, r4, r5, r8, r9, sl, fp, ip, lr}^
     568:	656e6e61 	strbvs	r6, [lr, #-3681]!	; 0xfffff19f
     56c:	335f326c 	cmpcc	pc, #108, 4	; 0xc0000006
     570:	5152495f 	cmppl	r2, pc, asr r9
     574:	5348006e 	movtpl	r0, #32878	; 0x806e
     578:	53383449 	teqpl	r8, #1224736768	; 0x49000000
     57c:	65746174 	ldrbvs	r6, [r4, #-372]!	; 0xfffffe8c
     580:	4d495400 	cfstrdmi	mvd5, [r9, #-0]
     584:	41445f36 	cmpmi	r4, r6, lsr pc
     588:	52495f43 	subpl	r5, r9, #268	; 0x10c
     58c:	47006e51 	smlsdmi	r0, r1, lr, r6
     590:	5f4f4950 	svcpl	0x004f4950
     594:	74696e49 	strbtvc	r6, [r9], #-3657	; 0xfffff1b7
     598:	65707954 	ldrbvs	r7, [r0, #-2388]!	; 0xfffff6ac
     59c:	00666544 	rsbeq	r6, r6, r4, asr #10
     5a0:	5f44454c 	svcpl	0x0044454c
     5a4:	45554c42 	ldrbmi	r4, [r5, #-3138]	; 0xfffff3be
     5a8:	736e7500 	cmnvc	lr, #0, 10
     5ac:	656e6769 	strbvs	r6, [lr, #-1897]!	; 0xfffff897
     5b0:	68632064 	stmdavs	r3!, {r2, r5, r6, sp}^
     5b4:	5f007261 	svcpl	0x00007261
     5b8:	6e69755f 	mcrvs	5, 3, r7, cr9, cr15, {2}
     5bc:	5f323374 	svcpl	0x00323374
     5c0:	696c0074 	stmdbvs	ip!, {r2, r4, r5, r6}^
     5c4:	4800656e 	stmdami	r0, {r1, r2, r3, r5, r6, r8, sl, sp, lr}
     5c8:	74534553 	ldrbvc	r4, [r3], #-1363	; 0xfffffaad
     5cc:	00657461 	rsbeq	r7, r5, r1, ror #8
     5d0:	5f44454c 	svcpl	0x0044454c
     5d4:	45455247 	strbmi	r5, [r5, #-583]	; 0xfffffdb9
     5d8:	5053004e 	subspl	r0, r3, lr, asr #32
     5dc:	495f3249 	ldmdbmi	pc, {r0, r3, r6, r9, ip, sp}^	; <UNPREDICTABLE>
     5e0:	006e5152 	rsbeq	r5, lr, r2, asr r1
     5e4:	374d4954 	smlsldcc	r4, sp, r4, r9
     5e8:	5152495f 	cmppl	r2, pc, asr r9
     5ec:	4c50006e 	mrrcmi	0, 6, r0, r0, cr14	; <UNPREDICTABLE>
     5f0:	756f534c 	strbvc	r5, [pc, #-844]!	; 2ac <_Min_Heap_Size+0xac>
     5f4:	00656372 	rsbeq	r6, r5, r2, ror r3
     5f8:	5f44454c 	svcpl	0x0044454c
     5fc:	00444552 	subeq	r4, r4, r2, asr r5
     600:	2f637273 	svccs	0x00637273
     604:	6e69616d 	powvsez	f6, f1, #5.0
     608:	7300632e 	movwvc	r6, #814	; 0x32e
     60c:	74726f68 	ldrbtvc	r6, [r2], #-3944	; 0xfffff098
     610:	736e7520 	cmnvc	lr, #32, 10	; 0x8000000
     614:	656e6769 	strbvs	r6, [lr, #-1897]!	; 0xfffff897
     618:	6e692064 	cdpvs	0, 6, cr2, cr9, cr4, {3}
     61c:	616d0074 	smcvs	53252	; 0xd004
     620:	48006e69 	stmdami	r0, {r0, r3, r5, r6, r9, sl, fp, sp, lr}
     624:	46647261 	strbtmi	r7, [r4], -r1, ror #4
     628:	746c7561 	strbtvc	r7, [ip], #-1377	; 0xfffffa9f
     62c:	5152495f 	cmppl	r2, pc, asr r9
     630:	4352006e 	cmpmi	r2, #110	; 0x6e
     634:	734f5f43 	movtvc	r5, #65347	; 0xff43
     638:	696e4963 	stmdbvs	lr!, {r0, r1, r5, r6, r8, fp, lr}^
     63c:	72745374 	rsbsvc	r5, r4, #116, 6	; 0xd0000001
     640:	00746375 	rsbseq	r6, r4, r5, ror r3
     644:	5f4c4148 	svcpl	0x004c4148
     648:	4f495047 	svcmi	0x00495047
     64c:	5458455f 	ldrbpl	r4, [r8], #-1375	; 0xfffffaa1
     650:	61435f49 	cmpvs	r3, r9, asr #30
     654:	61626c6c 	cmnvs	r2, ip, ror #24
     658:	42006b63 	andmi	r6, r0, #101376	; 0x18c00
     65c:	4c5f5053 	mrrcmi	0, 5, r5, pc, cr3	; <UNPREDICTABLE>
     660:	545f4445 	ldrbpl	r4, [pc], #-1093	; 668 <_Min_Stack_Size+0x268>
     664:	6c67676f 	stclvs	7, cr6, [r7], #-444	; 0xfffffe44
     668:	6c430065 	mcrrvs	0, 6, r0, r3, cr5
     66c:	546b636f 	strbtpl	r6, [fp], #-879	; 0xfffffc91
     670:	00657079 	rsbeq	r7, r5, r9, ror r0
     674:	5f44454c 	svcpl	0x0044454c
     678:	4e41524f 	cdpmi	2, 4, cr5, cr1, cr15, {2}
     67c:	4c004547 	cfstr32mi	mvfx4, [r0], {71}	; 0x47
     680:	00524b43 	subseq	r4, r2, r3, asr #22
     684:	5f4c4148 	svcpl	0x004c4148
     688:	4970734d 	ldmdbmi	r0!, {r0, r2, r3, r6, r8, r9, ip, sp, lr}^
     68c:	0074696e 	rsbseq	r6, r4, lr, ror #18
     690:	53414c46 	movtpl	r4, #7238	; 0x1c46
     694:	79545f48 	ldmdbvc	r4, {r3, r6, r8, r9, sl, fp, ip, lr}^
     698:	65446570 	strbvs	r6, [r4, #-1392]	; 0xfffffa90
     69c:	41480066 	cmpmi	r8, r6, rrx
     6a0:	42445f4c 	submi	r5, r4, #76, 30	; 0x130
     6a4:	55434d47 	strbpl	r4, [r3, #-3399]	; 0xfffff2b9
     6a8:	7369445f 	cmnvc	r9, #1593835520	; 0x5f000000
     6ac:	656c6261 	strbvs	r6, [ip, #-609]!	; 0xfffffd9f
     6b0:	53474244 	movtpl	r4, #29252	; 0x7244
     6b4:	646e6174 	strbtvs	r6, [lr], #-372	; 0xfffffe8c
     6b8:	6f4d7962 	svcvs	0x004d7962
     6bc:	48006564 	stmdami	r0, {r2, r5, r6, r8, sl, sp, lr}
     6c0:	475f4c41 	ldrbmi	r4, [pc, -r1, asr #24]
     6c4:	61487465 	cmpvs	r8, r5, ror #8
     6c8:	7265566c 	rsbvc	r5, r5, #108, 12	; 0x6c00000
     6cc:	6e6f6973 	mcrvs	9, 3, r6, cr15, cr3, {3}
     6d0:	4c414800 	mcrrmi	8, 0, r4, r1, cr0
     6d4:	7465475f 	strbtvc	r4, [r5], #-1887	; 0xfffff8a1
     6d8:	77444955 	smlsldvc	r4, r4, r5, r9	; <UNPREDICTABLE>
     6dc:	41480030 	cmpmi	r8, r0, lsr r0
     6e0:	65475f4c 	strbvs	r5, [r7, #-3916]	; 0xfffff0b4
     6e4:	44495574 	strbmi	r5, [r9], #-1396	; 0xfffffa8c
     6e8:	48003177 	stmdami	r0, {r0, r1, r2, r4, r5, r6, r8, ip, sp}
     6ec:	475f4c41 	ldrbmi	r4, [pc, -r1, asr #24]
     6f0:	49557465 	ldmdbmi	r5, {r0, r2, r5, r6, sl, ip, sp, lr}^
     6f4:	00327744 	eorseq	r7, r2, r4, asr #14
     6f8:	5f4c4148 	svcpl	0x004c4148
     6fc:	54746547 	ldrbtpl	r6, [r4], #-1351	; 0xfffffab9
     700:	006b6369 	rsbeq	r6, fp, r9, ror #6
     704:	32425041 	subcc	r5, r2, #65	; 0x41
     708:	44005a46 	strmi	r5, [r0], #-2630	; 0xfffff5ba
     70c:	434d4742 	movtmi	r4, #55106	; 0xd742
     710:	79545f55 	ldmdbvc	r4, {r0, r2, r4, r6, r8, r9, sl, fp, ip, lr}^
     714:	65446570 	strbvs	r6, [r4, #-1392]	; 0xfffffa90
     718:	77750066 	ldrbvc	r0, [r5, -r6, rrx]!
     71c:	6b636954 	blvs	18dac74 <_Min_Stack_Size+0x18da874>
     720:	4c414800 	mcrrmi	8, 0, r4, r1, cr0
     724:	4742445f 	smlsldmi	r4, r2, pc, r4	; <UNPREDICTABLE>
     728:	5f55434d 	svcpl	0x0055434d
     72c:	61736944 	cmnvs	r3, r4, asr #18
     730:	44656c62 	strbtmi	r6, [r5], #-3170	; 0xfffff39e
     734:	74534742 	ldrbvc	r4, [r3], #-1858	; 0xfffff8be
     738:	6f4d706f 	svcvs	0x004d706f
     73c:	77006564 	strvc	r6, [r0, -r4, ror #10]
     740:	00746961 	rsbseq	r6, r4, r1, ror #18
     744:	5f4c4148 	svcpl	0x004c4148
     748:	6e496544 	cdpvs	5, 4, cr6, cr9, cr4, {2}
     74c:	4f007469 	svcmi	0x00007469
     750:	454b5450 	strbmi	r5, [fp, #-1104]	; 0xfffffbb0
     754:	43005259 	movwmi	r5, #601	; 0x259
     758:	42494c41 	submi	r4, r9, #16640	; 0x4100
     75c:	42504100 	subsmi	r4, r0, #0, 2
     760:	005a4631 	subseq	r4, sl, r1, lsr r6
     764:	6b636974 	blvs	18dad3c <_Min_Stack_Size+0x18da93c>
     768:	72617473 	rsbvc	r7, r1, #1929379840	; 0x73000000
     76c:	69540074 	ldmdbvs	r4, {r2, r4, r5, r6}^
     770:	72506b63 	subsvc	r6, r0, #101376	; 0x18c00
     774:	69726f69 	ldmdbvs	r2!, {r0, r3, r5, r6, r8, r9, sl, fp, sp, lr}^
     778:	48007974 	stmdami	r0, {r2, r4, r5, r6, r8, fp, ip, sp, lr}
     77c:	445f4c41 	ldrbmi	r4, [pc], #-3137	; 784 <_Min_Stack_Size+0x384>
     780:	79616c65 	stmdbvc	r1!, {r0, r2, r5, r6, sl, fp, sp, lr}^
     784:	62696c00 	rsbvs	r6, r9, #0, 24
     788:	6c61682f 	stclvs	8, cr6, [r1], #-188	; 0xffffff44
     78c:	6372532f 	cmnvs	r2, #-1140850688	; 0xbc000000
     790:	6d74732f 	ldclvs	3, cr7, [r4, #-188]!	; 0xffffff44
     794:	30663233 	rsbcc	r3, r6, r3, lsr r2
     798:	685f7878 	ldmdavs	pc, {r3, r4, r5, r6, fp, ip, sp, lr}^	; <UNPREDICTABLE>
     79c:	632e6c61 			; <UNDEFINED> instruction: 0x632e6c61
     7a0:	4c414800 	mcrrmi	8, 0, r4, r1, cr0
     7a4:	4742445f 	smlsldmi	r4, r2, pc, r4	; <UNPREDICTABLE>
     7a8:	5f55434d 	svcpl	0x0055434d
     7ac:	62616e45 	rsbvs	r6, r1, #1104	; 0x450
     7b0:	4244656c 	submi	r6, r4, #108, 10	; 0x1b000000
     7b4:	6f745347 	svcvs	0x00745347
     7b8:	646f4d70 	strbtvs	r4, [pc], #-3440	; 7c0 <_Min_Stack_Size+0x3c0>
     7bc:	41480065 	cmpmi	r8, r5, rrx
     7c0:	42445f4c 	submi	r5, r4, #76, 30	; 0x130
     7c4:	55434d47 	strbpl	r4, [r3, #-3399]	; 0xfffff2b9
     7c8:	616e455f 	cmnvs	lr, pc, asr r5
     7cc:	44656c62 	strbtmi	r6, [r5], #-3170	; 0xfffff39e
     7d0:	74534742 	ldrbvc	r4, [r3], #-1858	; 0xfffff8be
     7d4:	62646e61 	rsbvs	r6, r4, #1552	; 0x610
     7d8:	646f4d79 	strbtvs	r4, [pc], #-3449	; 7e0 <_Min_Stack_Size+0x3e0>
     7dc:	54430065 	strbpl	r0, [r3], #-101	; 0xffffff9b
     7e0:	53004c52 	movwpl	r4, #3154	; 0xc52
     7e4:	69547379 	ldmdbvs	r4, {r0, r3, r4, r5, r6, r8, r9, ip, sp, lr}^
     7e8:	545f6b63 	ldrbpl	r6, [pc], #-2915	; 7f0 <_Min_Stack_Size+0x3f0>
     7ec:	00657079 	rsbeq	r7, r5, r9, ror r0
     7f0:	5f4c4148 	svcpl	0x004c4148
     7f4:	4470734d 	ldrbtmi	r7, [r0], #-845	; 0xfffffcb3
     7f8:	696e4965 	stmdbvs	lr!, {r0, r2, r5, r6, r8, fp, lr}^
     7fc:	41480074 	hvcmi	32772	; 0x8004
     800:	65525f4c 	ldrbvs	r5, [r2, #-3916]	; 0xfffff0b4
     804:	656d7573 	strbvs	r7, [sp, #-1395]!	; 0xfffffa8d
     808:	6b636954 	blvs	18dad60 <_Min_Stack_Size+0x18da960>
     80c:	4c414800 	mcrrmi	8, 0, r4, r1, cr0
     810:	696e495f 	stmdbvs	lr!, {r0, r1, r2, r3, r4, r6, r8, fp, lr}^
     814:	63695474 	cmnvs	r9, #116, 8	; 0x74000000
     818:	4148006b 	cmpmi	r8, fp, rrx
     81c:	59535f4c 	ldmdbpl	r3, {r2, r3, r6, r8, r9, sl, fp, ip, lr}^
     820:	43495453 	movtmi	r5, #37971	; 0x9453
     824:	6f435f4b 	svcvs	0x00435f4b
     828:	6769666e 	strbvs	r6, [r9, -lr, ror #12]!
     82c:	4c414800 	mcrrmi	8, 0, r4, r1, cr0
     830:	7465475f 	strbtvc	r4, [r5], #-1887	; 0xfffff8a1
     834:	49564552 	ldmdbmi	r6, {r1, r4, r6, r8, sl, lr}^
     838:	41480044 	cmpmi	r8, r4, asr #32
     83c:	43525f4c 	cmpmi	r2, #76, 30	; 0x130
     840:	65475f43 	strbvs	r5, [r7, #-3907]	; 0xfffff0bd
     844:	4c434874 	mcrrmi	8, 7, r4, r3, cr4
     848:	6572464b 	ldrbvs	r4, [r2, #-1611]!	; 0xfffff9b5
     84c:	44490071 	strbmi	r0, [r9], #-113	; 0xffffff8f
     850:	45444f43 	strbmi	r4, [r4, #-3907]	; 0xfffff0bd
     854:	414f4c00 	cmpmi	pc, r0, lsl #24
     858:	41480044 	cmpmi	r8, r4, asr #32
     85c:	65475f4c 	strbvs	r5, [r7, #-3916]	; 0xfffff0b4
     860:	56454474 			; <UNDEFINED> instruction: 0x56454474
     864:	48004449 	stmdami	r0, {r0, r3, r6, sl, lr}
     868:	535f4c41 	cmppl	pc, #16640	; 0x4100
     86c:	65707375 	ldrbvs	r7, [r0, #-885]!	; 0xfffffc8b
     870:	6954646e 	ldmdbvs	r4, {r1, r2, r3, r5, r6, sl, sp, lr}^
     874:	48006b63 	stmdami	r0, {r0, r1, r5, r6, r8, r9, fp, sp, lr}
     878:	495f4c41 	ldmdbmi	pc, {r0, r6, sl, fp, lr}^	; <UNPREDICTABLE>
     87c:	6954636e 	ldmdbvs	r4, {r1, r2, r3, r5, r6, r8, r9, sp, lr}^
     880:	52006b63 	andpl	r6, r0, #101376	; 0x18c00
     884:	52455345 	subpl	r5, r5, #335544321	; 0x14000001
     888:	00444556 	subeq	r4, r4, r6, asr r5
     88c:	52505257 	subspl	r5, r0, #1879048197	; 0x70000005
     890:	53595300 	cmppl	r9, #0, 6
     894:	5f474643 	svcpl	0x00474643
     898:	65707954 	ldrbvs	r7, [r0, #-2388]!	; 0xfffff6ac
     89c:	00666544 	rsbeq	r6, r6, r4, asr #10
     8a0:	4f495047 	svcmi	0x00495047
     8a4:	4e49505f 	mcrmi	0, 2, r5, cr9, cr15, {2}
     8a8:	5345525f 	movtpl	r5, #21087	; 0x525f
     8ac:	48005445 	stmdami	r0, {r0, r2, r6, sl, ip, lr}
     8b0:	475f4c41 	ldrbmi	r4, [pc, -r1, asr #24]
     8b4:	5f4f4950 	svcpl	0x004f4950
     8b8:	6b636f4c 	blvs	18dc5f0 <_Min_Stack_Size+0x18dc1f0>
     8bc:	006e6950 	rsbeq	r6, lr, r0, asr r9
     8c0:	5f4c4148 	svcpl	0x004c4148
     8c4:	4f495047 	svcmi	0x00495047
     8c8:	6165525f 	cmnvs	r5, pc, asr r2
     8cc:	6e695064 	cdpvs	0, 6, cr5, cr9, cr4, {3}
     8d0:	54584500 	ldrbpl	r4, [r8], #-1280	; 0xfffffb00
     8d4:	00524349 	subseq	r4, r2, r9, asr #6
     8d8:	49545845 	ldmdbmi	r4, {r0, r2, r6, fp, ip, lr}^
     8dc:	7079545f 	rsbsvc	r5, r9, pc, asr r4
     8e0:	66654465 	strbtvs	r4, [r5], -r5, ror #8
     8e4:	47464300 	strbmi	r4, [r6, -r0, lsl #6]
     8e8:	62003152 	andvs	r3, r0, #-2147483628	; 0x80000014
     8ec:	74737469 	ldrbtvc	r7, [r3], #-1129	; 0xfffffb97
     8f0:	73757461 	cmnvc	r5, #1627389952	; 0x61000000
     8f4:	4c414800 	mcrrmi	8, 0, r4, r1, cr0
     8f8:	4950475f 	ldmdbmi	r0, {r0, r1, r2, r3, r4, r6, r8, r9, sl, lr}^
     8fc:	72575f4f 	subsvc	r5, r7, #316	; 0x13c
     900:	50657469 	rsbpl	r7, r5, r9, ror #8
     904:	47006e69 	strmi	r6, [r0, -r9, ror #28]
     908:	5f4f4950 	svcpl	0x004f4950
     90c:	5f4e4950 	svcpl	0x004e4950
     910:	00544553 	subseq	r4, r4, r3, asr r5
     914:	5f4c4148 	svcpl	0x004c4148
     918:	4f495047 	svcmi	0x00495047
     91c:	676f545f 			; <UNDEFINED> instruction: 0x676f545f
     920:	50656c67 	rsbpl	r6, r5, r7, ror #24
     924:	74006e69 	strvc	r6, [r0], #-3689	; 0xfffff197
     928:	00706d65 	rsbseq	r6, r0, r5, ror #26
     92c:	52535446 	subspl	r5, r3, #1174405120	; 0x46000000
     930:	4c414800 	mcrrmi	8, 0, r4, r1, cr0
     934:	4950475f 	ldmdbmi	r0, {r0, r1, r2, r3, r4, r6, r8, r9, sl, lr}^
     938:	58455f4f 	stmdapl	r5, {r0, r1, r2, r3, r6, r8, r9, sl, fp, ip, lr}^
     93c:	495f4954 	ldmdbmi	pc, {r2, r4, r6, r8, fp, lr}^	; <UNPREDICTABLE>
     940:	61485152 	cmpvs	r8, r2, asr r1
     944:	656c646e 	strbvs	r6, [ip, #-1134]!	; 0xfffffb92
     948:	6f690072 	svcvs	0x00690072
     94c:	72727563 	rsbsvc	r7, r2, #415236096	; 0x18c00000
     950:	00746e65 	rsbseq	r6, r4, r5, ror #28
     954:	52535452 	subspl	r5, r3, #1375731712	; 0x52000000
     958:	62696c00 	rsbvs	r6, r9, #0, 24
     95c:	6c61682f 	stclvs	8, cr6, [r1], #-188	; 0xffffff44
     960:	6372532f 	cmnvs	r2, #-1140850688	; 0xbc000000
     964:	6d74732f 	ldclvs	3, cr7, [r4, #-188]!	; 0xffffff44
     968:	30663233 	rsbcc	r3, r6, r3, lsr r2
     96c:	685f7878 	ldmdavs	pc, {r3, r4, r5, r6, fp, ip, sp, lr}^	; <UNPREDICTABLE>
     970:	675f6c61 	ldrbvs	r6, [pc, -r1, ror #24]
     974:	2e6f6970 	mcrcs	9, 3, r6, cr15, cr0, {3}
     978:	50470063 	subpl	r0, r7, r3, rrx
     97c:	00784f49 	rsbseq	r4, r8, r9, asr #30
     980:	69736f70 	ldmdbvs	r3!, {r4, r5, r6, r8, r9, sl, fp, sp, lr}^
     984:	6e6f6974 	mcrvs	9, 3, r6, cr15, cr4, {3}
     988:	4c414800 	mcrrmi	8, 0, r4, r1, cr0
     98c:	4950475f 	ldmdbmi	r0, {r0, r1, r2, r3, r4, r6, r8, r9, sl, lr}^
     990:	65445f4f 	strbvs	r5, [r4, #-3919]	; 0xfffff0b1
     994:	74696e49 	strbtvc	r6, [r9], #-3657	; 0xfffff1b7
     998:	49504700 	ldmdbmi	r0, {r8, r9, sl, lr}^
     99c:	69505f4f 	ldmdbvs	r0, {r0, r1, r2, r3, r6, r8, r9, sl, fp, ip, lr}^
     9a0:	6174536e 	cmnvs	r4, lr, ror #6
     9a4:	53006574 	movwpl	r6, #1396	; 0x574
     9a8:	52454957 	subpl	r4, r5, #1425408	; 0x15c000
     9ac:	73795300 	cmnvc	r9, #0, 6
     9b0:	436d6574 	cmnmi	sp, #116, 10	; 0x1d000000
     9b4:	4365726f 	cmnmi	r5, #-268435450	; 0xf0000006
     9b8:	6b636f6c 	blvs	18dc770 <_Min_Stack_Size+0x18dc370>
     9bc:	43435200 	movtmi	r5, #12800	; 0x3200
     9c0:	4f434d5f 	svcmi	0x00434d5f
     9c4:	00766944 	rsbseq	r6, r6, r4, asr #18
     9c8:	5f4c4148 	svcpl	0x004c4148
     9cc:	5f434352 	svcpl	0x00434352
     9d0:	6e496544 	cdpvs	5, 4, cr6, cr9, cr4, {2}
     9d4:	48007469 	stmdami	r0, {r0, r3, r5, r6, sl, ip, sp, lr}
     9d8:	525f4c41 	subspl	r4, pc, #16640	; 0x4100
     9dc:	4d5f4343 	ldclmi	3, cr4, [pc, #-268]	; 8d8 <_Min_Stack_Size+0x4d8>
     9e0:	6f434f43 	svcvs	0x00434f43
     9e4:	6769666e 	strbvs	r6, [r9, -lr, ror #12]!
     9e8:	616c4600 	cmnvs	ip, r0, lsl #12
     9ec:	61745367 	cmnvs	r4, r7, ror #6
     9f0:	00737574 	rsbseq	r7, r3, r4, ror r5
     9f4:	4c4c5061 	mcrrmi	0, 6, r5, ip, cr1
     9f8:	464c554d 	strbmi	r5, [ip], -sp, asr #10
     9fc:	6f746361 	svcvs	0x00746361
     a00:	62615472 	rsbvs	r5, r1, #1912602624	; 0x72000000
     a04:	4800656c 	stmdami	r0, {r2, r3, r5, r6, r8, sl, sp, lr}
     a08:	525f4c41 	subspl	r4, pc, #16640	; 0x4100
     a0c:	475f4343 	ldrbmi	r4, [pc, -r3, asr #6]
     a10:	79537465 	ldmdbvc	r3, {r0, r2, r5, r6, sl, ip, sp, lr}^
     a14:	6f6c4373 	svcvs	0x006c4373
     a18:	72466b63 	subvc	r6, r6, #101376	; 0x18c00
     a1c:	48007165 	stmdami	r0, {r0, r2, r5, r6, r8, ip, sp, lr}
     a20:	525f4c41 	subspl	r4, pc, #16640	; 0x4100
     a24:	445f4343 	ldrbmi	r4, [pc], #-835	; a2c <_Min_Stack_Size+0x62c>
     a28:	62617369 	rsbvs	r7, r1, #-1543503871	; 0xa4000001
     a2c:	5343656c 	movtpl	r6, #13676	; 0x356c
     a30:	50410053 	subpl	r0, r1, r3, asr r0
     a34:	65725042 	ldrbvs	r5, [r2, #-66]!	; 0xffffffbe
     a38:	61546373 	cmpvs	r4, r3, ror r3
     a3c:	00656c62 	rsbeq	r6, r5, r2, ror #24
     a40:	63727770 	cmnvs	r2, #112, 14	; 0x1c00000
     a44:	68636b6c 	stmdavs	r3!, {r2, r3, r5, r6, r8, r9, fp, sp, lr}^
     a48:	65676e61 	strbvs	r6, [r7, #-3681]!	; 0xfffff19f
     a4c:	43520064 	cmpmi	r2, #100	; 0x64
     a50:	434d5f43 	movtmi	r5, #57155	; 0xdf43
     a54:	6700784f 	strvs	r7, [r0, -pc, asr #16]
     a58:	006f6970 	rsbeq	r6, pc, r0, ror r9	; <UNPREDICTABLE>
     a5c:	636c6c70 	cmnvs	ip, #112, 24	; 0x7000
     a60:	70006b6c 	andvc	r6, r0, ip, ror #22
     a64:	69646572 	stmdbvs	r4!, {r1, r4, r5, r6, r8, sl, sp, lr}^
     a68:	41480076 	hvcmi	32774	; 0x8006
     a6c:	43525f4c 	cmpmi	r2, #76, 30	; 0x130
     a70:	53435f43 	movtpl	r5, #16195	; 0x3f43
     a74:	6c614353 	stclvs	3, cr4, [r1], #-332	; 0xfffffeb4
     a78:	6361626c 	cmnvs	r1, #108, 4	; 0xc0000006
     a7c:	4148006b 	cmpmi	r8, fp, rrx
     a80:	43525f4c 	cmpmi	r2, #76, 30	; 0x130
     a84:	65475f43 	strbvs	r5, [r7, #-3907]	; 0xfffff0bd
     a88:	6f6c4374 	svcvs	0x006c4374
     a8c:	6f436b63 	svcvs	0x00436b63
     a90:	6769666e 	strbvs	r6, [r9, -lr, ror #12]!
     a94:	42484100 	submi	r4, r8, #0, 2
     a98:	73657250 	cmnvc	r5, #80, 4
     a9c:	62615463 	rsbvs	r5, r1, #1660944384	; 0x63000000
     aa0:	4800656c 	stmdami	r0, {r2, r3, r5, r6, r8, sl, sp, lr}
     aa4:	525f4c41 	subspl	r4, pc, #16640	; 0x4100
     aa8:	475f4343 	ldrbmi	r4, [pc, -r3, asr #6]
     aac:	43507465 	cmpmi	r0, #1694498816	; 0x65000000
     ab0:	46314b4c 	ldrtmi	r4, [r1], -ip, asr #22
     ab4:	00716572 	rsbseq	r6, r1, r2, ror r5
     ab8:	5f4c4148 	svcpl	0x004c4148
     abc:	5f434352 	svcpl	0x00434352
     ac0:	4f746547 	svcmi	0x00746547
     ac4:	6f436373 	svcvs	0x00436373
     ac8:	6769666e 	strbvs	r6, [r9, -lr, ror #12]!
     acc:	52575000 	subspl	r5, r7, #0
     ad0:	7079545f 	rsbsvc	r5, r9, pc, asr r4
     ad4:	66654465 	strbtvs	r4, [r5], -r5, ror #8
     ad8:	4c414800 	mcrrmi	8, 0, r4, r1, cr0
     adc:	4343525f 	movtmi	r5, #12895	; 0x325f
     ae0:	616e455f 	cmnvs	lr, pc, asr r5
     ae4:	43656c62 	cmnmi	r5, #25088	; 0x6200
     ae8:	61005353 	tstvs	r0, r3, asr r3
     aec:	64657250 	strbtvs	r7, [r5], #-592	; 0xfffffdb0
     af0:	61467669 	cmpvs	r6, r9, ror #12
     af4:	726f7463 	rsbvc	r7, pc, #1660944384	; 0x63000000
     af8:	6c626154 	stfvse	f6, [r2], #-336	; 0xfffffeb0
     afc:	43520065 	cmpmi	r2, #101	; 0x65
     b00:	434d5f43 	movtmi	r5, #57155	; 0xdf43
     b04:	756f534f 	strbvc	r5, [pc, #-847]!	; 7bd <_Min_Stack_Size+0x3bd>
     b08:	00656372 	rsbeq	r6, r5, r2, ror r3
     b0c:	614c4670 	hvcvs	50272	; 0xc460
     b10:	636e6574 	cmnvs	lr, #116, 10	; 0x1d000000
     b14:	79730079 	ldmdbvc	r3!, {r0, r3, r4, r5, r6}^
     b18:	6f6c6373 	svcvs	0x006c6373
     b1c:	72666b63 	rsbvc	r6, r6, #101376	; 0x18c00
     b20:	48007165 	stmdami	r0, {r0, r2, r5, r6, r8, ip, sp, lr}
     b24:	525f4c41 	subspl	r4, pc, #16640	; 0x4100
     b28:	4e5f4343 	cdpmi	3, 5, cr4, cr15, cr3, {2}
     b2c:	495f494d 	ldmdbmi	pc, {r0, r2, r3, r6, r8, fp, lr}^	; <UNPREDICTABLE>
     b30:	61485152 	cmpvs	r8, r2, asr r1
     b34:	656c646e 	strbvs	r6, [ip, #-1134]!	; 0xfffffb92
     b38:	696c0072 	stmdbvs	ip!, {r1, r4, r5, r6}^
     b3c:	61682f62 	cmnvs	r8, r2, ror #30
     b40:	72532f6c 	subsvc	r2, r3, #108, 30	; 0x1b0
     b44:	74732f63 	ldrbtvc	r2, [r3], #-3939	; 0xfffff09d
     b48:	6632336d 	ldrtvs	r3, [r2], -sp, ror #6
     b4c:	5f787830 	svcpl	0x00787830
     b50:	5f6c6168 	svcpl	0x006c6168
     b54:	2e636372 	mcrcs	3, 3, r6, cr3, cr2, {3}
     b58:	656d0063 	strbvs	r0, [sp, #-99]!	; 0xffffff9d
     b5c:	7970636d 	ldmdbvc	r0!, {r0, r2, r3, r5, r6, r8, r9, sp, lr}^
     b60:	6c6c7000 	stclvs	0, cr7, [ip], #-0
     b64:	006c756d 	rsbeq	r7, ip, sp, ror #10
     b68:	5f4c4148 	svcpl	0x004c4148
     b6c:	4349564e 	movtmi	r5, #38478	; 0x964e
     b70:	656c435f 	strbvs	r4, [ip, #-863]!	; 0xfffffca1
     b74:	65507261 	ldrbvs	r7, [r0, #-609]	; 0xfffffd9f
     b78:	6e69646e 	cdpvs	4, 6, cr6, cr9, cr14, {3}
     b7c:	51524967 	cmppl	r2, r7, ror #18
     b80:	63697400 	cmnvs	r9, #0, 8
     b84:	5300736b 	movwpl	r7, #875	; 0x36b
     b88:	72506275 	subsvc	r6, r0, #1342177287	; 0x50000007
     b8c:	69726f69 	ldmdbvs	r2!, {r0, r3, r5, r6, r8, r9, sl, fp, sp, lr}^
     b90:	70007974 	andvc	r7, r0, r4, ror r9
     b94:	726f6972 	rsbvc	r6, pc, #1867776	; 0x1c8000
     b98:	00797469 	rsbseq	r7, r9, r9, ror #8
     b9c:	5f4c4148 	svcpl	0x004c4148
     ba0:	4349564e 	movtmi	r5, #38478	; 0x964e
     ba4:	7379535f 	cmnvc	r9, #2080374785	; 0x7c000001
     ba8:	526d6574 	rsbpl	r6, sp, #116, 10	; 0x1d000000
     bac:	74657365 	strbtvc	r7, [r5], #-869	; 0xfffffc9b
     bb0:	445f5f00 	ldrbmi	r5, [pc], #-3840	; bb8 <_Min_Stack_Size+0x7b8>
     bb4:	43004253 	movwmi	r4, #595	; 0x253
     bb8:	44495550 	strbmi	r5, [r9], #-1360	; 0xfffffab0
     bbc:	53455200 	movtpl	r5, #20992	; 0x5200
     bc0:	45565245 	ldrbmi	r5, [r6, #-581]	; 0xfffffdbb
     bc4:	52003044 	andpl	r3, r0, #68	; 0x44
     bc8:	52455345 	subpl	r5, r5, #335544321	; 0x14000001
     bcc:	33444556 	movtcc	r4, #17750	; 0x4556
     bd0:	4c414800 	mcrrmi	8, 0, r4, r1, cr0
     bd4:	5359535f 	cmppl	r9, #2080374785	; 0x7c000001
     bd8:	4b434954 	blmi	10d3130 <_Min_Stack_Size+0x10d2d30>
     bdc:	4b4c435f 	blmi	1311960 <_Min_Stack_Size+0x1311560>
     be0:	72756f53 	rsbsvc	r6, r5, #332	; 0x14c
     be4:	6f436563 	svcvs	0x00436563
     be8:	6769666e 	strbvs	r6, [r9, -lr, ror #12]!
     bec:	4e5f5f00 	cdpmi	15, 5, cr5, cr15, cr0, {0}
     bf0:	5300504f 	movwpl	r5, #79	; 0x4f
     bf4:	69547379 	ldmdbvs	r4, {r0, r3, r4, r5, r6, r8, r9, ip, sp, lr}^
     bf8:	435f6b63 	cmpmi	pc, #101376	; 0x18c00
     bfc:	69666e6f 	stmdbvs	r6!, {r0, r1, r2, r3, r5, r6, r9, sl, fp, sp, lr}^
     c00:	43490067 	movtmi	r0, #36967	; 0x9067
     c04:	52005253 	andpl	r5, r0, #805306373	; 0x30000005
     c08:	56524553 			; <UNDEFINED> instruction: 0x56524553
     c0c:	00314445 	eorseq	r4, r1, r5, asr #8
     c10:	5f4c4148 	svcpl	0x004c4148
     c14:	4349564e 	movtmi	r5, #38478	; 0x964e
     c18:	7465475f 	strbtvc	r4, [r5], #-1887	; 0xfffff8a1
     c1c:	646e6550 	strbtvs	r6, [lr], #-1360	; 0xfffffab0
     c20:	49676e69 	stmdbmi	r7!, {r0, r3, r5, r6, r9, sl, fp, sp, lr}^
     c24:	50005152 	andpl	r5, r0, r2, asr r1
     c28:	6d656572 	cfstr64vs	mvdx6, [r5, #-456]!	; 0xfffffe38
     c2c:	72507470 	subsvc	r7, r0, #112, 8	; 0x70000000
     c30:	69726f69 	ldmdbvs	r2!, {r0, r3, r5, r6, r8, r9, sl, fp, sp, lr}^
     c34:	53007974 	movwpl	r7, #2420	; 0x974
     c38:	545f4243 	ldrbpl	r4, [pc], #-579	; c40 <_Min_Stack_Size+0x840>
     c3c:	00657079 	rsbeq	r7, r5, r9, ror r0
     c40:	4349564e 	movtmi	r5, #38478	; 0x964e
     c44:	7079545f 	rsbsvc	r5, r9, pc, asr r4
     c48:	41480065 	cmpmi	r8, r5, rrx
     c4c:	59535f4c 	ldmdbpl	r3, {r2, r3, r6, r8, r9, sl, fp, ip, lr}^
     c50:	43495453 	movtmi	r5, #37971	; 0x9453
     c54:	52495f4b 	subpl	r5, r9, #300	; 0x12c
     c58:	6e614851 	mcrvs	8, 3, r4, cr1, cr1, {2}
     c5c:	72656c64 	rsbvc	r6, r5, #100, 24	; 0x6400
     c60:	4c414800 	mcrrmi	8, 0, r4, r1, cr0
     c64:	49564e5f 	ldmdbmi	r6, {r0, r1, r2, r3, r4, r6, r9, sl, fp, lr}^
     c68:	65535f43 	ldrbvs	r5, [r3, #-3907]	; 0xfffff0bd
     c6c:	6e655074 	mcrvs	0, 3, r5, cr5, cr4, {3}
     c70:	676e6964 	strbvs	r6, [lr, -r4, ror #18]!
     c74:	00515249 	subseq	r5, r1, r9, asr #4
     c78:	52504349 	subspl	r4, r0, #603979777	; 0x24000001
     c7c:	43485300 	movtmi	r5, #33536	; 0x8300
     c80:	49005253 	stmdbmi	r0, {r0, r1, r4, r6, r9, ip, lr}
     c84:	00524543 	subseq	r4, r2, r3, asr #10
     c88:	5f4c4148 	svcpl	0x004c4148
     c8c:	4349564e 	movtmi	r5, #38478	; 0x964e
     c90:	7465475f 	strbtvc	r4, [r5], #-1887	; 0xfffff8a1
     c94:	6f697250 	svcvs	0x00697250
     c98:	79746972 	ldmdbvc	r4!, {r1, r4, r5, r6, r8, fp, sp, lr}^
     c9c:	50534900 	subspl	r4, r3, r0, lsl #18
     ca0:	69540052 	ldmdbvs	r4, {r1, r4, r6}^
     ca4:	4e736b63 	vsubmi.f64	d22, d3, d19
     ca8:	00626d75 	rsbeq	r6, r2, r5, ror sp
     cac:	52455349 	subpl	r5, r5, #603979777	; 0x24000001
     cb0:	53455200 	movtpl	r5, #20992	; 0x5200
     cb4:	45565245 	ldrbmi	r5, [r6, #-581]	; 0xfffffdbb
     cb8:	52003144 	andpl	r3, r0, #68, 2
     cbc:	52455345 	subpl	r5, r5, #335544321	; 0x14000001
     cc0:	32444556 	subcc	r4, r4, #360710144	; 0x15800000
     cc4:	53455200 	movtpl	r5, #20992	; 0x5200
     cc8:	45565245 	ldrbmi	r5, [r6, #-581]	; 0xfffffdbb
     ccc:	48003444 	stmdami	r0, {r2, r6, sl, ip, sp}
     cd0:	4e5f4c41 	cdpmi	12, 5, cr4, cr15, cr1, {2}
     cd4:	5f434956 	svcpl	0x00434956
     cd8:	61736944 	cmnvs	r3, r4, asr #18
     cdc:	49656c62 	stmdbmi	r5!, {r1, r5, r6, sl, fp, sp, lr}^
     ce0:	5f005152 	svcpl	0x00005152
     ce4:	746e695f 	strbtvc	r6, [lr], #-2399	; 0xfffff6a1
     ce8:	745f3233 	ldrbvc	r3, [pc], #-563	; cf0 <_Min_Stack_Size+0x8f0>
     cec:	62696c00 	rsbvs	r6, r9, #0, 24
     cf0:	6c61682f 	stclvs	8, cr6, [r1], #-188	; 0xffffff44
     cf4:	6372532f 	cmnvs	r2, #-1140850688	; 0xbc000000
     cf8:	6d74732f 	ldclvs	3, cr7, [r4, #-188]!	; 0xffffff44
     cfc:	30663233 	rsbcc	r3, r6, r3, lsr r2
     d00:	685f7878 	ldmdavs	pc, {r3, r4, r5, r6, fp, ip, sp, lr}^	; <UNPREDICTABLE>
     d04:	635f6c61 	cmpvs	pc, #24832	; 0x6100
     d08:	6574726f 	ldrbvs	r7, [r4, #-623]!	; 0xfffffd91
     d0c:	00632e78 	rsbeq	r2, r3, r8, ror lr
     d10:	5f4c4148 	svcpl	0x004c4148
     d14:	54535953 	ldrbpl	r5, [r3], #-2387	; 0xfffff6ad
     d18:	5f4b4349 	svcpl	0x004b4349
     d1c:	6c6c6143 	stfvse	f6, [ip], #-268	; 0xfffffef4
     d20:	6b636162 	blvs	18d92b0 <_Min_Stack_Size+0x18d8eb0>
     d24:	52494100 	subpl	r4, r9, #0, 2
     d28:	42005243 	andmi	r5, r0, #805306372	; 0x30000004
     d2c:	505f5053 	subspl	r5, pc, r3, asr r0	; <UNPREDICTABLE>
     d30:	65475f42 	strbvs	r5, [r7, #-3906]	; 0xfffff0be
     d34:	61745374 	cmnvs	r4, r4, ror r3
     d38:	42006574 	andmi	r6, r0, #116, 10	; 0x1d000000
     d3c:	4f545455 	svcmi	0x00545455
     d40:	4f4d5f4e 	svcmi	0x004d5f4e
     d44:	475f4544 	ldrbmi	r4, [pc, -r4, asr #10]
     d48:	004f4950 	subeq	r4, pc, r0, asr r9	; <UNPREDICTABLE>
     d4c:	54545542 	ldrbpl	r5, [r4], #-1346	; 0xfffffabe
     d50:	505f4e4f 	subspl	r4, pc, pc, asr #28
     d54:	0054524f 	subseq	r5, r4, pc, asr #4
     d58:	5f44454c 	svcpl	0x0044454c
     d5c:	004e4950 	subeq	r4, lr, r0, asr r9
     d60:	54545542 	ldrbpl	r5, [r4], #-1346	; 0xfffffabe
     d64:	495f4e4f 	ldmdbmi	pc, {r0, r1, r2, r3, r6, r9, sl, fp, lr}^	; <UNPREDICTABLE>
     d68:	006e5152 	rsbeq	r5, lr, r2, asr r1
     d6c:	5f505342 	svcpl	0x00505342
     d70:	56746547 	ldrbtpl	r6, [r4], -r7, asr #10
     d74:	69737265 	ldmdbvs	r3!, {r0, r2, r5, r6, r9, ip, sp, lr}^
     d78:	42006e6f 	andmi	r6, r0, #1776	; 0x6f0
     d7c:	6f747475 	svcvs	0x00747475
     d80:	646f4d6e 	strbtvs	r4, [pc], #-3438	; d88 <_Min_Stack_Size+0x988>
     d84:	79545f65 	ldmdbvc	r4, {r0, r2, r5, r6, r8, r9, sl, fp, ip, lr}^
     d88:	65446570 	strbvs	r6, [r4, #-1392]	; 0xfffffa90
     d8c:	454c0066 	strbmi	r0, [ip, #-102]	; 0xffffff9a
     d90:	4f505f44 	svcmi	0x00505f44
     d94:	6c005452 	cfstrsvs	mvf5, [r0], {82}	; 0x52
     d98:	622f6269 	eorvs	r6, pc, #-1879048186	; 0x90000006
     d9c:	732f7073 			; <UNDEFINED> instruction: 0x732f7073
     da0:	32336d74 	eorscc	r6, r3, #116, 26	; 0x1d00
     da4:	32373066 	eorscc	r3, r7, #102	; 0x66
     da8:	69645f62 	stmdbvs	r4!, {r1, r5, r6, r8, r9, sl, fp, ip, lr}^
     dac:	766f6373 			; <UNDEFINED> instruction: 0x766f6373
     db0:	2e797265 	cdpcs	2, 7, cr7, cr9, cr5, {3}
     db4:	55420063 	strbpl	r0, [r2, #-99]	; 0xffffff9d
     db8:	4e4f5454 	mcrmi	4, 2, r5, cr15, cr4, {2}
     dbc:	4e49505f 	mcrmi	0, 2, r5, cr9, cr15, {2}
     dc0:	50534200 	subspl	r4, r3, r0, lsl #4
     dc4:	5f42505f 	svcpl	0x0042505f
     dc8:	74696e49 	strbtvc	r6, [r9], #-3657	; 0xfffff1b7
     dcc:	74754200 	ldrbtvc	r4, [r5], #-512	; 0xfffffe00
     dd0:	5f6e6f74 	svcpl	0x006e6f74
     dd4:	65707954 	ldrbvs	r7, [r0, #-2388]!	; 0xfffff6ac
     dd8:	00666544 	rsbeq	r6, r6, r4, asr #10
     ddc:	54545542 	ldrbpl	r5, [r4], #-1346	; 0xfffffabe
     de0:	555f4e4f 	ldrbpl	r4, [pc, #-3663]	; ffffff99 <_estack+0xdfffbf99>
     de4:	00524553 	subseq	r4, r2, r3, asr r5
     de8:	5f505342 	svcpl	0x00505342
     dec:	5f44454c 	svcpl	0x0044454c
     df0:	42006e4f 	andmi	r6, r0, #1264	; 0x4f0
     df4:	6f747475 	svcvs	0x00747475
     df8:	5542006e 	strbpl	r0, [r2, #-110]	; 0xffffff92
     dfc:	4e4f5454 	mcrmi	4, 2, r5, cr15, cr4, {2}
     e00:	444f4d5f 	strbmi	r4, [pc], #-3423	; e08 <_Min_Stack_Size+0xa08>
     e04:	58455f45 	stmdapl	r5, {r0, r2, r6, r8, r9, sl, fp, ip, lr}^
     e08:	47004954 	smlsdmi	r0, r4, r9, r4
     e0c:	5f4f4950 	svcpl	0x004f4950
     e10:	74696e49 	strbtvc	r6, [r9], #-3657	; 0xfffff1b7
     e14:	75727453 	ldrbvc	r7, [r2, #-1107]!	; 0xfffffbad
     e18:	42007463 	andmi	r7, r0, #1660944384	; 0x63000000
     e1c:	4c5f5053 	mrrcmi	0, 5, r5, pc, cr3	; <UNPREDICTABLE>
     e20:	4f5f4445 	svcmi	0x005f4445
     e24:	70006666 	andvc	r6, r0, r6, ror #12
     e28:	756d6c6c 	strbvc	r6, [sp, #-3180]!	; 0xfffff394
     e2c:	70006c6c 	andvc	r6, r0, ip, ror #24
     e30:	6f736c6c 	svcvs	0x00736c6c
     e34:	65637275 	strbvs	r7, [r3, #-629]!	; 0xfffffd8b
     e38:	62696c00 	rsbvs	r6, r9, #0, 24
     e3c:	736d632f 	cmnvc	sp, #-1140850688	; 0xbc000000
     e40:	442f7369 	strtmi	r7, [pc], #-873	; e48 <_Min_Stack_Size+0xa48>
     e44:	63697665 	cmnvs	r9, #105906176	; 0x6500000
     e48:	54532f65 	ldrbpl	r2, [r3], #-3941	; 0xfffff09b
     e4c:	4d54532f 	ldclmi	3, cr5, [r4, #-188]	; 0xffffff44
     e50:	30463233 	subcc	r3, r6, r3, lsr r2
     e54:	532f7878 			; <UNDEFINED> instruction: 0x532f7878
     e58:	6372756f 	cmnvs	r2, #465567744	; 0x1bc00000
     e5c:	65542f65 	ldrbvs	r2, [r4, #-3941]	; 0xfffff09b
     e60:	616c706d 	cmnvs	ip, sp, rrx
     e64:	2f736574 	svccs	0x00736574
     e68:	74737973 	ldrbtvc	r7, [r3], #-2419	; 0xfffff68d
     e6c:	735f6d65 	cmpvc	pc, #6464	; 0x1940
     e70:	32336d74 	eorscc	r6, r3, #116, 26	; 0x1d00
     e74:	78783066 	ldmdavc	r8!, {r1, r2, r5, r6, ip, sp}^
     e78:	7000632e 	andvc	r6, r0, lr, lsr #6
     e7c:	69646572 	stmdbvs	r4!, {r1, r4, r5, r6, r8, sl, sp, lr}^
     e80:	63616676 	cmnvs	r1, #123731968	; 0x7600000
     e84:	00726f74 	rsbseq	r6, r2, r4, ror pc
     e88:	74737953 	ldrbtvc	r7, [r3], #-2387	; 0xfffff6ad
     e8c:	6e496d65 	cdpvs	13, 4, cr6, cr9, cr5, {3}
     e90:	53007469 	movwpl	r7, #1129	; 0x469
     e94:	65747379 	ldrbvs	r7, [r4, #-889]!	; 0xfffffc87
     e98:	726f436d 	rsbvc	r4, pc, #-1275068415	; 0xb4000001
     e9c:	6f6c4365 	svcvs	0x006c4365
     ea0:	70556b63 	subsvc	r6, r5, r3, ror #22
     ea4:	65746164 	ldrbvs	r6, [r4, #-356]!	; 0xfffffe9c
     ea8:	615f5f00 	cmpvs	pc, r0, lsl #30
     eac:	69786574 	ldmdbvs	r8!, {r2, r4, r5, r6, r8, sl, sp, lr}^
     eb0:	79745f74 	ldmdbvc	r4!, {r2, r4, r5, r6, r8, r9, sl, fp, ip, lr}^
     eb4:	00736570 	rsbseq	r6, r3, r0, ror r5
     eb8:	2e2f2e2e 	cdpcs	14, 2, cr2, cr15, cr14, {1}
     ebc:	2e2e2f2e 	cdpcs	15, 2, cr2, cr14, cr14, {1}
     ec0:	2f2e2e2f 	svccs	0x002e2e2f
     ec4:	2e2f2e2e 	cdpcs	14, 2, cr2, cr15, cr14, {1}
     ec8:	656e2f2e 	strbvs	r2, [lr, #-3886]!	; 0xfffff0d2
     ecc:	62696c77 	rsbvs	r6, r9, #30464	; 0x7700
     ed0:	62696c2f 	rsbvs	r6, r9, #12032	; 0x2f00
     ed4:	74732f63 	ldrbtvc	r2, [r3], #-3939	; 0xfffff09d
     ed8:	62696c64 	rsbvs	r6, r9, #100, 24	; 0x6400
     edc:	6574612f 	ldrbvs	r6, [r4, #-303]!	; 0xfffffed1
     ee0:	2e746978 	mrccs	9, 3, r6, cr4, cr8, {3}
     ee4:	4e470063 	cdpmi	0, 4, cr0, cr7, cr3, {3}
     ee8:	20432055 	subcs	r2, r3, r5, asr r0
     eec:	2e392e34 	mrccs	14, 1, r2, cr9, cr4, {1}
     ef0:	30322033 	eorscc	r2, r2, r3, lsr r0
     ef4:	35303531 	ldrcc	r3, [r0, #-1329]!	; 0xfffffacf
     ef8:	28203932 	stmdacs	r0!, {r1, r4, r5, r8, fp, ip, sp}
     efc:	72657270 	rsbvc	r7, r5, #112, 4
     f00:	61656c65 	cmnvs	r5, r5, ror #24
     f04:	20296573 	eorcs	r6, r9, r3, ror r5
     f08:	68746d2d 	ldmdavs	r4!, {r0, r2, r3, r5, r8, sl, fp, sp, lr}^
     f0c:	20626d75 	rsbcs	r6, r2, r5, ror sp
     f10:	72616d2d 	rsbvc	r6, r1, #2880	; 0xb40
     f14:	613d6863 	teqvs	sp, r3, ror #16
     f18:	36766d72 			; <UNDEFINED> instruction: 0x36766d72
     f1c:	206d2d73 	rsbcs	r2, sp, r3, ror sp
     f20:	68746d2d 	ldmdavs	r4!, {r0, r2, r3, r5, r8, sl, fp, sp, lr}^
     f24:	20626d75 	rsbcs	r6, r2, r5, ror sp
     f28:	72616d2d 	rsbvc	r6, r1, #2880	; 0xb40
     f2c:	613d6863 	teqvs	sp, r3, ror #16
     f30:	36766d72 			; <UNDEFINED> instruction: 0x36766d72
     f34:	206d2d73 	rsbcs	r2, sp, r3, ror sp
     f38:	2d20672d 	stccs	7, cr6, [r0, #-180]!	; 0xffffff4c
     f3c:	2d20324f 	sfmcs	f3, 4, [r0, #-316]!	; 0xfffffec4
     f40:	2d6f6e66 	stclcs	14, cr6, [pc, #-408]!	; db0 <_Min_Stack_Size+0x9b0>
     f44:	6c697562 	cfstr64vs	mvdx7, [r9], #-392	; 0xfffffe78
     f48:	206e6974 	rsbcs	r6, lr, r4, ror r9
     f4c:	7566662d 	strbvc	r6, [r6, #-1581]!	; 0xfffff9d3
     f50:	6974636e 	ldmdbvs	r4!, {r1, r2, r3, r5, r6, r8, r9, sp, lr}^
     f54:	732d6e6f 			; <UNDEFINED> instruction: 0x732d6e6f
     f58:	69746365 	ldmdbvs	r4!, {r0, r2, r5, r6, r8, r9, sp, lr}^
     f5c:	20736e6f 	rsbscs	r6, r3, pc, ror #28
     f60:	6164662d 	cmnvs	r4, sp, lsr #12
     f64:	732d6174 			; <UNDEFINED> instruction: 0x732d6174
     f68:	69746365 	ldmdbvs	r4!, {r0, r2, r5, r6, r8, r9, sp, lr}^
     f6c:	00736e6f 	rsbseq	r6, r3, pc, ror #28
     f70:	74655f5f 	strbtvc	r5, [r5], #-3935	; 0xfffff0a1
     f74:	6178635f 	cmnvs	r8, pc, asr r3
     f78:	725f5f00 	subsvc	r5, pc, #0, 30
     f7c:	73696765 	cmnvc	r9, #26476544	; 0x1940000
     f80:	5f726574 	svcpl	0x00726574
     f84:	74697865 	strbtvc	r7, [r9], #-2149	; 0xfffff79b
     f88:	636f7270 	cmnvs	pc, #112, 4
     f8c:	655f5f00 	ldrbvs	r5, [pc, #-3840]	; 94 <_Min_Heap_Size-0x16c>
     f90:	6e6f5f74 	mcrvs	15, 3, r5, cr15, cr4, {3}
     f94:	74697865 	strbtvc	r7, [r9], #-2149	; 0xfffff79b
     f98:	75622f00 	strbvc	r2, [r2, #-3840]!	; 0xfffff100
     f9c:	2f646c69 	svccs	0x00646c69
     fa0:	6c77656e 	cfldr64vs	mvdx6, [r7], #-440	; 0xfffffe48
     fa4:	352d6269 	strcc	r6, [sp, #-617]!	; 0xfffffd97
     fa8:	7870777a 	ldmdavc	r0!, {r1, r3, r4, r5, r6, r8, r9, sl, ip, sp, lr}^
     fac:	656e2f45 	strbvs	r2, [lr, #-3909]!	; 0xfffff0bb
     fb0:	62696c77 	rsbvs	r6, r9, #30464	; 0x7700
     fb4:	322e322d 	eorcc	r3, lr, #-805306366	; 0xd0000002
     fb8:	672b302e 	strvs	r3, [fp, -lr, lsr #32]!
     fbc:	30327469 	eorscc	r7, r2, r9, ror #8
     fc0:	38303531 	ldmdacc	r0!, {r0, r4, r5, r8, sl, ip, sp}
     fc4:	352e3033 	strcc	r3, [lr, #-51]!	; 0xffffffcd
     fc8:	35643361 	strbcc	r3, [r4, #-865]!	; 0xfffffc9f
     fcc:	622f3633 	eorvs	r3, pc, #53477376	; 0x3300000
     fd0:	646c6975 	strbtvs	r6, [ip], #-2421	; 0xfffff68b
     fd4:	6d72612f 	ldfvse	f6, [r2, #-188]!	; 0xffffff44
     fd8:	6e6f6e2d 	cdpvs	14, 6, cr6, cr15, cr13, {1}
     fdc:	61652d65 	cmnvs	r5, r5, ror #26
     fe0:	612f6962 			; <UNDEFINED> instruction: 0x612f6962
     fe4:	36766d72 			; <UNDEFINED> instruction: 0x36766d72
     fe8:	6e2f6d2d 	cdpvs	13, 2, cr6, cr15, cr13, {1}
     fec:	696c7765 	stmdbvs	ip!, {r0, r2, r5, r6, r8, r9, sl, ip, sp, lr}^
     ff0:	696c2f62 	stmdbvs	ip!, {r1, r5, r6, r8, r9, sl, fp, sp}^
     ff4:	732f6362 			; <UNDEFINED> instruction: 0x732f6362
     ff8:	696c6474 	stmdbvs	ip!, {r2, r4, r5, r6, sl, sp, lr}^
     ffc:	5f5f0062 	svcpl	0x005f0062
    1000:	615f7465 	cmpvs	pc, r5, ror #8
    1004:	69786574 	ldmdbvs	r8!, {r2, r4, r5, r6, r8, sl, sp, lr}^
    1008:	69730074 	ldmdbvs	r3!, {r2, r4, r5, r6}^
    100c:	745f657a 	ldrbvc	r6, [pc], #-1402	; 1014 <_Min_Stack_Size+0xc14>
    1010:	665f5f00 	ldrbvs	r5, [pc], -r0, lsl #30
    1014:	5f696e69 	svcpl	0x00696e69
    1018:	61727261 	cmnvs	r2, r1, ror #4
    101c:	74735f79 	ldrbtvc	r5, [r3], #-3961	; 0xfffff087
    1020:	00747261 	rsbseq	r7, r4, r1, ror #4
    1024:	69665f5f 	stmdbvs	r6!, {r0, r1, r2, r3, r4, r6, r8, r9, sl, fp, ip, lr}^
    1028:	615f696e 	cmpvs	pc, lr, ror #18
    102c:	79617272 	stmdbvc	r1!, {r1, r4, r5, r6, r9, ip, sp, lr}^
    1030:	646e655f 	strbtvs	r6, [lr], #-1375	; 0xfffffaa1
    1034:	2f2e2e00 	svccs	0x002e2e00
    1038:	2e2f2e2e 	cdpcs	14, 2, cr2, cr15, cr14, {1}
    103c:	2e2e2f2e 	cdpcs	15, 2, cr2, cr14, cr14, {1}
    1040:	2f2e2e2f 	svccs	0x002e2e2f
    1044:	6e2f2e2e 	cdpvs	14, 2, cr2, cr15, cr14, {1}
    1048:	696c7765 	stmdbvs	ip!, {r0, r2, r5, r6, r8, r9, sl, ip, sp, lr}^
    104c:	696c2f62 	stmdbvs	ip!, {r1, r5, r6, r8, r9, sl, fp, sp}^
    1050:	6d2f6362 	stcvs	3, cr6, [pc, #-392]!	; ed0 <_Min_Stack_Size+0xad0>
    1054:	2f637369 	svccs	0x00637369
    1058:	696e6966 	stmdbvs	lr!, {r1, r2, r5, r6, r8, fp, sp, lr}^
    105c:	5f00632e 	svcpl	0x0000632e
    1060:	62696c5f 	rsbvs	r6, r9, #24320	; 0x5f00
    1064:	69665f63 	stmdbvs	r6!, {r0, r1, r5, r6, r8, r9, sl, fp, ip, lr}^
    1068:	615f696e 	cmpvs	pc, lr, ror #18
    106c:	79617272 	stmdbvc	r1!, {r1, r4, r5, r6, r9, ip, sp, lr}^
    1070:	75622f00 	strbvc	r2, [r2, #-3840]!	; 0xfffff100
    1074:	2f646c69 	svccs	0x00646c69
    1078:	6c77656e 	cfldr64vs	mvdx6, [r7], #-440	; 0xfffffe48
    107c:	352d6269 	strcc	r6, [sp, #-617]!	; 0xfffffd97
    1080:	7870777a 	ldmdavc	r0!, {r1, r3, r4, r5, r6, r8, r9, sl, ip, sp, lr}^
    1084:	656e2f45 	strbvs	r2, [lr, #-3909]!	; 0xfffff0bb
    1088:	62696c77 	rsbvs	r6, r9, #30464	; 0x7700
    108c:	322e322d 	eorcc	r3, lr, #-805306366	; 0xd0000002
    1090:	672b302e 	strvs	r3, [fp, -lr, lsr #32]!
    1094:	30327469 	eorscc	r7, r2, r9, ror #8
    1098:	38303531 	ldmdacc	r0!, {r0, r4, r5, r8, sl, ip, sp}
    109c:	352e3033 	strcc	r3, [lr, #-51]!	; 0xffffffcd
    10a0:	35643361 	strbcc	r3, [r4, #-865]!	; 0xfffffc9f
    10a4:	622f3633 	eorvs	r3, pc, #53477376	; 0x3300000
    10a8:	646c6975 	strbtvs	r6, [ip], #-2421	; 0xfffff68b
    10ac:	6d72612f 	ldfvse	f6, [r2, #-188]!	; 0xffffff44
    10b0:	6e6f6e2d 	cdpvs	14, 6, cr6, cr15, cr13, {1}
    10b4:	61652d65 	cmnvs	r5, r5, ror #26
    10b8:	612f6962 			; <UNDEFINED> instruction: 0x612f6962
    10bc:	36766d72 			; <UNDEFINED> instruction: 0x36766d72
    10c0:	6e2f6d2d 	cdpvs	13, 2, cr6, cr15, cr13, {1}
    10c4:	696c7765 	stmdbvs	ip!, {r0, r2, r5, r6, r8, r9, sl, ip, sp, lr}^
    10c8:	696c2f62 	stmdbvs	ip!, {r1, r5, r6, r8, r9, sl, fp, sp}^
    10cc:	6d2f6362 	stcvs	3, cr6, [pc, #-392]!	; f4c <_Min_Stack_Size+0xb4c>
    10d0:	00637369 	rsbeq	r7, r3, r9, ror #6
    10d4:	64735f5f 	ldrbtvs	r5, [r3], #-3935	; 0xfffff0a1
    10d8:	6e696469 	cdpvs	4, 6, cr6, cr9, cr9, {3}
    10dc:	5f007469 	svcpl	0x00007469
    10e0:	67616c66 	strbvs	r6, [r1, -r6, ror #24]!
    10e4:	5f003273 	svcpl	0x00003273
    10e8:	656c626d 	strbvs	r6, [ip, #-621]!	; 0xfffffd93
    10ec:	74735f6e 	ldrbtvc	r5, [r3], #-3950	; 0xfffff092
    10f0:	00657461 	rsbeq	r7, r5, r1, ror #8
    10f4:	34366c5f 	ldrtcc	r6, [r6], #-3167	; 0xfffff3a1
    10f8:	75625f61 	strbvc	r5, [r2, #-3937]!	; 0xfffff09f
    10fc:	6d690066 	stclvs	0, cr0, [r9, #-408]!	; 0xfffffe68
    1100:	65727570 	ldrbvs	r7, [r2, #-1392]!	; 0xfffffa90
    1104:	7461645f 	strbtvc	r6, [r1], #-1119	; 0xfffffba1
    1108:	6f5f0061 	svcvs	0x005f0061
    110c:	745f6666 	ldrbvc	r6, [pc], #-1638	; 1114 <_Min_Stack_Size+0xd14>
    1110:	775f5f00 	ldrbvc	r5, [pc, -r0, lsl #30]
    1114:	2f006863 	svccs	0x00006863
    1118:	6c697562 	cfstr64vs	mvdx7, [r9], #-392	; 0xfffffe78
    111c:	656e2f64 	strbvs	r2, [lr, #-3940]!	; 0xfffff09c
    1120:	62696c77 	rsbvs	r6, r9, #30464	; 0x7700
    1124:	777a352d 	ldrbvc	r3, [sl, -sp, lsr #10]!
    1128:	2f457870 	svccs	0x00457870
    112c:	6c77656e 	cfldr64vs	mvdx6, [r7], #-440	; 0xfffffe48
    1130:	322d6269 	eorcc	r6, sp, #-1879048186	; 0x90000006
    1134:	302e322e 	eorcc	r3, lr, lr, lsr #4
    1138:	7469672b 	strbtvc	r6, [r9], #-1835	; 0xfffff8d5
    113c:	35313032 	ldrcc	r3, [r1, #-50]!	; 0xffffffce
    1140:	30333830 	eorscc	r3, r3, r0, lsr r8
    1144:	3361352e 	cmncc	r1, #192937984	; 0xb800000
    1148:	36333564 	ldrtcc	r3, [r3], -r4, ror #10
    114c:	6975622f 	ldmdbvs	r5!, {r0, r1, r2, r3, r5, r9, sp, lr}^
    1150:	612f646c 			; <UNDEFINED> instruction: 0x612f646c
    1154:	6e2d6d72 	mcrvs	13, 1, r6, cr13, cr2, {3}
    1158:	2d656e6f 	stclcs	14, cr6, [r5, #-444]!	; 0xfffffe44
    115c:	69626165 	stmdbvs	r2!, {r0, r2, r5, r6, r8, sp, lr}^
    1160:	6d72612f 	ldfvse	f6, [r2, #-188]!	; 0xffffff44
    1164:	6d2d3676 	stcvs	6, cr3, [sp, #-472]!	; 0xfffffe28
    1168:	77656e2f 	strbvc	r6, [r5, -pc, lsr #28]!
    116c:	2f62696c 	svccs	0x0062696c
    1170:	6362696c 	cmnvs	r2, #108, 18	; 0x1b0000
    1174:	6565722f 	strbvs	r7, [r5, #-559]!	; 0xfffffdd1
    1178:	5f00746e 	svcpl	0x0000746e
    117c:	6c61765f 	stclvs	6, cr7, [r1], #-380	; 0xfffffe84
    1180:	5f006575 	svcpl	0x00006575
    1184:	7562735f 	strbvc	r7, [r2, #-863]!	; 0xfffffca1
    1188:	725f0066 	subsvc	r0, pc, #102	; 0x66
    118c:	6c757365 	ldclvs	3, cr7, [r5], #-404	; 0xfffffe6c
    1190:	006b5f74 	rsbeq	r5, fp, r4, ror pc
    1194:	66666f5f 	uqsaxvs	r6, r6, pc	; <UNPREDICTABLE>
    1198:	00746573 	rsbseq	r6, r4, r3, ror r5
    119c:	66735f5f 	uhsaxvs	r5, r3, pc	; <UNPREDICTABLE>
    11a0:	69735f00 	ldmdbvs	r3!, {r8, r9, sl, fp, ip, lr}^
    11a4:	6c616e67 	stclvs	14, cr6, [r1], #-412	; 0xfffffe64
    11a8:	6675625f 			; <UNDEFINED> instruction: 0x6675625f
    11ac:	63775f00 	cmnvs	r7, #0, 30
    11b0:	6f747273 	svcvs	0x00747273
    11b4:	5f73626d 	svcpl	0x0073626d
    11b8:	74617473 	strbtvc	r7, [r1], #-1139	; 0xfffffb8d
    11bc:	665f0065 	ldrbvs	r0, [pc], -r5, rrx
    11c0:	7367616c 	cmnvc	r7, #108, 2
    11c4:	72775f00 	rsbsvc	r5, r7, #0, 30
    11c8:	00657469 	rsbeq	r7, r5, r9, ror #8
    11cc:	636f6c5f 	cmnvs	pc, #24320	; 0x5f00
    11d0:	69746c61 	ldmdbvs	r4!, {r0, r5, r6, sl, fp, sp, lr}^
    11d4:	625f656d 	subsvs	r6, pc, #457179136	; 0x1b400000
    11d8:	5f006675 	svcpl	0x00006675
    11dc:	756f635f 	strbvc	r6, [pc, #-863]!	; e85 <_Min_Stack_Size+0xa85>
    11e0:	5f00746e 	svcpl	0x0000746e
    11e4:	5f6d745f 	svcpl	0x006d745f
    11e8:	7961646d 	stmdbvc	r1!, {r0, r2, r3, r5, r6, sl, sp, lr}^
    11ec:	6c675f00 	stclvs	15, cr5, [r7], #-0
    11f0:	5f006575 	svcpl	0x00006575
    11f4:	7273626d 	rsbsvc	r6, r3, #-805306362	; 0xd0000006
    11f8:	63776f74 	cmnvs	r7, #116, 30	; 0x1d0
    11fc:	74735f73 	ldrbtvc	r5, [r3], #-3955	; 0xfffff08d
    1200:	00657461 	rsbeq	r7, r5, r1, ror #8
    1204:	3834725f 	ldmdacc	r4!, {r0, r1, r2, r3, r4, r6, r9, ip, sp, lr}
    1208:	74735f00 	ldrbtvc	r5, [r3], #-3840	; 0xfffff100
    120c:	74756f64 	ldrbtvc	r6, [r5], #-3940	; 0xfffff09c
    1210:	6d655f00 	stclvs	15, cr5, [r5, #-0]
    1214:	65677265 	strbvs	r7, [r7, #-613]!	; 0xfffffd9b
    1218:	0079636e 	rsbseq	r6, r9, lr, ror #6
    121c:	7476635f 	ldrbtvc	r6, [r6], #-863	; 0xfffffca1
    1220:	006e656c 	rsbeq	r6, lr, ip, ror #10
    1224:	75626e5f 	strbvc	r6, [r2, #-3679]!	; 0xfffff1a1
    1228:	4c5f0066 	mrrcmi	0, 6, r0, pc, cr6	; <UNPREDICTABLE>
    122c:	5f4b434f 	svcpl	0x004b434f
    1230:	55434552 	strbpl	r4, [r3, #-1362]	; 0xfffffaae
    1234:	56495352 			; <UNDEFINED> instruction: 0x56495352
    1238:	00545f45 	subseq	r5, r4, r5, asr #30
    123c:	6f696e5f 	svcvs	0x00696e5f
    1240:	5f007362 	svcpl	0x00007362
    1244:	4c49465f 	mcrrmi	6, 5, r4, r9, cr15
    1248:	675f0045 	ldrbvs	r0, [pc, -r5, asr #32]
    124c:	61647465 	cmnvs	r4, r5, ror #8
    1250:	655f6574 	ldrbvs	r6, [pc, #-1396]	; ce4 <_Min_Stack_Size+0x8e4>
    1254:	5f007272 	svcpl	0x00007272
    1258:	5f6d745f 	svcpl	0x006d745f
    125c:	006e696d 	rsbeq	r6, lr, sp, ror #18
    1260:	6769735f 			; <UNDEFINED> instruction: 0x6769735f
    1264:	6e75665f 	mrcvs	6, 3, r6, cr5, cr15, {2}
    1268:	6e5f0063 	cdpvs	0, 5, cr0, cr15, cr3, {3}
    126c:	6c6c616d 	stfvse	f6, [ip], #-436	; 0xfffffe4c
    1270:	5f00636f 	svcpl	0x0000636f
    1274:	65657266 	strbvs	r7, [r5, #-614]!	; 0xfffffd9a
    1278:	7473696c 	ldrbtvc	r6, [r3], #-2412	; 0xfffff694
    127c:	6e665f00 	cdpvs	15, 6, cr5, cr6, cr0, {0}
    1280:	6d5f0073 	ldclvs	0, cr0, [pc, #-460]	; 10bc <_Min_Stack_Size+0xcbc>
    1284:	61747362 	cmnvs	r4, r2, ror #6
    1288:	5f006574 	svcpl	0x00006574
    128c:	5f6d745f 	svcpl	0x006d745f
    1290:	79616477 	stmdbvc	r1!, {r0, r1, r2, r4, r5, r6, sl, sp, lr}^
    1294:	6e665f00 	cdpvs	15, 6, cr5, cr6, cr0, {0}
    1298:	73677261 	cmnvc	r7, #268435462	; 0x10000006
    129c:	626c5f00 	rsbvs	r5, ip, #0, 30
    12a0:	7a697366 	bvc	1a5e040 <_Min_Stack_Size+0x1a5dc40>
    12a4:	695f0065 	ldmdbvs	pc, {r0, r2, r5, r6}^	; <UNPREDICTABLE>
    12a8:	0073626f 	rsbseq	r6, r3, pc, ror #4
    12ac:	6c756d5f 	ldclvs	13, cr6, [r5], #-380	; 0xfffffe84
    12b0:	5f5f0074 	svcpl	0x005f0074
    12b4:	695f6d74 	ldmdbvs	pc, {r2, r4, r5, r6, r8, sl, fp, sp, lr}^	; <UNPREDICTABLE>
    12b8:	74736473 	ldrbtvc	r6, [r3], #-1139	; 0xfffffb8d
    12bc:	74615f00 	strbtvc	r5, [r1], #-3840	; 0xfffff100
    12c0:	74697865 	strbtvc	r7, [r9], #-2149	; 0xfffff79b
    12c4:	625f0030 	subsvs	r0, pc, #48	; 0x30
    12c8:	69736b6c 	ldmdbvs	r3!, {r2, r3, r5, r6, r8, r9, fp, sp, lr}^
    12cc:	5f00657a 	svcpl	0x0000657a
    12d0:	79746e66 	ldmdbvc	r4!, {r1, r2, r5, r6, r9, sl, fp, sp, lr}^
    12d4:	00736570 	rsbseq	r6, r3, r0, ror r5
    12d8:	6f70665f 	svcvs	0x0070665f
    12dc:	00745f73 	rsbseq	r5, r4, r3, ror pc
    12e0:	6f6c635f 	svcvs	0x006c635f
    12e4:	5f006573 	svcpl	0x00006573
    12e8:	636f6c66 	cmnvs	pc, #26112	; 0x6600
    12ec:	00745f6b 	rsbseq	r5, r4, fp, ror #30
    12f0:	6f6c675f 	svcvs	0x006c675f
    12f4:	5f6c6162 	svcpl	0x006c6162
    12f8:	75706d69 	ldrbvc	r6, [r0, #-3433]!	; 0xfffff297
    12fc:	705f6572 	subsvc	r6, pc, r2, ror r5	; <UNPREDICTABLE>
    1300:	5f007274 	svcpl	0x00007274
    1304:	5f6d745f 	svcpl	0x006d745f
    1308:	00636573 	rsbeq	r6, r3, r3, ror r5
    130c:	6d745f5f 	ldclvs	15, cr5, [r4, #-380]!	; 0xfffffe84
    1310:	756f685f 	strbvc	r6, [pc, #-2143]!	; ab9 <_Min_Stack_Size+0x6b9>
    1314:	725f0072 	subsvc	r0, pc, #114	; 0x72
    1318:	00646165 	rsbeq	r6, r4, r5, ror #2
    131c:	78656e5f 	stmdavc	r5!, {r0, r1, r2, r3, r4, r6, r9, sl, fp, sp, lr}^
    1320:	5f006674 	svcpl	0x00006674
    1324:	65647473 	strbvs	r7, [r4, #-1139]!	; 0xfffffb8d
    1328:	5f007272 	svcpl	0x00007272
    132c:	6863775f 	stmdavs	r3!, {r0, r1, r2, r3, r4, r6, r8, r9, sl, ip, sp, lr}^
    1330:	2e2e0062 	cdpcs	0, 2, cr0, cr14, cr2, {3}
    1334:	2f2e2e2f 	svccs	0x002e2e2f
    1338:	2e2f2e2e 	cdpcs	14, 2, cr2, cr15, cr14, {1}
    133c:	2e2e2f2e 	cdpcs	15, 2, cr2, cr14, cr14, {1}
    1340:	2f2e2e2f 	svccs	0x002e2e2f
    1344:	6c77656e 	cfldr64vs	mvdx6, [r7], #-440	; 0xfffffe48
    1348:	6c2f6269 	sfmvs	f6, 4, [pc], #-420	; 11ac <_Min_Stack_Size+0xdac>
    134c:	2f636269 	svccs	0x00636269
    1350:	6e656572 	mcrvs	5, 3, r6, cr5, cr2, {3}
    1354:	6d692f74 	stclvs	15, cr2, [r9, #-464]!	; 0xfffffe30
    1358:	65727570 	ldrbvs	r7, [r2, #-1392]!	; 0xfffffa90
    135c:	5f00632e 	svcpl	0x0000632e
    1360:	72655f68 	rsbvc	r5, r5, #104, 30	; 0x1a0
    1364:	006f6e72 	rsbeq	r6, pc, r2, ror lr	; <UNPREDICTABLE>
    1368:	67735f5f 			; <UNDEFINED> instruction: 0x67735f5f
    136c:	0065756c 	rsbeq	r7, r5, ip, ror #10
    1370:	5f6e6f5f 	svcpl	0x006e6f5f
    1374:	74697865 	strbtvc	r7, [r9], #-2149	; 0xfffff79b
    1378:	6772615f 			; <UNDEFINED> instruction: 0x6772615f
    137c:	6d5f0073 	ldclvs	0, cr0, [pc, #-460]	; 11b8 <_Min_Stack_Size+0xdb8>
    1380:	6f747262 	svcvs	0x00747262
    1384:	735f6377 	cmpvc	pc, #-603979775	; 0xdc000001
    1388:	65746174 	ldrbvs	r6, [r4, #-372]!	; 0xfffffe8c
    138c:	76635f00 	strbtvc	r5, [r3], -r0, lsl #30
    1390:	66756274 			; <UNDEFINED> instruction: 0x66756274
    1394:	6f635f00 	svcvs	0x00635f00
    1398:	65696b6f 	strbvs	r6, [r9, #-2927]!	; 0xfffff491
    139c:	61625f00 	cmnvs	r2, r0, lsl #30
    13a0:	5f006573 	svcpl	0x00006573
    13a4:	656c6966 	strbvs	r6, [ip, #-2406]!	; 0xfffff69a
    13a8:	61675f00 	cmnvs	r7, r0, lsl #30
    13ac:	5f616d6d 	svcpl	0x00616d6d
    13b0:	6e676973 	mcrvs	9, 3, r6, cr7, cr3, {3}
    13b4:	006d6167 	rsbeq	r6, sp, r7, ror #2
    13b8:	756e755f 	strbvc	r7, [lr, #-1375]!	; 0xfffffaa1
    13bc:	5f646573 	svcpl	0x00646573
    13c0:	646e6172 	strbtvs	r6, [lr], #-370	; 0xfffffe8e
    13c4:	64775f00 	ldrbtvs	r5, [r7], #-3840	; 0xfffff100
    13c8:	5f5f0073 	svcpl	0x005f0073
    13cc:	5f006d74 	svcpl	0x00006d74
    13d0:	73756e75 	cmnvc	r5, #1872	; 0x750
    13d4:	5f006465 	svcpl	0x00006465
    13d8:	6f74626d 	svcvs	0x0074626d
    13dc:	735f6377 	cmpvc	pc, #-603979775	; 0xdc000001
    13e0:	65746174 	ldrbvs	r6, [r4, #-372]!	; 0xfffffe8c
    13e4:	6e697700 	cdpvs	7, 6, cr7, cr9, cr0, {0}
    13e8:	00745f74 	rsbseq	r5, r4, r4, ror pc
    13ec:	72626d5f 	rsbvc	r6, r2, #6080	; 0x17c0
    13f0:	5f6e656c 	svcpl	0x006e656c
    13f4:	74617473 	strbtvc	r7, [r1], #-1139	; 0xfffffb8d
    13f8:	635f0065 	cmpvs	pc, #101	; 0x65
    13fc:	65727275 	ldrbvs	r7, [r2, #-629]!	; 0xfffffd8b
    1400:	635f746e 	cmpvs	pc, #1845493760	; 0x6e000000
    1404:	67657461 	strbvs	r7, [r5, -r1, ror #8]!
    1408:	0079726f 	rsbseq	r7, r9, pc, ror #4
    140c:	5f73695f 	svcpl	0x0073695f
    1410:	00617863 	rsbeq	r7, r1, r3, ror #16
    1414:	6c635f5f 	stclvs	15, cr5, [r3], #-380	; 0xfffffe84
    1418:	756e6165 	strbvc	r6, [lr, #-357]!	; 0xfffffe9b
    141c:	6d5f0070 	ldclvs	0, cr0, [pc, #-448]	; 1264 <_Min_Stack_Size+0xe64>
    1420:	61747362 	cmnvs	r4, r2, ror #6
    1424:	745f6574 	ldrbvc	r6, [pc], #-1396	; 142c <_Min_Stack_Size+0x102c>
    1428:	69425f00 	stmdbvs	r2, {r8, r9, sl, fp, ip, lr}^
    142c:	746e6967 	strbtvc	r6, [lr], #-2407	; 0xfffff699
    1430:	616d5f00 	cmnvs	sp, r0, lsl #30
    1434:	73647778 	cmnvc	r4, #120, 14	; 0x1e00000
    1438:	745f5f00 	ldrbvc	r5, [pc], #-3840	; 1440 <_Min_Stack_Size+0x1040>
    143c:	65795f6d 	ldrbvs	r5, [r9, #-3949]!	; 0xfffff093
    1440:	5f007261 	svcpl	0x00007261
    1444:	74727473 	ldrbtvc	r7, [r2], #-1139	; 0xfffffb8d
    1448:	6c5f6b6f 	mrrcvs	11, 6, r6, pc, cr15	; <UNPREDICTABLE>
    144c:	00747361 	rsbseq	r7, r4, r1, ror #6
    1450:	6565735f 	strbvs	r7, [r5, #-863]!	; 0xfffffca1
    1454:	725f0064 	subsvc	r0, pc, #100	; 0x64
    1458:	34646e61 	strbtcc	r6, [r4], #-3681	; 0xfffff19f
    145c:	5f5f0038 	svcpl	0x005f0038
    1460:	795f6d74 	ldmdbvc	pc, {r2, r4, r5, r6, r8, sl, fp, sp, lr}^	; <UNPREDICTABLE>
    1464:	00796164 	rsbseq	r6, r9, r4, ror #2
    1468:	4c555f5f 	mrrcmi	15, 5, r5, r5, cr15	; <UNPREDICTABLE>
    146c:	00676e6f 	rsbeq	r6, r7, pc, ror #28
    1470:	6565735f 	strbvs	r7, [r5, #-863]!	; 0xfffffca1
    1474:	725f006b 	subsvc	r0, pc, #107	; 0x6b
    1478:	6c757365 	ldclvs	3, cr7, [r5], #-404	; 0xfffffe6c
    147c:	5f5f0074 	svcpl	0x005f0074
    1480:	6d5f6d74 	ldclvs	13, cr6, [pc, #-464]	; 12b8 <_Min_Stack_Size+0xeb8>
    1484:	5f006e6f 	svcpl	0x00006e6f
    1488:	00646461 	rsbeq	r6, r4, r1, ror #8
    148c:	636e695f 	cmnvs	lr, #1556480	; 0x17c000
    1490:	6e695f00 	cdpvs	15, 6, cr5, cr9, cr0, {0}
    1494:	775f0064 	ldrbvc	r0, [pc, -r4, rrx]
    1498:	6d6f7463 	cfstrdvs	mvd7, [pc, #-396]!	; 1314 <_Min_Stack_Size+0xf14>
    149c:	74735f62 	ldrbtvc	r5, [r3], #-3938	; 0xfffff09e
    14a0:	00657461 	rsbeq	r7, r5, r1, ror #8
    14a4:	6f73645f 	svcvs	0x0073645f
    14a8:	6e61685f 	mcrvs	8, 3, r6, cr1, cr15, {2}
    14ac:	00656c64 	rsbeq	r6, r5, r4, ror #24
    14b0:	7335705f 	teqvc	r5, #95	; 0x5f
    14b4:	69735f00 	ldmdbvs	r3!, {r8, r9, sl, fp, ip, lr}^
    14b8:	5f006e67 	svcpl	0x00006e67
    14bc:	646e6172 	strbtvs	r6, [lr], #-370	; 0xfffffe8e
    14c0:	78656e5f 	stmdavc	r5!, {r0, r1, r2, r3, r4, r6, r9, sl, fp, sp, lr}^
    14c4:	735f0074 	cmpvc	pc, #116	; 0x74
    14c8:	6e696474 	mcrvs	4, 3, r6, cr9, cr4, {3}
    14cc:	75635f00 	strbvc	r5, [r3, #-3840]!	; 0xfffff100
    14d0:	6e657272 	mcrvs	2, 3, r7, cr5, cr2, {3}
    14d4:	6f6c5f74 	svcvs	0x006c5f74
    14d8:	656c6163 	strbvs	r6, [ip, #-355]!	; 0xfffffe9d
    14dc:	65725f00 	ldrbvs	r5, [r2, #-3840]!	; 0xfffff100
    14e0:	00746e65 	rsbseq	r6, r4, r5, ror #28
    14e4:	7263775f 	rsbvc	r7, r3, #24903680	; 0x17c0000
    14e8:	626d6f74 	rsbvs	r6, sp, #116, 30	; 0x1d0
    14ec:	6174735f 	cmnvs	r4, pc, asr r3
    14f0:	5f006574 	svcpl	0x00006574
    14f4:	66756275 			; <UNDEFINED> instruction: 0x66756275
    14f8:	69735f00 	ldmdbvs	r3!, {r8, r9, sl, fp, ip, lr}^
    14fc:	5f00657a 	svcpl	0x0000657a
    1500:	74637361 	strbtvc	r7, [r3], #-865	; 0xfffffc9f
    1504:	5f656d69 	svcpl	0x00656d69
    1508:	00667562 	rsbeq	r7, r6, r2, ror #10
    150c:	46735f5f 	uhsaxmi	r5, r3, pc	; <UNPREDICTABLE>
    1510:	00454c49 	subeq	r4, r5, r9, asr #24
    1514:	77656e5f 			; <UNDEFINED> instruction: 0x77656e5f
    1518:	695f5f00 	ldmdbvs	pc, {r8, r9, sl, fp, ip, lr}^	; <UNPREDICTABLE>
    151c:	5f74696e 	svcpl	0x0074696e
    1520:	61727261 	cmnvs	r2, r1, ror #4
    1524:	74735f79 	ldrbtvc	r5, [r3], #-3961	; 0xfffff087
    1528:	00747261 	rsbseq	r7, r4, r1, ror #4
    152c:	696c5f5f 	stmdbvs	ip!, {r0, r1, r2, r3, r4, r6, r8, r9, sl, fp, ip, lr}^
    1530:	695f6362 	ldmdbvs	pc, {r1, r5, r6, r8, r9, sp, lr}^	; <UNPREDICTABLE>
    1534:	5f74696e 	svcpl	0x0074696e
    1538:	61727261 	cmnvs	r2, r1, ror #4
    153c:	5f5f0079 	svcpl	0x005f0079
    1540:	69657270 	stmdbvs	r5!, {r4, r5, r6, r9, ip, sp, lr}^
    1544:	5f74696e 	svcpl	0x0074696e
    1548:	61727261 	cmnvs	r2, r1, ror #4
    154c:	74735f79 	ldrbtvc	r5, [r3], #-3961	; 0xfffff087
    1550:	00747261 	rsbseq	r7, r4, r1, ror #4
    1554:	696e695f 	stmdbvs	lr!, {r0, r1, r2, r3, r4, r6, r8, fp, sp, lr}^
    1558:	2e2e0074 	mcrcs	0, 1, r0, cr14, cr4, {3}
    155c:	2f2e2e2f 	svccs	0x002e2e2f
    1560:	2e2f2e2e 	cdpcs	14, 2, cr2, cr15, cr14, {1}
    1564:	2e2e2f2e 	cdpcs	15, 2, cr2, cr14, cr14, {1}
    1568:	2f2e2e2f 	svccs	0x002e2e2f
    156c:	6c77656e 	cfldr64vs	mvdx6, [r7], #-440	; 0xfffffe48
    1570:	6c2f6269 	sfmvs	f6, 4, [pc], #-420	; 13d4 <_Min_Stack_Size+0xfd4>
    1574:	2f636269 	svccs	0x00636269
    1578:	6373696d 	cmnvs	r3, #1785856	; 0x1b4000
    157c:	696e692f 	stmdbvs	lr!, {r0, r1, r2, r3, r5, r8, fp, sp, lr}^
    1580:	00632e74 	rsbeq	r2, r3, r4, ror lr
    1584:	72705f5f 	rsbsvc	r5, r0, #380	; 0x17c
    1588:	696e6965 	stmdbvs	lr!, {r0, r2, r5, r6, r8, fp, sp, lr}^
    158c:	72615f74 	rsbvc	r5, r1, #116, 30	; 0x1d0
    1590:	5f796172 	svcpl	0x00796172
    1594:	00646e65 	rsbeq	r6, r4, r5, ror #28
    1598:	6e695f5f 	mcrvs	15, 3, r5, cr9, cr15, {2}
    159c:	615f7469 	cmpvs	pc, r9, ror #8
    15a0:	79617272 	stmdbvc	r1!, {r1, r4, r5, r6, r9, ip, sp, lr}^
    15a4:	646e655f 	strbtvs	r6, [lr], #-1375	; 0xfffffaa1
    15a8:	696c6100 	stmdbvs	ip!, {r8, sp, lr}^
    15ac:	64656e67 	strbtvs	r6, [r5], #-3687	; 0xfffff199
    15b0:	7473645f 	ldrbtvc	r6, [r3], #-1119	; 0xfffffba1
    15b4:	75622f00 	strbvc	r2, [r2, #-3840]!	; 0xfffff100
    15b8:	2f646c69 	svccs	0x00646c69
    15bc:	6c77656e 	cfldr64vs	mvdx6, [r7], #-440	; 0xfffffe48
    15c0:	352d6269 	strcc	r6, [sp, #-617]!	; 0xfffffd97
    15c4:	7870777a 	ldmdavc	r0!, {r1, r3, r4, r5, r6, r8, r9, sl, ip, sp, lr}^
    15c8:	656e2f45 	strbvs	r2, [lr, #-3909]!	; 0xfffff0bb
    15cc:	62696c77 	rsbvs	r6, r9, #30464	; 0x7700
    15d0:	322e322d 	eorcc	r3, lr, #-805306366	; 0xd0000002
    15d4:	672b302e 	strvs	r3, [fp, -lr, lsr #32]!
    15d8:	30327469 	eorscc	r7, r2, r9, ror #8
    15dc:	38303531 	ldmdacc	r0!, {r0, r4, r5, r8, sl, ip, sp}
    15e0:	352e3033 	strcc	r3, [lr, #-51]!	; 0xffffffcd
    15e4:	35643361 	strbcc	r3, [r4, #-865]!	; 0xfffffc9f
    15e8:	622f3633 	eorvs	r3, pc, #53477376	; 0x3300000
    15ec:	646c6975 	strbtvs	r6, [ip], #-2421	; 0xfffff68b
    15f0:	6d72612f 	ldfvse	f6, [r2, #-188]!	; 0xffffff44
    15f4:	6e6f6e2d 	cdpvs	14, 6, cr6, cr15, cr13, {1}
    15f8:	61652d65 	cmnvs	r5, r5, ror #26
    15fc:	612f6962 			; <UNDEFINED> instruction: 0x612f6962
    1600:	36766d72 			; <UNDEFINED> instruction: 0x36766d72
    1604:	6e2f6d2d 	cdpvs	13, 2, cr6, cr15, cr13, {1}
    1608:	696c7765 	stmdbvs	ip!, {r0, r2, r5, r6, r8, r9, sl, ip, sp, lr}^
    160c:	696c2f62 	stmdbvs	ip!, {r1, r5, r6, r8, r9, sl, fp, sp}^
    1610:	732f6362 			; <UNDEFINED> instruction: 0x732f6362
    1614:	6e697274 	mcrvs	2, 3, r7, cr9, cr4, {3}
    1618:	72730067 	rsbsvc	r0, r3, #103	; 0x67
    161c:	64003063 	strvs	r3, [r0], #-99	; 0xffffff9d
    1620:	00307473 	eorseq	r7, r0, r3, ror r4
    1624:	67696c61 	strbvs	r6, [r9, -r1, ror #24]!
    1628:	5f64656e 	svcpl	0x0064656e
    162c:	00637273 	rsbeq	r7, r3, r3, ror r2
    1630:	2e2f2e2e 	cdpcs	14, 2, cr2, cr15, cr14, {1}
    1634:	2e2e2f2e 	cdpcs	15, 2, cr2, cr14, cr14, {1}
    1638:	2f2e2e2f 	svccs	0x002e2e2f
    163c:	2e2f2e2e 	cdpcs	14, 2, cr2, cr15, cr14, {1}
    1640:	656e2f2e 	strbvs	r2, [lr, #-3886]!	; 0xfffff0d2
    1644:	62696c77 	rsbvs	r6, r9, #30464	; 0x7700
    1648:	62696c2f 	rsbvs	r6, r9, #12032	; 0x2f00
    164c:	74732f63 	ldrbtvc	r2, [r3], #-3939	; 0xfffff09d
    1650:	676e6972 			; <UNDEFINED> instruction: 0x676e6972
    1654:	6d656d2f 	stclvs	13, cr6, [r5, #-188]!	; 0xffffff44
    1658:	2e797063 	cdpcs	0, 7, cr7, cr9, cr3, {3}
    165c:	656c0063 	strbvs	r0, [ip, #-99]!	; 0xffffff9d
    1660:	2e00306e 	cdpcs	0, 0, cr3, cr0, cr14, {3}
    1664:	2e2e2f2e 	cdpcs	15, 2, cr2, cr14, cr14, {1}
    1668:	2f2e2e2f 	svccs	0x002e2e2f
    166c:	2e2f2e2e 	cdpcs	14, 2, cr2, cr15, cr14, {1}
    1670:	2e2e2f2e 	cdpcs	15, 2, cr2, cr14, cr14, {1}
    1674:	77656e2f 	strbvc	r6, [r5, -pc, lsr #28]!
    1678:	2f62696c 	svccs	0x0062696c
    167c:	6362696c 	cmnvs	r2, #108, 18	; 0x1b0000
    1680:	6474732f 	ldrbtvs	r7, [r4], #-815	; 0xfffffcd1
    1684:	2f62696c 	svccs	0x0062696c
    1688:	74615f5f 	strbtvc	r5, [r1], #-3935	; 0xfffff0a1
    168c:	74697865 	strbtvc	r7, [r9], #-2149	; 0xfffff79b
    1690:	2e00632e 	cdpcs	3, 0, cr6, cr0, cr14, {1}
    1694:	2e2e2f2e 	cdpcs	15, 2, cr2, cr14, cr14, {1}
    1698:	2f2e2e2f 	svccs	0x002e2e2f
    169c:	2e2f2e2e 	cdpcs	14, 2, cr2, cr15, cr14, {1}
    16a0:	2e2e2f2e 	cdpcs	15, 2, cr2, cr14, cr14, {1}
    16a4:	77656e2f 	strbvc	r6, [r5, -pc, lsr #28]!
    16a8:	2f62696c 	svccs	0x0062696c
    16ac:	6362696c 	cmnvs	r2, #108, 18	; 0x1b0000
    16b0:	6474732f 	ldrbtvs	r7, [r4], #-815	; 0xfffffcd1
    16b4:	2f62696c 	svccs	0x0062696c
    16b8:	61635f5f 	cmnvs	r3, pc, asr pc
    16bc:	615f6c6c 	cmpvs	pc, ip, ror #24
    16c0:	69786574 	ldmdbvs	r8!, {r2, r4, r5, r6, r8, sl, sp, lr}^
    16c4:	00632e74 	rsbeq	r2, r3, r4, ror lr
    16c8:	65657266 	strbvs	r7, [r5, #-614]!	; 0xfffffd9a
    16cc:	73616c00 	cmnvc	r1, #0, 24
    16d0:	72007074 	andvc	r7, r0, #116	; 0x74
    16d4:	61747365 	cmnvs	r4, r5, ror #6
    16d8:	5f007472 	svcpl	0x00007472
    16dc:	6c61635f 	stclvs	3, cr6, [r1], #-380	; 0xfffffe84
    16e0:	78655f6c 	stmdavc	r5!, {r2, r3, r5, r6, r8, r9, sl, fp, ip, lr}^
    16e4:	72707469 	rsbsvc	r7, r0, #1761607680	; 0x69000000
    16e8:	0073636f 	rsbseq	r6, r3, pc, ror #6
    16ec:	69676572 	stmdbvs	r7!, {r1, r4, r5, r6, r8, sl, sp, lr}^
    16f0:	72657473 	rsbvc	r7, r5, #1929379840	; 0x73000000
    16f4:	6e69665f 	mcrvs	6, 3, r6, cr9, cr15, {2}
    16f8:	5f5f0069 	svcpl	0x005f0069
    16fc:	6362696c 	cmnvs	r2, #108, 18	; 0x1b0000
    1700:	6e69665f 	mcrvs	6, 3, r6, cr9, cr15, {2}
    1704:	5f5f0069 	svcpl	0x005f0069
    1708:	78657461 	stmdavc	r5!, {r0, r5, r6, sl, ip, sp, lr}^
    170c:	6c5f7469 	cfldrdvs	mvd7, [pc], {105}	; 0x69
    1710:	006b636f 	rsbeq	r6, fp, pc, ror #6
    1714:	65646f63 	strbvs	r6, [r4, #-3939]!	; 0xfffff09d
	...

Disassembly of section .debug_frame:

00000000 <.debug_frame>:
   0:	0000000c 	andeq	r0, r0, ip
   4:	ffffffff 			; <UNDEFINED> instruction: 0xffffffff
   8:	7c020001 	stcvc	0, cr0, [r2], {1}
   c:	000d0c0e 	andeq	r0, sp, lr, lsl #24
  10:	0000001c 	andeq	r0, r0, ip, lsl r0
  14:	00000000 	andeq	r0, r0, r0
  18:	08000298 	stmdaeq	r0, {r3, r4, r7, r9}
  1c:	0000009c 	muleq	r0, ip, r0
  20:	84100e41 	ldrhi	r0, [r0], #-3649	; 0xfffff1bf
  24:	86038504 	strhi	r8, [r3], -r4, lsl #10
  28:	41018e02 	tstmi	r1, r2, lsl #28
  2c:	0000580e 	andeq	r5, r0, lr, lsl #16
  30:	00000014 	andeq	r0, r0, r4, lsl r0
	...
  3c:	0000000e 	andeq	r0, r0, lr
  40:	83080e41 	movwhi	r0, #36417	; 0x8e41
  44:	00018e02 	andeq	r8, r1, r2, lsl #28
  48:	0000000c 	andeq	r0, r0, ip
  4c:	00000000 	andeq	r0, r0, r0
  50:	08000334 	stmdaeq	r0, {r2, r4, r5, r8, r9}
  54:	00000002 	andeq	r0, r0, r2
  58:	0000000c 	andeq	r0, r0, ip
  5c:	ffffffff 			; <UNDEFINED> instruction: 0xffffffff
  60:	7c020001 	stcvc	0, cr0, [r2], {1}
  64:	000d0c0e 	andeq	r0, sp, lr, lsl #24
  68:	0000000c 	andeq	r0, r0, ip
  6c:	00000058 	andeq	r0, r0, r8, asr r0
  70:	08000336 	stmdaeq	r0, {r1, r2, r4, r5, r8, r9}
  74:	00000002 	andeq	r0, r0, r2
  78:	0000000c 	andeq	r0, r0, ip
  7c:	00000058 	andeq	r0, r0, r8, asr r0
  80:	00000000 	andeq	r0, r0, r0
  84:	00000002 	andeq	r0, r0, r2
  88:	00000014 	andeq	r0, r0, r4, lsl r0
  8c:	00000058 	andeq	r0, r0, r8, asr r0
  90:	00000000 	andeq	r0, r0, r0
  94:	00000024 	andeq	r0, r0, r4, lsr #32
  98:	84080e42 	strhi	r0, [r8], #-3650	; 0xfffff1be
  9c:	00018e02 	andeq	r8, r1, r2, lsl #28
  a0:	00000014 	andeq	r0, r0, r4, lsl r0
  a4:	00000058 	andeq	r0, r0, r8, asr r0
  a8:	08000338 	stmdaeq	r0, {r3, r4, r5, r8, r9}
  ac:	00000024 	andeq	r0, r0, r4, lsr #32
  b0:	84080e41 	strhi	r0, [r8], #-3649	; 0xfffff1bf
  b4:	00018e02 	andeq	r8, r1, r2, lsl #28
  b8:	00000014 	andeq	r0, r0, r4, lsl r0
  bc:	00000058 	andeq	r0, r0, r8, asr r0
  c0:	0800035c 	stmdaeq	r0, {r2, r3, r4, r6, r8, r9}
  c4:	00000020 	andeq	r0, r0, r0, lsr #32
  c8:	83080e43 	movwhi	r0, #36419	; 0x8e43
  cc:	00018e02 	andeq	r8, r1, r2, lsl #28
  d0:	0000000c 	andeq	r0, r0, ip
  d4:	00000058 	andeq	r0, r0, r8, asr r0
  d8:	00000000 	andeq	r0, r0, r0
  dc:	00000010 	andeq	r0, r0, r0, lsl r0
  e0:	0000000c 	andeq	r0, r0, ip
  e4:	00000058 	andeq	r0, r0, r8, asr r0
  e8:	0800037c 	stmdaeq	r0, {r2, r3, r4, r5, r6, r8, r9}
  ec:	0000000c 	andeq	r0, r0, ip
  f0:	0000001c 	andeq	r0, r0, ip, lsl r0
  f4:	00000058 	andeq	r0, r0, r8, asr r0
  f8:	00000000 	andeq	r0, r0, r0
  fc:	00000020 	andeq	r0, r0, r0, lsr #32
 100:	80180e41 	andshi	r0, r8, r1, asr #28
 104:	82058106 	andhi	r8, r5, #-2147483647	; 0x80000001
 108:	85038404 	strhi	r8, [r3, #-1028]	; 0xfffffbfc
 10c:	00018e02 	andeq	r8, r1, r2, lsl #28
 110:	0000000c 	andeq	r0, r0, ip
 114:	00000058 	andeq	r0, r0, r8, asr r0
 118:	00000000 	andeq	r0, r0, r0
 11c:	00000010 	andeq	r0, r0, r0, lsl r0
 120:	0000000c 	andeq	r0, r0, ip
 124:	00000058 	andeq	r0, r0, r8, asr r0
 128:	00000000 	andeq	r0, r0, r0
 12c:	00000010 	andeq	r0, r0, r0, lsl r0
 130:	0000000c 	andeq	r0, r0, ip
 134:	00000058 	andeq	r0, r0, r8, asr r0
 138:	00000000 	andeq	r0, r0, r0
 13c:	00000008 	andeq	r0, r0, r8
 140:	0000000c 	andeq	r0, r0, ip
 144:	00000058 	andeq	r0, r0, r8, asr r0
 148:	00000000 	andeq	r0, r0, r0
 14c:	0000000c 	andeq	r0, r0, ip
 150:	0000000c 	andeq	r0, r0, ip
 154:	00000058 	andeq	r0, r0, r8, asr r0
 158:	00000000 	andeq	r0, r0, r0
 15c:	00000010 	andeq	r0, r0, r0, lsl r0
 160:	0000000c 	andeq	r0, r0, ip
 164:	00000058 	andeq	r0, r0, r8, asr r0
 168:	00000000 	andeq	r0, r0, r0
 16c:	0000000c 	andeq	r0, r0, ip
 170:	0000000c 	andeq	r0, r0, ip
 174:	00000058 	andeq	r0, r0, r8, asr r0
 178:	00000000 	andeq	r0, r0, r0
 17c:	0000000c 	andeq	r0, r0, ip
 180:	0000000c 	andeq	r0, r0, ip
 184:	00000058 	andeq	r0, r0, r8, asr r0
 188:	00000000 	andeq	r0, r0, r0
 18c:	0000000c 	andeq	r0, r0, ip
 190:	0000000c 	andeq	r0, r0, ip
 194:	00000058 	andeq	r0, r0, r8, asr r0
 198:	00000000 	andeq	r0, r0, r0
 19c:	00000010 	andeq	r0, r0, r0, lsl r0
 1a0:	0000000c 	andeq	r0, r0, ip
 1a4:	00000058 	andeq	r0, r0, r8, asr r0
 1a8:	00000000 	andeq	r0, r0, r0
 1ac:	00000010 	andeq	r0, r0, r0, lsl r0
 1b0:	0000000c 	andeq	r0, r0, ip
 1b4:	00000058 	andeq	r0, r0, r8, asr r0
 1b8:	00000000 	andeq	r0, r0, r0
 1bc:	00000010 	andeq	r0, r0, r0, lsl r0
 1c0:	0000000c 	andeq	r0, r0, ip
 1c4:	00000058 	andeq	r0, r0, r8, asr r0
 1c8:	00000000 	andeq	r0, r0, r0
 1cc:	00000010 	andeq	r0, r0, r0, lsl r0
 1d0:	0000000c 	andeq	r0, r0, ip
 1d4:	ffffffff 			; <UNDEFINED> instruction: 0xffffffff
 1d8:	7c020001 	stcvc	0, cr0, [r2], {1}
 1dc:	000d0c0e 	andeq	r0, sp, lr, lsl #24
 1e0:	0000001c 	andeq	r0, r0, ip, lsl r0
 1e4:	000001d0 	ldrdeq	r0, [r0], -r0	; <UNPREDICTABLE>
 1e8:	08000388 	stmdaeq	r0, {r3, r7, r8, r9}
 1ec:	00000260 	andeq	r0, r0, r0, ror #4
 1f0:	84140e42 	ldrhi	r0, [r4], #-3650	; 0xfffff1be
 1f4:	86048505 	strhi	r8, [r4], -r5, lsl #10
 1f8:	8e028703 	cdphi	7, 0, cr8, cr2, cr3, {0}
 1fc:	300e4201 	andcc	r4, lr, r1, lsl #4
 200:	00000020 	andeq	r0, r0, r0, lsr #32
 204:	000001d0 	ldrdeq	r0, [r0], -r0	; <UNPREDICTABLE>
 208:	00000000 	andeq	r0, r0, r0
 20c:	00000138 	andeq	r0, r0, r8, lsr r1
 210:	80200e42 	eorhi	r0, r0, r2, asr #28
 214:	82078108 	andhi	r8, r7, #8, 2
 218:	85058406 	strhi	r8, [r5, #-1030]	; 0xfffffbfa
 21c:	87038604 	strhi	r8, [r3, -r4, lsl #12]
 220:	00018e02 	andeq	r8, r1, r2, lsl #28
 224:	00000018 	andeq	r0, r0, r8, lsl r0
 228:	000001d0 	ldrdeq	r0, [r0], -r0	; <UNPREDICTABLE>
 22c:	00000000 	andeq	r0, r0, r0
 230:	00000024 	andeq	r0, r0, r4, lsr #32
 234:	83100e41 	tsthi	r0, #1040	; 0x410
 238:	85038404 	strhi	r8, [r3, #-1028]	; 0xfffffbfc
 23c:	00018e02 	andeq	r8, r1, r2, lsl #28
 240:	00000018 	andeq	r0, r0, r8, lsl r0
 244:	000001d0 	ldrdeq	r0, [r0], -r0	; <UNPREDICTABLE>
 248:	080005e8 	stmdaeq	r0, {r3, r5, r6, r7, r8, sl}
 24c:	00000038 	andeq	r0, r0, r8, lsr r0
 250:	84100e41 	ldrhi	r0, [r0], #-3649	; 0xfffff1bf
 254:	86038504 	strhi	r8, [r3], -r4, lsl #10
 258:	00018e02 	andeq	r8, r1, r2, lsl #28
 25c:	00000018 	andeq	r0, r0, r8, lsl r0
 260:	000001d0 	ldrdeq	r0, [r0], -r0	; <UNPREDICTABLE>
 264:	08000620 	stmdaeq	r0, {r5, r9, sl}
 268:	00000020 	andeq	r0, r0, r0, lsr #32
 26c:	83100e41 	tsthi	r0, #1040	; 0x410
 270:	85038404 	strhi	r8, [r3, #-1028]	; 0xfffffbfc
 274:	00018e02 	andeq	r8, r1, r2, lsl #28
 278:	0000001c 	andeq	r0, r0, ip, lsl r0
 27c:	000001d0 	ldrdeq	r0, [r0], -r0	; <UNPREDICTABLE>
 280:	00000000 	andeq	r0, r0, r0
 284:	00000058 	andeq	r0, r0, r8, asr r0
 288:	80180e42 	andshi	r0, r8, r2, asr #28
 28c:	82058106 	andhi	r8, r5, #-2147483647	; 0x80000001
 290:	85038404 	strhi	r8, [r3, #-1028]	; 0xfffffbfc
 294:	00018e02 	andeq	r8, r1, r2, lsl #28
 298:	0000000c 	andeq	r0, r0, ip
 29c:	000001d0 	ldrdeq	r0, [r0], -r0	; <UNPREDICTABLE>
 2a0:	00000000 	andeq	r0, r0, r0
 2a4:	00000002 	andeq	r0, r0, r2
 2a8:	00000014 	andeq	r0, r0, r4, lsl r0
 2ac:	000001d0 	ldrdeq	r0, [r0], -r0	; <UNPREDICTABLE>
 2b0:	00000000 	andeq	r0, r0, r0
 2b4:	00000018 	andeq	r0, r0, r8, lsl r0
 2b8:	83080e41 	movwhi	r0, #36417	; 0x8e41
 2bc:	00018e02 	andeq	r8, r1, r2, lsl #28
 2c0:	0000000c 	andeq	r0, r0, ip
 2c4:	ffffffff 			; <UNDEFINED> instruction: 0xffffffff
 2c8:	7c020001 	stcvc	0, cr0, [r2], {1}
 2cc:	000d0c0e 	andeq	r0, sp, lr, lsl #24
 2d0:	0000000c 	andeq	r0, r0, ip
 2d4:	000002c0 	andeq	r0, r0, r0, asr #5
 2d8:	00000000 	andeq	r0, r0, r0
 2dc:	0000004c 	andeq	r0, r0, ip, asr #32
 2e0:	0000001c 	andeq	r0, r0, ip, lsl r0
 2e4:	000002c0 	andeq	r0, r0, r0, asr #5
 2e8:	08000640 	stmdaeq	r0, {r6, r9, sl}
 2ec:	00000584 	andeq	r0, r0, r4, lsl #11
 2f0:	84140e41 	ldrhi	r0, [r4], #-3649	; 0xfffff1bf
 2f4:	86048505 	strhi	r8, [r4], -r5, lsl #10
 2f8:	8e028703 	cdphi	7, 0, cr8, cr2, cr3, {0}
 2fc:	280e4201 	stmdacs	lr, {r0, r9, lr}
 300:	0000001c 	andeq	r0, r0, ip, lsl r0
 304:	000002c0 	andeq	r0, r0, r0, asr #5
 308:	00000000 	andeq	r0, r0, r0
 30c:	000000b0 	strheq	r0, [r0], -r0	; <UNPREDICTABLE>
 310:	84100e41 	ldrhi	r0, [r0], #-3649	; 0xfffff1bf
 314:	86038504 	strhi	r8, [r3], -r4, lsl #10
 318:	42018e02 	andmi	r8, r1, #2, 28
 31c:	0000280e 	andeq	r2, r0, lr, lsl #16
 320:	0000000c 	andeq	r0, r0, ip
 324:	000002c0 	andeq	r0, r0, r0, asr #5
 328:	00000000 	andeq	r0, r0, r0
 32c:	00000014 	andeq	r0, r0, r4, lsl r0
 330:	0000000c 	andeq	r0, r0, ip
 334:	000002c0 	andeq	r0, r0, r0, asr #5
 338:	00000000 	andeq	r0, r0, r0
 33c:	00000014 	andeq	r0, r0, r4, lsl r0
 340:	00000018 	andeq	r0, r0, r8, lsl r0
 344:	000002c0 	andeq	r0, r0, r0, asr #5
 348:	08000bc4 	stmdaeq	r0, {r2, r6, r7, r8, r9, fp}
 34c:	00000078 	andeq	r0, r0, r8, ror r0
 350:	840c0e41 	strhi	r0, [ip], #-3649	; 0xfffff1bf
 354:	8e028503 	cfsh32hi	mvfx8, mvfx2, #3
 358:	300e4201 	andcc	r4, lr, r1, lsl #4
 35c:	00000020 	andeq	r0, r0, r0, lsr #32
 360:	000002c0 	andeq	r0, r0, r0, asr #5
 364:	08000c3c 	stmdaeq	r0, {r2, r3, r4, r5, sl, fp}
 368:	0000020c 	andeq	r0, r0, ip, lsl #4
 36c:	80200e41 	eorhi	r0, r0, r1, asr #28
 370:	82078108 	andhi	r8, r7, #8, 2
 374:	85058406 	strhi	r8, [r5, #-1030]	; 0xfffffbfa
 378:	87038604 	strhi	r8, [r3, -r4, lsl #12]
 37c:	00018e02 	andeq	r8, r1, r2, lsl #28
 380:	0000000c 	andeq	r0, r0, ip
 384:	000002c0 	andeq	r0, r0, r0, asr #5
 388:	08000e48 	stmdaeq	r0, {r3, r6, r9, sl, fp}
 38c:	0000000c 	andeq	r0, r0, ip
 390:	0000000c 	andeq	r0, r0, ip
 394:	000002c0 	andeq	r0, r0, r0, asr #5
 398:	00000000 	andeq	r0, r0, r0
 39c:	00000024 	andeq	r0, r0, r4, lsr #32
 3a0:	00000014 	andeq	r0, r0, r4, lsl r0
 3a4:	000002c0 	andeq	r0, r0, r0, asr #5
 3a8:	00000000 	andeq	r0, r0, r0
 3ac:	000000c0 	andeq	r0, r0, r0, asr #1
 3b0:	84080e41 	strhi	r0, [r8], #-3649	; 0xfffff1bf
 3b4:	00018e02 	andeq	r8, r1, r2, lsl #28
 3b8:	00000018 	andeq	r0, r0, r8, lsl r0
 3bc:	000002c0 	andeq	r0, r0, r0, asr #5
 3c0:	00000000 	andeq	r0, r0, r0
 3c4:	00000060 	andeq	r0, r0, r0, rrx
 3c8:	83100e41 	tsthi	r0, #1040	; 0x410
 3cc:	85038404 	strhi	r8, [r3, #-1028]	; 0xfffffbfc
 3d0:	00018e02 	andeq	r8, r1, r2, lsl #28
 3d4:	0000000c 	andeq	r0, r0, ip
 3d8:	000002c0 	andeq	r0, r0, r0, asr #5
 3dc:	00000000 	andeq	r0, r0, r0
 3e0:	00000002 	andeq	r0, r0, r2
 3e4:	00000014 	andeq	r0, r0, r4, lsl r0
 3e8:	000002c0 	andeq	r0, r0, r0, asr #5
 3ec:	00000000 	andeq	r0, r0, r0
 3f0:	00000020 	andeq	r0, r0, r0, lsr #32
 3f4:	84080e41 	strhi	r0, [r8], #-3649	; 0xfffff1bf
 3f8:	00018e02 	andeq	r8, r1, r2, lsl #28
 3fc:	0000000c 	andeq	r0, r0, ip
 400:	ffffffff 			; <UNDEFINED> instruction: 0xffffffff
 404:	7c020001 	stcvc	0, cr0, [r2], {1}
 408:	000d0c0e 	andeq	r0, sp, lr, lsl #24
 40c:	00000018 	andeq	r0, r0, r8, lsl r0
 410:	000003fc 	strdeq	r0, [r0], -ip
 414:	08000e54 	stmdaeq	r0, {r2, r4, r6, r9, sl, fp}
 418:	00000078 	andeq	r0, r0, r8, ror r0
 41c:	84100e41 	ldrhi	r0, [r0], #-3649	; 0xfffff1bf
 420:	86038504 	strhi	r8, [r3], -r4, lsl #10
 424:	00018e02 	andeq	r8, r1, r2, lsl #28
 428:	00000014 	andeq	r0, r0, r4, lsl r0
 42c:	000003fc 	strdeq	r0, [r0], -ip
 430:	08000ecc 	stmdaeq	r0, {r2, r3, r6, r7, r9, sl, fp}
 434:	00000028 	andeq	r0, r0, r8, lsr #32
 438:	84080e41 	strhi	r0, [r8], #-3649	; 0xfffff1bf
 43c:	00018e02 	andeq	r8, r1, r2, lsl #28
 440:	00000014 	andeq	r0, r0, r4, lsl r0
 444:	000003fc 	strdeq	r0, [r0], -ip
 448:	00000000 	andeq	r0, r0, r0
 44c:	00000028 	andeq	r0, r0, r8, lsr #32
 450:	84080e41 	strhi	r0, [r8], #-3649	; 0xfffff1bf
 454:	00018e02 	andeq	r8, r1, r2, lsl #28
 458:	0000000c 	andeq	r0, r0, ip
 45c:	000003fc 	strdeq	r0, [r0], -ip
 460:	00000000 	andeq	r0, r0, r0
 464:	0000001c 	andeq	r0, r0, ip, lsl r0
 468:	0000000c 	andeq	r0, r0, ip
 46c:	000003fc 	strdeq	r0, [r0], -ip
 470:	08000ef4 	stmdaeq	r0, {r2, r4, r5, r6, r7, r9, sl, fp}
 474:	00000034 	andeq	r0, r0, r4, lsr r0
 478:	0000000c 	andeq	r0, r0, ip
 47c:	000003fc 	strdeq	r0, [r0], -ip
 480:	00000000 	andeq	r0, r0, r0
 484:	00000038 	andeq	r0, r0, r8, lsr r0
 488:	00000014 	andeq	r0, r0, r4, lsl r0
 48c:	000003fc 	strdeq	r0, [r0], -ip
 490:	00000000 	andeq	r0, r0, r0
 494:	00000028 	andeq	r0, r0, r8, lsr #32
 498:	84080e41 	strhi	r0, [r8], #-3649	; 0xfffff1bf
 49c:	00018e02 	andeq	r8, r1, r2, lsl #28
 4a0:	00000014 	andeq	r0, r0, r4, lsl r0
 4a4:	000003fc 	strdeq	r0, [r0], -ip
 4a8:	00000000 	andeq	r0, r0, r0
 4ac:	0000002c 	andeq	r0, r0, ip, lsr #32
 4b0:	84080e41 	strhi	r0, [r8], #-3649	; 0xfffff1bf
 4b4:	00018e02 	andeq	r8, r1, r2, lsl #28
 4b8:	00000014 	andeq	r0, r0, r4, lsl r0
 4bc:	000003fc 	strdeq	r0, [r0], -ip
 4c0:	00000000 	andeq	r0, r0, r0
 4c4:	0000002c 	andeq	r0, r0, ip, lsr #32
 4c8:	84080e41 	strhi	r0, [r8], #-3649	; 0xfffff1bf
 4cc:	00018e02 	andeq	r8, r1, r2, lsl #28
 4d0:	00000014 	andeq	r0, r0, r4, lsl r0
 4d4:	000003fc 	strdeq	r0, [r0], -ip
 4d8:	00000000 	andeq	r0, r0, r0
 4dc:	00000030 	andeq	r0, r0, r0, lsr r0
 4e0:	84080e41 	strhi	r0, [r8], #-3649	; 0xfffff1bf
 4e4:	00018e02 	andeq	r8, r1, r2, lsl #28
 4e8:	0000000c 	andeq	r0, r0, ip
 4ec:	000003fc 	strdeq	r0, [r0], -ip
 4f0:	00000000 	andeq	r0, r0, r0
 4f4:	00000002 	andeq	r0, r0, r2
 4f8:	00000014 	andeq	r0, r0, r4, lsl r0
 4fc:	000003fc 	strdeq	r0, [r0], -ip
 500:	00000000 	andeq	r0, r0, r0
 504:	00000008 	andeq	r0, r0, r8
 508:	83080e41 	movwhi	r0, #36417	; 0x8e41
 50c:	00018e02 	andeq	r8, r1, r2, lsl #28
 510:	0000000c 	andeq	r0, r0, ip
 514:	ffffffff 			; <UNDEFINED> instruction: 0xffffffff
 518:	7c020001 	stcvc	0, cr0, [r2], {1}
 51c:	000d0c0e 	andeq	r0, sp, lr, lsl #24
 520:	0000000c 	andeq	r0, r0, ip
 524:	00000510 	andeq	r0, r0, r0, lsl r5
 528:	00000000 	andeq	r0, r0, r0
 52c:	00000008 	andeq	r0, r0, r8
 530:	0000001c 	andeq	r0, r0, ip, lsl r0
 534:	00000510 	andeq	r0, r0, r0, lsl r5
 538:	08000f28 	stmdaeq	r0, {r3, r5, r8, r9, sl, fp}
 53c:	000000a4 	andeq	r0, r0, r4, lsr #1
 540:	84100e41 	ldrhi	r0, [r0], #-3649	; 0xfffff1bf
 544:	86038504 	strhi	r8, [r3], -r4, lsl #10
 548:	41018e02 	tstmi	r1, r2, lsl #28
 54c:	0000380e 	andeq	r3, r0, lr, lsl #16
 550:	00000014 	andeq	r0, r0, r4, lsl r0
 554:	00000510 	andeq	r0, r0, r0, lsl r5
 558:	00000000 	andeq	r0, r0, r0
 55c:	00000020 	andeq	r0, r0, r0, lsr #32
 560:	83080e41 	movwhi	r0, #36417	; 0x8e41
 564:	00018e02 	andeq	r8, r1, r2, lsl #28
 568:	00000014 	andeq	r0, r0, r4, lsl r0
 56c:	00000510 	andeq	r0, r0, r0, lsl r5
 570:	00000000 	andeq	r0, r0, r0
 574:	00000020 	andeq	r0, r0, r0, lsr #32
 578:	83080e41 	movwhi	r0, #36417	; 0x8e41
 57c:	00018e02 	andeq	r8, r1, r2, lsl #28
 580:	00000014 	andeq	r0, r0, r4, lsl r0
 584:	00000510 	andeq	r0, r0, r0, lsl r5
 588:	08000fcc 	stmdaeq	r0, {r2, r3, r6, r7, r8, r9, sl, fp}
 58c:	0000001c 	andeq	r0, r0, ip, lsl r0
 590:	83080e41 	movwhi	r0, #36417	; 0x8e41
 594:	00018e02 	andeq	r8, r1, r2, lsl #28
 598:	00000018 	andeq	r0, r0, r8, lsl r0
 59c:	00000510 	andeq	r0, r0, r0, lsl r5
 5a0:	00000000 	andeq	r0, r0, r0
 5a4:	00000084 	andeq	r0, r0, r4, lsl #1
 5a8:	840c0e41 	strhi	r0, [ip], #-3649	; 0xfffff1bf
 5ac:	8e028503 	cfsh32hi	mvfx8, mvfx2, #3
 5b0:	300e4201 	andcc	r4, lr, r1, lsl #4
 5b4:	00000014 	andeq	r0, r0, r4, lsl r0
 5b8:	00000510 	andeq	r0, r0, r0, lsl r5
 5bc:	00000000 	andeq	r0, r0, r0
 5c0:	00000014 	andeq	r0, r0, r4, lsl r0
 5c4:	83080e41 	movwhi	r0, #36417	; 0x8e41
 5c8:	00018e02 	andeq	r8, r1, r2, lsl #28
 5cc:	0000000c 	andeq	r0, r0, ip
 5d0:	ffffffff 			; <UNDEFINED> instruction: 0xffffffff
 5d4:	7c020001 	stcvc	0, cr0, [r2], {1}
 5d8:	000d0c0e 	andeq	r0, sp, lr, lsl #24
 5dc:	0000000c 	andeq	r0, r0, ip
 5e0:	000005cc 	andeq	r0, r0, ip, asr #11
 5e4:	08000fe8 	stmdaeq	r0, {r3, r5, r6, r7, r8, r9, sl, fp}
 5e8:	00000060 	andeq	r0, r0, r0, rrx
 5ec:	0000001c 	andeq	r0, r0, ip, lsl r0
 5f0:	000005cc 	andeq	r0, r0, ip, asr #11
 5f4:	00000000 	andeq	r0, r0, r0
 5f8:	00000074 	andeq	r0, r0, r4, ror r0
 5fc:	83180e41 	tsthi	r8, #1040	; 0x410
 600:	85058406 	strhi	r8, [r5, #-1030]	; 0xfffffbfa
 604:	87038604 	strhi	r8, [r3, -r4, lsl #12]
 608:	00018e02 	andeq	r8, r1, r2, lsl #28
 60c:	0000000c 	andeq	r0, r0, ip
 610:	ffffffff 			; <UNDEFINED> instruction: 0xffffffff
 614:	7c010001 	stcvc	0, cr0, [r1], {1}
 618:	000d0c0e 	andeq	r0, sp, lr, lsl #24
 61c:	0000000c 	andeq	r0, r0, ip
 620:	0000060c 	andeq	r0, r0, ip, lsl #12
 624:	08000175 	stmdaeq	r0, {r0, r2, r4, r5, r6, r8}
 628:	0000010a 	andeq	r0, r0, sl, lsl #2
 62c:	0000000c 	andeq	r0, r0, ip
 630:	ffffffff 			; <UNDEFINED> instruction: 0xffffffff
 634:	7c020001 	stcvc	0, cr0, [r2], {1}
 638:	000d0c0e 	andeq	r0, sp, lr, lsl #24
 63c:	00000014 	andeq	r0, r0, r4, lsl r0
 640:	0000062c 	andeq	r0, r0, ip, lsr #12
 644:	0800109c 	stmdaeq	r0, {r2, r3, r4, r7, ip}
 648:	00000010 	andeq	r0, r0, r0, lsl r0
 64c:	83080e41 	movwhi	r0, #36417	; 0x8e41
 650:	00018e02 	andeq	r8, r1, r2, lsl #28
 654:	0000000c 	andeq	r0, r0, ip
 658:	ffffffff 			; <UNDEFINED> instruction: 0xffffffff
 65c:	7c020001 	stcvc	0, cr0, [r2], {1}
 660:	000d0c0e 	andeq	r0, sp, lr, lsl #24
 664:	00000018 	andeq	r0, r0, r8, lsl r0
 668:	00000654 	andeq	r0, r0, r4, asr r6
 66c:	080010ac 	stmdaeq	r0, {r2, r3, r5, r7, ip}
 670:	00000034 	andeq	r0, r0, r4, lsr r0
 674:	83100e41 	tsthi	r0, #1040	; 0x410
 678:	85038404 	strhi	r8, [r3, #-1028]	; 0xfffffbfc
 67c:	00018e02 	andeq	r8, r1, r2, lsl #28
 680:	0000000c 	andeq	r0, r0, ip
 684:	ffffffff 			; <UNDEFINED> instruction: 0xffffffff
 688:	7c020001 	stcvc	0, cr0, [r2], {1}
 68c:	000d0c0e 	andeq	r0, sp, lr, lsl #24
 690:	00000018 	andeq	r0, r0, r8, lsl r0
 694:	00000680 	andeq	r0, r0, r0, lsl #13
 698:	080010e0 	stmdaeq	r0, {r5, r6, r7, ip}
 69c:	00000048 	andeq	r0, r0, r8, asr #32
 6a0:	84100e41 	ldrhi	r0, [r0], #-3649	; 0xfffff1bf
 6a4:	86038504 	strhi	r8, [r3], -r4, lsl #10
 6a8:	00018e02 	andeq	r8, r1, r2, lsl #28
 6ac:	0000000c 	andeq	r0, r0, ip
 6b0:	ffffffff 			; <UNDEFINED> instruction: 0xffffffff
 6b4:	7c020001 	stcvc	0, cr0, [r2], {1}
 6b8:	000d0c0e 	andeq	r0, sp, lr, lsl #24
 6bc:	00000018 	andeq	r0, r0, r8, lsl r0
 6c0:	000006ac 	andeq	r0, r0, ip, lsr #13
 6c4:	08001128 	stmdaeq	r0, {r3, r5, r8, ip}
 6c8:	0000007c 	andeq	r0, r0, ip, ror r0
 6cc:	84100e41 	ldrhi	r0, [r0], #-3649	; 0xfffff1bf
 6d0:	86038504 	strhi	r8, [r3], -r4, lsl #10
 6d4:	00018e02 	andeq	r8, r1, r2, lsl #28
 6d8:	0000000c 	andeq	r0, r0, ip
 6dc:	ffffffff 			; <UNDEFINED> instruction: 0xffffffff
 6e0:	7c020001 	stcvc	0, cr0, [r2], {1}
 6e4:	000d0c0e 	andeq	r0, sp, lr, lsl #24
 6e8:	00000028 	andeq	r0, r0, r8, lsr #32
 6ec:	000006d8 	ldrdeq	r0, [r0], -r8
 6f0:	080011a4 	stmdaeq	r0, {r2, r5, r7, r8, ip}
 6f4:	000000d4 	ldrdeq	r0, [r0], -r4
 6f8:	83180e41 	tsthi	r8, #1040	; 0x410
 6fc:	85058406 	strhi	r8, [r5, #-1030]	; 0xfffffbfa
 700:	87038604 	strhi	r8, [r3, -r4, lsl #12]
 704:	47018e02 	strmi	r8, [r1, -r2, lsl #28]
 708:	0a88280e 	beq	fe20a748 <_estack+0xde206748>
 70c:	088a0989 	stmeq	sl, {r0, r3, r7, r8, fp}
 710:	0000078b 	andeq	r0, r0, fp, lsl #15
 714:	0000000c 	andeq	r0, r0, ip
 718:	ffffffff 			; <UNDEFINED> instruction: 0xffffffff
 71c:	7c020001 	stcvc	0, cr0, [r2], {1}
 720:	000d0c0e 	andeq	r0, sp, lr, lsl #24
 724:	00000014 	andeq	r0, r0, r4, lsl r0
 728:	00000714 	andeq	r0, r0, r4, lsl r7
 72c:	08001278 	stmdaeq	r0, {r3, r4, r5, r6, r9, ip}
 730:	00000018 	andeq	r0, r0, r8, lsl r0
 734:	83080e41 	movwhi	r0, #36417	; 0x8e41
 738:	00018e02 	andeq	r8, r1, r2, lsl #28
 73c:	00000028 	andeq	r0, r0, r8, lsr #32
 740:	00000714 	andeq	r0, r0, r4, lsl r7
 744:	00000000 	andeq	r0, r0, r0
 748:	00000108 	andeq	r0, r0, r8, lsl #2
 74c:	84140e41 	ldrhi	r0, [r4], #-3649	; 0xfffff1bf
 750:	86048505 	strhi	r8, [r4], -r5, lsl #10
 754:	8e028703 	cdphi	7, 0, cr8, cr2, cr3, {0}
 758:	240e4501 	strcs	r4, [lr], #-1281	; 0xfffffaff
 75c:	08890988 	stmeq	r9, {r3, r7, r8, fp}
 760:	068b078a 	streq	r0, [fp], sl, lsl #15
 764:	00400e43 	subeq	r0, r0, r3, asr #28
